	.text
	.file	"llvm-link"
	.globl	ReadA2M                 # -- Begin function ReadA2M
	.p2align	4, 0x90
	.type	ReadA2M,@function
ReadA2M:                                # @ReadA2M
	.cfi_startproc
# %bb.0:
	pushq	%rbp
	.cfi_def_cfa_offset 16
	.cfi_offset %rbp, -16
	movq	%rsp, %rbp
	.cfi_def_cfa_register %rbp
	subq	$80, %rsp
	movq	%rdi, -48(%rbp)
	movq	-48(%rbp), %rax
	movq	(%rax), %rdi
	callq	feof
	cmpl	$0, %eax
	je	.LBB0_2
# %bb.1:
	movq	$0, -56(%rbp)
	jmp	.LBB0_22
.LBB0_2:
	movq	$0, -40(%rbp)
	movl	$10, %edi
	xorl	%esi, %esi
	callq	MSAAlloc
	movq	%rax, -16(%rbp)
	movl	$0, -4(%rbp)
.LBB0_3:                                # =>This Inner Loop Header: Depth=1
	movq	-48(%rbp), %rdi
	callq	MSAFileGetLine
	movq	%rax, -32(%rbp)
	cmpq	$0, %rax
	je	.LBB0_19
# %bb.4:                                #   in Loop: Header=BB0_3 Depth=1
	movq	-32(%rbp), %rax
	movsbl	(%rax), %eax
	cmpl	$62, %eax
	jne	.LBB0_12
# %bb.5:                                #   in Loop: Header=BB0_3 Depth=1
	leaq	-32(%rbp), %rdi
	movabsq	$.L.str, %rsi
	leaq	-20(%rbp), %rdx
	movq	-32(%rbp), %rax
	addq	$1, %rax
	movq	%rax, -32(%rbp)
	callq	sre_strtok
	movq	%rax, -40(%rbp)
	cmpq	$0, %rax
	jne	.LBB0_7
# %bb.6:                                #   in Loop: Header=BB0_3 Depth=1
	movabsq	$.L.str.1, %rdi
	movq	-48(%rbp), %rax
	movq	8(%rax), %rsi
	movq	-48(%rbp), %rax
	movl	16(%rax), %edx
	movb	$0, %al
	callq	Die
.LBB0_7:                                #   in Loop: Header=BB0_3 Depth=1
	leaq	-32(%rbp), %rdi
	movabsq	$.L.str.2, %rsi
	leaq	-76(%rbp), %rdx
	callq	sre_strtok
	movq	%rax, -64(%rbp)
	movq	-16(%rbp), %rax
	movq	312(%rax), %rdi
	movq	-40(%rbp), %rsi
	callq	GKIStoreKey
	movl	%eax, -4(%rbp)
	movl	-4(%rbp), %eax
	movq	-16(%rbp), %rcx
	cmpl	320(%rcx), %eax
	jl	.LBB0_9
# %bb.8:                                #   in Loop: Header=BB0_3 Depth=1
	movq	-16(%rbp), %rdi
	callq	MSAExpand
.LBB0_9:                                #   in Loop: Header=BB0_3 Depth=1
	movq	-40(%rbp), %rdi
	movl	-20(%rbp), %esi
	callq	sre_strdup
	movq	-16(%rbp), %rcx
	movq	8(%rcx), %rcx
	movslq	-4(%rbp), %rdx
	movq	%rax, (%rcx,%rdx,8)
	cmpq	$0, -64(%rbp)
	je	.LBB0_11
# %bb.10:                               #   in Loop: Header=BB0_3 Depth=1
	movq	-16(%rbp), %rdi
	movl	-4(%rbp), %esi
	movq	-64(%rbp), %rdx
	callq	MSASetSeqDescription
.LBB0_11:                               #   in Loop: Header=BB0_3 Depth=1
	movq	-16(%rbp), %rax
	movl	28(%rax), %ecx
	addl	$1, %ecx
	movl	%ecx, 28(%rax)
	jmp	.LBB0_18
.LBB0_12:                               #   in Loop: Header=BB0_3 Depth=1
	cmpq	$0, -40(%rbp)
	je	.LBB0_17
# %bb.13:                               #   in Loop: Header=BB0_3 Depth=1
	leaq	-32(%rbp), %rdi
	movabsq	$.L.str, %rsi
	leaq	-20(%rbp), %rdx
	callq	sre_strtok
	movq	%rax, -72(%rbp)
	cmpq	$0, %rax
	jne	.LBB0_16
# %bb.14:                               #   in Loop: Header=BB0_3 Depth=1
	jmp	.LBB0_15
.LBB0_15:                               # %.backedge
                                        #   in Loop: Header=BB0_3 Depth=1
	jmp	.LBB0_3
.LBB0_16:                               #   in Loop: Header=BB0_3 Depth=1
	movq	-16(%rbp), %rax
	movq	(%rax), %rdi
	movslq	-4(%rbp), %rax
	shlq	$3, %rax
	addq	%rax, %rdi
	movq	-16(%rbp), %rax
	movq	328(%rax), %rax
	movslq	-4(%rbp), %rcx
	movl	(%rax,%rcx,4), %esi
	movq	-72(%rbp), %rdx
	movl	-20(%rbp), %ecx
	callq	sre_strcat
	movq	-16(%rbp), %rcx
	movq	328(%rcx), %rcx
	movslq	-4(%rbp), %rdx
	movl	%eax, (%rcx,%rdx,4)
.LBB0_17:                               #   in Loop: Header=BB0_3 Depth=1
	jmp	.LBB0_18
.LBB0_18:                               #   in Loop: Header=BB0_3 Depth=1
	jmp	.LBB0_15
.LBB0_19:
	cmpq	$0, -40(%rbp)
	jne	.LBB0_21
# %bb.20:
	movq	-16(%rbp), %rdi
	callq	MSAFree
	movq	$0, -56(%rbp)
	jmp	.LBB0_22
.LBB0_21:
	movq	-16(%rbp), %rdi
	callq	MSAVerifyParse
	movq	-16(%rbp), %rax
	movq	%rax, -56(%rbp)
.LBB0_22:
	movq	-56(%rbp), %rax
	addq	$80, %rsp
	popq	%rbp
	retq
.Lfunc_end0:
	.size	ReadA2M, .Lfunc_end0-ReadA2M
	.cfi_endproc
                                        # -- End function
	.globl	WriteA2M                # -- Begin function WriteA2M
	.p2align	4, 0x90
	.type	WriteA2M,@function
WriteA2M:                               # @WriteA2M
	.cfi_startproc
# %bb.0:
	pushq	%rbp
	.cfi_def_cfa_offset 16
	.cfi_offset %rbp, -16
	movq	%rsp, %rbp
	.cfi_def_cfa_register %rbp
	subq	$96, %rsp
	movq	%rdi, -32(%rbp)
	movq	%rsi, -16(%rbp)
	movl	$60, -20(%rbp)
	movslq	-20(%rbp), %rax
	movb	$0, -96(%rbp,%rax)
	movl	$0, -4(%rbp)
.LBB1_1:                                # =>This Loop Header: Depth=1
                                        #     Child Loop BB1_7 Depth 2
	movl	-4(%rbp), %eax
	movq	-16(%rbp), %rcx
	cmpl	28(%rcx), %eax
	jge	.LBB1_12
# %bb.2:                                #   in Loop: Header=BB1_1 Depth=1
	movq	-32(%rbp), %rdi
	movq	-16(%rbp), %rax
	movq	8(%rax), %rax
	movslq	-4(%rbp), %rcx
	movq	(%rax,%rcx,8), %rdx
	movq	-16(%rbp), %rax
	cmpq	$0, 104(%rax)
	je	.LBB1_5
# %bb.3:                                #   in Loop: Header=BB1_1 Depth=1
	movq	-16(%rbp), %rax
	movq	104(%rax), %rax
	movslq	-4(%rbp), %rcx
	cmpq	$0, (%rax,%rcx,8)
	je	.LBB1_5
# %bb.4:                                #   in Loop: Header=BB1_1 Depth=1
	movq	-16(%rbp), %rax
	movq	104(%rax), %rax
	movslq	-4(%rbp), %rcx
	movq	(%rax,%rcx,8), %rcx
	jmp	.LBB1_6
.LBB1_5:                                #   in Loop: Header=BB1_1 Depth=1
	movabsq	$.L.str.4, %rcx
	jmp	.LBB1_6
.LBB1_6:                                #   in Loop: Header=BB1_1 Depth=1
	movabsq	$.L.str.3, %rsi
	movb	$0, %al
	callq	fprintf
	movl	$0, -8(%rbp)
.LBB1_7:                                #   Parent Loop BB1_1 Depth=1
                                        # =>  This Inner Loop Header: Depth=2
	movl	-8(%rbp), %eax
	movq	-16(%rbp), %rcx
	cmpl	24(%rcx), %eax
	jge	.LBB1_10
# %bb.8:                                #   in Loop: Header=BB1_7 Depth=2
	leaq	-96(%rbp), %rdi
	movq	-16(%rbp), %rax
	movq	(%rax), %rax
	movslq	-4(%rbp), %rcx
	movq	(%rax,%rcx,8), %rsi
	movslq	-8(%rbp), %rax
	addq	%rax, %rsi
	movslq	-20(%rbp), %rdx
	callq	strncpy
	movabsq	$.L.str.5, %rsi
	leaq	-96(%rbp), %rdx
	movq	-32(%rbp), %rdi
	movb	$0, %al
	callq	fprintf
# %bb.9:                                #   in Loop: Header=BB1_7 Depth=2
	movl	-20(%rbp), %eax
	addl	-8(%rbp), %eax
	movl	%eax, -8(%rbp)
	jmp	.LBB1_7
.LBB1_10:                               #   in Loop: Header=BB1_1 Depth=1
	jmp	.LBB1_11
.LBB1_11:                               #   in Loop: Header=BB1_1 Depth=1
	movl	-4(%rbp), %eax
	addl	$1, %eax
	movl	%eax, -4(%rbp)
	jmp	.LBB1_1
.LBB1_12:
	addq	$96, %rsp
	popq	%rbp
	retq
.Lfunc_end1:
	.size	WriteA2M, .Lfunc_end1-WriteA2M
	.cfi_endproc
                                        # -- End function
	.section	.rodata.cst4,"aM",@progbits,4
	.p2align	2               # -- Begin function ComparePairAlignments
.LCPI2_0:
	.long	3212836864              # float -1
	.text
	.globl	ComparePairAlignments
	.p2align	4, 0x90
	.type	ComparePairAlignments,@function
ComparePairAlignments:                  # @ComparePairAlignments
	.cfi_startproc
# %bb.0:
	pushq	%rbp
	.cfi_def_cfa_offset 16
	.cfi_offset %rbp, -16
	movq	%rsp, %rbp
	.cfi_def_cfa_register %rbp
	subq	$96, %rsp
	leaq	-32(%rbp), %rax
	leaq	-12(%rbp), %r8
	movq	%rdi, -80(%rbp)
	movq	%rsi, -72(%rbp)
	movq	%rdx, -64(%rbp)
	movq	%rcx, -56(%rbp)
	movq	-64(%rbp), %rdi
	movq	-56(%rbp), %rsi
	movq	%rax, %rdx
	movq	%r8, %rcx
	callq	make_alilist
	cmpl	$0, %eax
	jne	.LBB2_2
# %bb.1:
	movss	.LCPI2_0(%rip), %xmm0   # xmm0 = mem[0],zero,zero,zero
	movss	%xmm0, -4(%rbp)
	jmp	.LBB2_11
.LBB2_2:
	leaq	-24(%rbp), %rdx
	leaq	-8(%rbp), %rcx
	movq	-56(%rbp), %rdi
	movq	-64(%rbp), %rsi
	callq	make_alilist
	cmpl	$0, %eax
	jne	.LBB2_4
# %bb.3:
	movss	.LCPI2_0(%rip), %xmm0   # xmm0 = mem[0],zero,zero,zero
	movss	%xmm0, -4(%rbp)
	jmp	.LBB2_11
.LBB2_4:
	leaq	-48(%rbp), %rdx
	leaq	-12(%rbp), %rcx
	movq	-80(%rbp), %rdi
	movq	-72(%rbp), %rsi
	callq	make_alilist
	cmpl	$0, %eax
	jne	.LBB2_6
# %bb.5:
	movss	.LCPI2_0(%rip), %xmm0   # xmm0 = mem[0],zero,zero,zero
	movss	%xmm0, -4(%rbp)
	jmp	.LBB2_11
.LBB2_6:
	leaq	-40(%rbp), %rdx
	leaq	-8(%rbp), %rcx
	movq	-72(%rbp), %rdi
	movq	-80(%rbp), %rsi
	callq	make_alilist
	cmpl	$0, %eax
	jne	.LBB2_8
# %bb.7:
	movss	.LCPI2_0(%rip), %xmm0   # xmm0 = mem[0],zero,zero,zero
	movss	%xmm0, -4(%rbp)
	jmp	.LBB2_11
.LBB2_8:
	leaq	-16(%rbp), %rax
	movq	-48(%rbp), %rdi
	movq	-40(%rbp), %rsi
	movq	-32(%rbp), %rdx
	movq	-24(%rbp), %rcx
	movl	-12(%rbp), %r8d
	movl	-8(%rbp), %r9d
	movq	%rax, (%rsp)
	callq	compare_lists
	cmpl	$0, %eax
	jne	.LBB2_10
# %bb.9:
	movss	.LCPI2_0(%rip), %xmm0   # xmm0 = mem[0],zero,zero,zero
	movss	%xmm0, -4(%rbp)
	jmp	.LBB2_11
.LBB2_10:
	movq	-48(%rbp), %rdi
	callq	free
	movq	-40(%rbp), %rdi
	callq	free
	movq	-32(%rbp), %rdi
	callq	free
	movq	-24(%rbp), %rdi
	callq	free
	movss	-16(%rbp), %xmm0        # xmm0 = mem[0],zero,zero,zero
	movss	%xmm0, -4(%rbp)
.LBB2_11:
	movss	-4(%rbp), %xmm0         # xmm0 = mem[0],zero,zero,zero
	addq	$96, %rsp
	popq	%rbp
	retq
.Lfunc_end2:
	.size	ComparePairAlignments, .Lfunc_end2-ComparePairAlignments
	.cfi_endproc
                                        # -- End function
	.p2align	4, 0x90         # -- Begin function make_alilist
	.type	make_alilist,@function
make_alilist:                           # @make_alilist
	.cfi_startproc
# %bb.0:
	pushq	%rbp
	.cfi_def_cfa_offset 16
	.cfi_offset %rbp, -16
	movq	%rsp, %rbp
	.cfi_def_cfa_register %rbp
	pushq	%rbx
	subq	$72, %rsp
	.cfi_offset %rbx, -24
	movabsq	$.L.str.6, %rbx
	movq	%rdi, -40(%rbp)
	movq	%rsi, -24(%rbp)
	movq	%rdx, -72(%rbp)
	movq	%rcx, -64(%rbp)
	movq	-40(%rbp), %rdi
	callq	strlen
	shlq	$2, %rax
	movq	%rbx, %rdi
	movl	$179, %esi
	movq	%rax, %rdx
	callq	sre_malloc
	movq	%rax, -56(%rbp)
	movl	$0, -44(%rbp)
	movl	$0, -28(%rbp)
	movl	$0, -12(%rbp)
.LBB3_1:                                # =>This Inner Loop Header: Depth=1
	movq	-40(%rbp), %rax
	movslq	-12(%rbp), %rcx
	movsbl	(%rax,%rcx), %eax
	cmpl	$0, %eax
	je	.LBB3_23
# %bb.2:                                #   in Loop: Header=BB3_1 Depth=1
	movq	-40(%rbp), %rax
	movslq	-12(%rbp), %rcx
	movsbl	(%rax,%rcx), %eax
	cmpl	$32, %eax
	je	.LBB3_15
# %bb.3:                                #   in Loop: Header=BB3_1 Depth=1
	movq	-40(%rbp), %rax
	movslq	-12(%rbp), %rcx
	movsbl	(%rax,%rcx), %eax
	cmpl	$46, %eax
	je	.LBB3_15
# %bb.4:                                #   in Loop: Header=BB3_1 Depth=1
	movq	-40(%rbp), %rax
	movslq	-12(%rbp), %rcx
	movsbl	(%rax,%rcx), %eax
	cmpl	$95, %eax
	je	.LBB3_15
# %bb.5:                                #   in Loop: Header=BB3_1 Depth=1
	movq	-40(%rbp), %rax
	movslq	-12(%rbp), %rcx
	movsbl	(%rax,%rcx), %eax
	cmpl	$45, %eax
	je	.LBB3_15
# %bb.6:                                #   in Loop: Header=BB3_1 Depth=1
	movq	-40(%rbp), %rax
	movslq	-12(%rbp), %rcx
	movsbl	(%rax,%rcx), %eax
	cmpl	$126, %eax
	je	.LBB3_15
# %bb.7:                                #   in Loop: Header=BB3_1 Depth=1
	movq	-24(%rbp), %rax
	movslq	-12(%rbp), %rcx
	movsbl	(%rax,%rcx), %eax
	cmpl	$32, %eax
	je	.LBB3_12
# %bb.8:                                #   in Loop: Header=BB3_1 Depth=1
	movq	-24(%rbp), %rax
	movslq	-12(%rbp), %rcx
	movsbl	(%rax,%rcx), %eax
	cmpl	$46, %eax
	je	.LBB3_12
# %bb.9:                                #   in Loop: Header=BB3_1 Depth=1
	movq	-24(%rbp), %rax
	movslq	-12(%rbp), %rcx
	movsbl	(%rax,%rcx), %eax
	cmpl	$95, %eax
	je	.LBB3_12
# %bb.10:                               #   in Loop: Header=BB3_1 Depth=1
	movq	-24(%rbp), %rax
	movslq	-12(%rbp), %rcx
	movsbl	(%rax,%rcx), %eax
	cmpl	$45, %eax
	je	.LBB3_12
# %bb.11:                               #   in Loop: Header=BB3_1 Depth=1
	movq	-24(%rbp), %rax
	movslq	-12(%rbp), %rcx
	movsbl	(%rax,%rcx), %eax
	cmpl	$126, %eax
	jne	.LBB3_13
.LBB3_12:                               #   in Loop: Header=BB3_1 Depth=1
	movl	$4294967295, %eax       # imm = 0xFFFFFFFF
	jmp	.LBB3_14
.LBB3_13:                               #   in Loop: Header=BB3_1 Depth=1
	movl	-44(%rbp), %eax
.LBB3_14:                               #   in Loop: Header=BB3_1 Depth=1
	movq	-56(%rbp), %rcx
	movslq	-28(%rbp), %rdx
	movl	%eax, (%rcx,%rdx,4)
	movl	-28(%rbp), %eax
	addl	$1, %eax
	movl	%eax, -28(%rbp)
.LBB3_15:                               #   in Loop: Header=BB3_1 Depth=1
	movq	-24(%rbp), %rax
	movslq	-12(%rbp), %rcx
	movsbl	(%rax,%rcx), %eax
	cmpl	$32, %eax
	je	.LBB3_21
# %bb.16:                               #   in Loop: Header=BB3_1 Depth=1
	movq	-24(%rbp), %rax
	movslq	-12(%rbp), %rcx
	movsbl	(%rax,%rcx), %eax
	cmpl	$46, %eax
	je	.LBB3_21
# %bb.17:                               #   in Loop: Header=BB3_1 Depth=1
	movq	-24(%rbp), %rax
	movslq	-12(%rbp), %rcx
	movsbl	(%rax,%rcx), %eax
	cmpl	$95, %eax
	je	.LBB3_21
# %bb.18:                               #   in Loop: Header=BB3_1 Depth=1
	movq	-24(%rbp), %rax
	movslq	-12(%rbp), %rcx
	movsbl	(%rax,%rcx), %eax
	cmpl	$45, %eax
	je	.LBB3_21
# %bb.19:                               #   in Loop: Header=BB3_1 Depth=1
	movq	-24(%rbp), %rax
	movslq	-12(%rbp), %rcx
	movsbl	(%rax,%rcx), %eax
	cmpl	$126, %eax
	je	.LBB3_21
# %bb.20:                               #   in Loop: Header=BB3_1 Depth=1
	movl	-44(%rbp), %eax
	addl	$1, %eax
	movl	%eax, -44(%rbp)
.LBB3_21:                               #   in Loop: Header=BB3_1 Depth=1
	jmp	.LBB3_22
.LBB3_22:                               #   in Loop: Header=BB3_1 Depth=1
	movl	-12(%rbp), %eax
	addl	$1, %eax
	movl	%eax, -12(%rbp)
	jmp	.LBB3_1
.LBB3_23:
	movl	-28(%rbp), %eax
	movq	-64(%rbp), %rcx
	movl	%eax, (%rcx)
	movq	-56(%rbp), %rax
	movq	-72(%rbp), %rcx
	movq	%rax, (%rcx)
	movl	$1, %eax
	addq	$72, %rsp
	popq	%rbx
	popq	%rbp
	retq
.Lfunc_end3:
	.size	make_alilist, .Lfunc_end3-make_alilist
	.cfi_endproc
                                        # -- End function
	.section	.rodata.cst8,"aM",@progbits,8
	.p2align	3               # -- Begin function compare_lists
.LCPI4_0:
	.quad	4607182418800017408     # double 1
	.text
	.p2align	4, 0x90
	.type	compare_lists,@function
compare_lists:                          # @compare_lists
	.cfi_startproc
# %bb.0:
	pushq	%rbp
	.cfi_def_cfa_offset 16
	.cfi_offset %rbp, -16
	movq	%rsp, %rbp
	.cfi_def_cfa_register %rbp
	movq	16(%rbp), %rax
	xorps	%xmm0, %xmm0
	movq	%rdi, -56(%rbp)
	movq	%rsi, -48(%rbp)
	movq	%rdx, -40(%rbp)
	movq	%rcx, -32(%rbp)
	movl	%r8d, -20(%rbp)
	movl	%r9d, -16(%rbp)
	movss	%xmm0, -8(%rbp)
	movss	%xmm0, -12(%rbp)
	movl	$0, -4(%rbp)
.LBB4_1:                                # =>This Inner Loop Header: Depth=1
	movl	-4(%rbp), %eax
	cmpl	-20(%rbp), %eax
	jge	.LBB4_6
# %bb.2:                                #   in Loop: Header=BB4_1 Depth=1
	movsd	.LCPI4_0(%rip), %xmm0   # xmm0 = mem[0],zero
	movss	-8(%rbp), %xmm1         # xmm1 = mem[0],zero,zero,zero
	cvtss2sd	%xmm1, %xmm1
	addsd	%xmm0, %xmm1
	cvtsd2ss	%xmm1, %xmm0
	movss	%xmm0, -8(%rbp)
	movq	-40(%rbp), %rax
	movslq	-4(%rbp), %rcx
	movl	(%rax,%rcx,4), %eax
	movq	-56(%rbp), %rcx
	movslq	-4(%rbp), %rdx
	cmpl	(%rcx,%rdx,4), %eax
	jne	.LBB4_4
# %bb.3:                                #   in Loop: Header=BB4_1 Depth=1
	movsd	.LCPI4_0(%rip), %xmm0   # xmm0 = mem[0],zero
	movss	-12(%rbp), %xmm1        # xmm1 = mem[0],zero,zero,zero
	cvtss2sd	%xmm1, %xmm1
	addsd	%xmm0, %xmm1
	cvtsd2ss	%xmm1, %xmm0
	movss	%xmm0, -12(%rbp)
.LBB4_4:                                #   in Loop: Header=BB4_1 Depth=1
	jmp	.LBB4_5
.LBB4_5:                                #   in Loop: Header=BB4_1 Depth=1
	movl	-4(%rbp), %eax
	addl	$1, %eax
	movl	%eax, -4(%rbp)
	jmp	.LBB4_1
.LBB4_6:
	movl	$0, -4(%rbp)
.LBB4_7:                                # =>This Inner Loop Header: Depth=1
	movl	-4(%rbp), %eax
	cmpl	-16(%rbp), %eax
	jge	.LBB4_12
# %bb.8:                                #   in Loop: Header=BB4_7 Depth=1
	movsd	.LCPI4_0(%rip), %xmm0   # xmm0 = mem[0],zero
	movss	-8(%rbp), %xmm1         # xmm1 = mem[0],zero,zero,zero
	cvtss2sd	%xmm1, %xmm1
	addsd	%xmm0, %xmm1
	cvtsd2ss	%xmm1, %xmm0
	movss	%xmm0, -8(%rbp)
	movq	-48(%rbp), %rax
	movslq	-4(%rbp), %rcx
	movl	(%rax,%rcx,4), %eax
	movq	-32(%rbp), %rcx
	movslq	-4(%rbp), %rdx
	cmpl	(%rcx,%rdx,4), %eax
	jne	.LBB4_10
# %bb.9:                                #   in Loop: Header=BB4_7 Depth=1
	movsd	.LCPI4_0(%rip), %xmm0   # xmm0 = mem[0],zero
	movss	-12(%rbp), %xmm1        # xmm1 = mem[0],zero,zero,zero
	cvtss2sd	%xmm1, %xmm1
	addsd	%xmm0, %xmm1
	cvtsd2ss	%xmm1, %xmm0
	movss	%xmm0, -12(%rbp)
.LBB4_10:                               #   in Loop: Header=BB4_7 Depth=1
	jmp	.LBB4_11
.LBB4_11:                               #   in Loop: Header=BB4_7 Depth=1
	movl	-4(%rbp), %eax
	addl	$1, %eax
	movl	%eax, -4(%rbp)
	jmp	.LBB4_7
.LBB4_12:
	movss	-12(%rbp), %xmm0        # xmm0 = mem[0],zero,zero,zero
	divss	-8(%rbp), %xmm0
	movq	16(%rbp), %rax
	movss	%xmm0, (%rax)
	movl	$1, %eax
	popq	%rbp
	retq
.Lfunc_end4:
	.size	compare_lists, .Lfunc_end4-compare_lists
	.cfi_endproc
                                        # -- End function
	.section	.rodata.cst4,"aM",@progbits,4
	.p2align	2               # -- Begin function CompareRefPairAlignments
.LCPI5_0:
	.long	3212836864              # float -1
	.text
	.globl	CompareRefPairAlignments
	.p2align	4, 0x90
	.type	CompareRefPairAlignments,@function
CompareRefPairAlignments:               # @CompareRefPairAlignments
	.cfi_startproc
# %bb.0:
	pushq	%rbp
	.cfi_def_cfa_offset 16
	.cfi_offset %rbp, -16
	movq	%rsp, %rbp
	.cfi_def_cfa_register %rbp
	subq	$112, %rsp
	leaq	-64(%rbp), %r9
	leaq	-32(%rbp), %rax
	movq	%rdi, -40(%rbp)
	movq	%rsi, -24(%rbp)
	movq	%rdx, -16(%rbp)
	movq	%rcx, -96(%rbp)
	movq	%r8, -88(%rbp)
	movq	-40(%rbp), %rdi
	movq	-24(%rbp), %rsi
	movq	-16(%rbp), %rdx
	movq	-96(%rbp), %rcx
	movq	-88(%rbp), %r8
	movq	%rax, (%rsp)
	callq	make_ref_alilist
	cmpl	$0, %eax
	jne	.LBB5_2
# %bb.1:
	movss	.LCPI5_0(%rip), %xmm0   # xmm0 = mem[0],zero,zero,zero
	movss	%xmm0, -4(%rbp)
	jmp	.LBB5_11
.LBB5_2:
	leaq	-56(%rbp), %r9
	leaq	-28(%rbp), %rax
	movq	-40(%rbp), %rdi
	movq	-16(%rbp), %rsi
	movq	-24(%rbp), %rdx
	movq	-88(%rbp), %rcx
	movq	-96(%rbp), %r8
	movq	%rax, (%rsp)
	callq	make_ref_alilist
	cmpl	$0, %eax
	jne	.LBB5_4
# %bb.3:
	movss	.LCPI5_0(%rip), %xmm0   # xmm0 = mem[0],zero,zero,zero
	movss	%xmm0, -4(%rbp)
	jmp	.LBB5_11
.LBB5_4:
	leaq	-80(%rbp), %r9
	leaq	-32(%rbp), %rax
	movq	-40(%rbp), %rdi
	movq	-24(%rbp), %rsi
	movq	-16(%rbp), %rdx
	movq	-24(%rbp), %rcx
	movq	-16(%rbp), %r8
	movq	%rax, (%rsp)
	callq	make_ref_alilist
	cmpl	$0, %eax
	jne	.LBB5_6
# %bb.5:
	movss	.LCPI5_0(%rip), %xmm0   # xmm0 = mem[0],zero,zero,zero
	movss	%xmm0, -4(%rbp)
	jmp	.LBB5_11
.LBB5_6:
	leaq	-72(%rbp), %r9
	leaq	-28(%rbp), %rax
	movq	-40(%rbp), %rdi
	movq	-16(%rbp), %rsi
	movq	-24(%rbp), %rdx
	movq	-16(%rbp), %rcx
	movq	-24(%rbp), %r8
	movq	%rax, (%rsp)
	callq	make_ref_alilist
	cmpl	$0, %eax
	jne	.LBB5_8
# %bb.7:
	movss	.LCPI5_0(%rip), %xmm0   # xmm0 = mem[0],zero,zero,zero
	movss	%xmm0, -4(%rbp)
	jmp	.LBB5_11
.LBB5_8:
	leaq	-44(%rbp), %rax
	movq	-80(%rbp), %rdi
	movq	-72(%rbp), %rsi
	movq	-64(%rbp), %rdx
	movq	-56(%rbp), %rcx
	movl	-32(%rbp), %r8d
	movl	-28(%rbp), %r9d
	movq	%rax, (%rsp)
	callq	compare_lists
	cmpl	$0, %eax
	jne	.LBB5_10
# %bb.9:
	movss	.LCPI5_0(%rip), %xmm0   # xmm0 = mem[0],zero,zero,zero
	movss	%xmm0, -4(%rbp)
	jmp	.LBB5_11
.LBB5_10:
	movq	-80(%rbp), %rdi
	callq	free
	movq	-72(%rbp), %rdi
	callq	free
	movq	-64(%rbp), %rdi
	callq	free
	movq	-56(%rbp), %rdi
	callq	free
	movss	-44(%rbp), %xmm0        # xmm0 = mem[0],zero,zero,zero
	movss	%xmm0, -4(%rbp)
.LBB5_11:
	movss	-4(%rbp), %xmm0         # xmm0 = mem[0],zero,zero,zero
	addq	$112, %rsp
	popq	%rbp
	retq
.Lfunc_end5:
	.size	CompareRefPairAlignments, .Lfunc_end5-CompareRefPairAlignments
	.cfi_endproc
                                        # -- End function
	.p2align	4, 0x90         # -- Begin function make_ref_alilist
	.type	make_ref_alilist,@function
make_ref_alilist:                       # @make_ref_alilist
	.cfi_startproc
# %bb.0:
	pushq	%rbp
	.cfi_def_cfa_offset 16
	.cfi_offset %rbp, -16
	movq	%rsp, %rbp
	.cfi_def_cfa_register %rbp
	pushq	%rbx
	subq	$88, %rsp
	.cfi_offset %rbx, -24
	movq	16(%rbp), %rax
	movabsq	$.L.str.6, %rbx
	movq	%rdi, -80(%rbp)
	movq	%rsi, -48(%rbp)
	movq	%rdx, -88(%rbp)
	movq	%rcx, -24(%rbp)
	movq	%r8, -32(%rbp)
	movq	%r9, -72(%rbp)
	movq	-24(%rbp), %rdi
	callq	strlen
	shlq	$2, %rax
	movq	%rbx, %rdi
	movl	$236, %esi
	movq	%rax, %rdx
	callq	sre_malloc
	movabsq	$.L.str.6, %rbx
	movq	%rax, -64(%rbp)
	movq	-24(%rbp), %rdi
	callq	strlen
	shlq	$2, %rax
	movq	%rbx, %rdi
	movl	$237, %esi
	movq	%rax, %rdx
	callq	sre_malloc
	movq	%rax, -56(%rbp)
	movl	$0, -16(%rbp)
	movl	$0, -12(%rbp)
.LBB6_1:                                # =>This Inner Loop Header: Depth=1
	movq	-48(%rbp), %rax
	movslq	-12(%rbp), %rcx
	movsbl	(%rax,%rcx), %eax
	cmpl	$0, %eax
	je	.LBB6_10
# %bb.2:                                #   in Loop: Header=BB6_1 Depth=1
	movq	-48(%rbp), %rax
	movslq	-12(%rbp), %rcx
	movsbl	(%rax,%rcx), %eax
	cmpl	$32, %eax
	je	.LBB6_8
# %bb.3:                                #   in Loop: Header=BB6_1 Depth=1
	movq	-48(%rbp), %rax
	movslq	-12(%rbp), %rcx
	movsbl	(%rax,%rcx), %eax
	cmpl	$46, %eax
	je	.LBB6_8
# %bb.4:                                #   in Loop: Header=BB6_1 Depth=1
	movq	-48(%rbp), %rax
	movslq	-12(%rbp), %rcx
	movsbl	(%rax,%rcx), %eax
	cmpl	$95, %eax
	je	.LBB6_8
# %bb.5:                                #   in Loop: Header=BB6_1 Depth=1
	movq	-48(%rbp), %rax
	movslq	-12(%rbp), %rcx
	movsbl	(%rax,%rcx), %eax
	cmpl	$45, %eax
	je	.LBB6_8
# %bb.6:                                #   in Loop: Header=BB6_1 Depth=1
	movq	-48(%rbp), %rax
	movslq	-12(%rbp), %rcx
	movsbl	(%rax,%rcx), %eax
	cmpl	$126, %eax
	je	.LBB6_8
# %bb.7:                                #   in Loop: Header=BB6_1 Depth=1
	xorl	%eax, %eax
	movl	$1, %ecx
	movq	-80(%rbp), %rdx
	movslq	-12(%rbp), %rsi
	movl	(%rdx,%rsi,4), %edx
	cmpl	$0, %edx
	cmovnel	%ecx, %eax
	movq	-56(%rbp), %rcx
	movslq	-16(%rbp), %rdx
	movl	%eax, (%rcx,%rdx,4)
	movl	-16(%rbp), %eax
	addl	$1, %eax
	movl	%eax, -16(%rbp)
.LBB6_8:                                #   in Loop: Header=BB6_1 Depth=1
	jmp	.LBB6_9
.LBB6_9:                                #   in Loop: Header=BB6_1 Depth=1
	movl	-12(%rbp), %eax
	addl	$1, %eax
	movl	%eax, -12(%rbp)
	jmp	.LBB6_1
.LBB6_10:
	movl	$0, -36(%rbp)
	movl	$0, -40(%rbp)
	movl	$0, -16(%rbp)
	movl	$0, -12(%rbp)
.LBB6_11:                               # =>This Inner Loop Header: Depth=1
	movq	-24(%rbp), %rax
	movslq	-12(%rbp), %rcx
	movsbl	(%rax,%rcx), %eax
	cmpl	$0, %eax
	je	.LBB6_40
# %bb.12:                               #   in Loop: Header=BB6_11 Depth=1
	movq	-24(%rbp), %rax
	movslq	-12(%rbp), %rcx
	movsbl	(%rax,%rcx), %eax
	cmpl	$32, %eax
	je	.LBB6_26
# %bb.13:                               #   in Loop: Header=BB6_11 Depth=1
	movq	-24(%rbp), %rax
	movslq	-12(%rbp), %rcx
	movsbl	(%rax,%rcx), %eax
	cmpl	$46, %eax
	je	.LBB6_26
# %bb.14:                               #   in Loop: Header=BB6_11 Depth=1
	movq	-24(%rbp), %rax
	movslq	-12(%rbp), %rcx
	movsbl	(%rax,%rcx), %eax
	cmpl	$95, %eax
	je	.LBB6_26
# %bb.15:                               #   in Loop: Header=BB6_11 Depth=1
	movq	-24(%rbp), %rax
	movslq	-12(%rbp), %rcx
	movsbl	(%rax,%rcx), %eax
	cmpl	$45, %eax
	je	.LBB6_26
# %bb.16:                               #   in Loop: Header=BB6_11 Depth=1
	movq	-24(%rbp), %rax
	movslq	-12(%rbp), %rcx
	movsbl	(%rax,%rcx), %eax
	cmpl	$126, %eax
	je	.LBB6_26
# %bb.17:                               #   in Loop: Header=BB6_11 Depth=1
	movq	-56(%rbp), %rax
	movslq	-16(%rbp), %rcx
	cmpl	$0, (%rax,%rcx,4)
	je	.LBB6_26
# %bb.18:                               #   in Loop: Header=BB6_11 Depth=1
	movq	-32(%rbp), %rax
	movslq	-12(%rbp), %rcx
	movsbl	(%rax,%rcx), %eax
	cmpl	$32, %eax
	je	.LBB6_23
# %bb.19:                               #   in Loop: Header=BB6_11 Depth=1
	movq	-32(%rbp), %rax
	movslq	-12(%rbp), %rcx
	movsbl	(%rax,%rcx), %eax
	cmpl	$46, %eax
	je	.LBB6_23
# %bb.20:                               #   in Loop: Header=BB6_11 Depth=1
	movq	-32(%rbp), %rax
	movslq	-12(%rbp), %rcx
	movsbl	(%rax,%rcx), %eax
	cmpl	$95, %eax
	je	.LBB6_23
# %bb.21:                               #   in Loop: Header=BB6_11 Depth=1
	movq	-32(%rbp), %rax
	movslq	-12(%rbp), %rcx
	movsbl	(%rax,%rcx), %eax
	cmpl	$45, %eax
	je	.LBB6_23
# %bb.22:                               #   in Loop: Header=BB6_11 Depth=1
	movq	-32(%rbp), %rax
	movslq	-12(%rbp), %rcx
	movsbl	(%rax,%rcx), %eax
	cmpl	$126, %eax
	jne	.LBB6_24
.LBB6_23:                               #   in Loop: Header=BB6_11 Depth=1
	movl	$4294967295, %eax       # imm = 0xFFFFFFFF
	jmp	.LBB6_25
.LBB6_24:                               #   in Loop: Header=BB6_11 Depth=1
	movl	-40(%rbp), %eax
.LBB6_25:                               #   in Loop: Header=BB6_11 Depth=1
	movq	-64(%rbp), %rcx
	movslq	-36(%rbp), %rdx
	movl	%eax, (%rcx,%rdx,4)
	movl	-36(%rbp), %eax
	addl	$1, %eax
	movl	%eax, -36(%rbp)
.LBB6_26:                               #   in Loop: Header=BB6_11 Depth=1
	movq	-24(%rbp), %rax
	movslq	-12(%rbp), %rcx
	movsbl	(%rax,%rcx), %eax
	cmpl	$32, %eax
	je	.LBB6_32
# %bb.27:                               #   in Loop: Header=BB6_11 Depth=1
	movq	-24(%rbp), %rax
	movslq	-12(%rbp), %rcx
	movsbl	(%rax,%rcx), %eax
	cmpl	$46, %eax
	je	.LBB6_32
# %bb.28:                               #   in Loop: Header=BB6_11 Depth=1
	movq	-24(%rbp), %rax
	movslq	-12(%rbp), %rcx
	movsbl	(%rax,%rcx), %eax
	cmpl	$95, %eax
	je	.LBB6_32
# %bb.29:                               #   in Loop: Header=BB6_11 Depth=1
	movq	-24(%rbp), %rax
	movslq	-12(%rbp), %rcx
	movsbl	(%rax,%rcx), %eax
	cmpl	$45, %eax
	je	.LBB6_32
# %bb.30:                               #   in Loop: Header=BB6_11 Depth=1
	movq	-24(%rbp), %rax
	movslq	-12(%rbp), %rcx
	movsbl	(%rax,%rcx), %eax
	cmpl	$126, %eax
	je	.LBB6_32
# %bb.31:                               #   in Loop: Header=BB6_11 Depth=1
	movl	-16(%rbp), %eax
	addl	$1, %eax
	movl	%eax, -16(%rbp)
.LBB6_32:                               #   in Loop: Header=BB6_11 Depth=1
	movq	-32(%rbp), %rax
	movslq	-12(%rbp), %rcx
	movsbl	(%rax,%rcx), %eax
	cmpl	$32, %eax
	je	.LBB6_38
# %bb.33:                               #   in Loop: Header=BB6_11 Depth=1
	movq	-32(%rbp), %rax
	movslq	-12(%rbp), %rcx
	movsbl	(%rax,%rcx), %eax
	cmpl	$46, %eax
	je	.LBB6_38
# %bb.34:                               #   in Loop: Header=BB6_11 Depth=1
	movq	-32(%rbp), %rax
	movslq	-12(%rbp), %rcx
	movsbl	(%rax,%rcx), %eax
	cmpl	$95, %eax
	je	.LBB6_38
# %bb.35:                               #   in Loop: Header=BB6_11 Depth=1
	movq	-32(%rbp), %rax
	movslq	-12(%rbp), %rcx
	movsbl	(%rax,%rcx), %eax
	cmpl	$45, %eax
	je	.LBB6_38
# %bb.36:                               #   in Loop: Header=BB6_11 Depth=1
	movq	-32(%rbp), %rax
	movslq	-12(%rbp), %rcx
	movsbl	(%rax,%rcx), %eax
	cmpl	$126, %eax
	je	.LBB6_38
# %bb.37:                               #   in Loop: Header=BB6_11 Depth=1
	movl	-40(%rbp), %eax
	addl	$1, %eax
	movl	%eax, -40(%rbp)
.LBB6_38:                               #   in Loop: Header=BB6_11 Depth=1
	jmp	.LBB6_39
.LBB6_39:                               #   in Loop: Header=BB6_11 Depth=1
	movl	-12(%rbp), %eax
	addl	$1, %eax
	movl	%eax, -12(%rbp)
	jmp	.LBB6_11
.LBB6_40:
	movq	-56(%rbp), %rdi
	callq	free
	movl	-36(%rbp), %eax
	movq	16(%rbp), %rcx
	movl	%eax, (%rcx)
	movq	-64(%rbp), %rax
	movq	-72(%rbp), %rcx
	movq	%rax, (%rcx)
	movl	$1, %eax
	addq	$88, %rsp
	popq	%rbx
	popq	%rbp
	retq
.Lfunc_end6:
	.size	make_ref_alilist, .Lfunc_end6-make_ref_alilist
	.cfi_endproc
                                        # -- End function
	.section	.rodata.cst8,"aM",@progbits,8
	.p2align	3               # -- Begin function CompareMultAlignments
.LCPI7_0:
	.quad	4607182418800017408     # double 1
.LCPI7_1:
	.quad	4611686018427387904     # double 2
	.section	.rodata.cst4,"aM",@progbits,4
	.p2align	2
.LCPI7_2:
	.long	3212836864              # float -1
	.text
	.globl	CompareMultAlignments
	.p2align	4, 0x90
	.type	CompareMultAlignments,@function
CompareMultAlignments:                  # @CompareMultAlignments
	.cfi_startproc
# %bb.0:
	pushq	%rbp
	.cfi_def_cfa_offset 16
	.cfi_offset %rbp, -16
	movq	%rsp, %rbp
	.cfi_def_cfa_register %rbp
	subq	$48, %rsp
	xorps	%xmm0, %xmm0
	movq	%rdi, -40(%rbp)
	movq	%rsi, -32(%rbp)
	movl	%edx, -12(%rbp)
	movss	%xmm0, -16(%rbp)
	movl	$0, -4(%rbp)
.LBB7_1:                                # =>This Loop Header: Depth=1
                                        #     Child Loop BB7_3 Depth 2
	movl	-4(%rbp), %eax
	cmpl	-12(%rbp), %eax
	jge	.LBB7_10
# %bb.2:                                #   in Loop: Header=BB7_1 Depth=1
	movl	-4(%rbp), %eax
	addl	$1, %eax
	movl	%eax, -8(%rbp)
.LBB7_3:                                #   Parent Loop BB7_1 Depth=1
                                        # =>  This Inner Loop Header: Depth=2
	movl	-8(%rbp), %eax
	cmpl	-12(%rbp), %eax
	jge	.LBB7_8
# %bb.4:                                #   in Loop: Header=BB7_3 Depth=2
	movq	-40(%rbp), %rax
	movslq	-4(%rbp), %rcx
	movq	(%rax,%rcx,8), %rdi
	movq	-40(%rbp), %rax
	movslq	-8(%rbp), %rcx
	movq	(%rax,%rcx,8), %rsi
	movq	-32(%rbp), %rax
	movslq	-4(%rbp), %rcx
	movq	(%rax,%rcx,8), %rdx
	movq	-32(%rbp), %rax
	movslq	-8(%rbp), %rcx
	movq	(%rax,%rcx,8), %rcx
	callq	ComparePairAlignments
	xorps	%xmm1, %xmm1
	movss	%xmm0, -20(%rbp)
	movss	-20(%rbp), %xmm0        # xmm0 = mem[0],zero,zero,zero
	cvtss2sd	%xmm0, %xmm0
	ucomisd	%xmm0, %xmm1
	jbe	.LBB7_6
# %bb.5:
	movss	.LCPI7_2(%rip), %xmm0   # xmm0 = mem[0],zero,zero,zero
	movss	%xmm0, -24(%rbp)
	jmp	.LBB7_11
.LBB7_6:                                #   in Loop: Header=BB7_3 Depth=2
	movss	-20(%rbp), %xmm0        # xmm0 = mem[0],zero,zero,zero
	addss	-16(%rbp), %xmm0
	movss	%xmm0, -16(%rbp)
# %bb.7:                                #   in Loop: Header=BB7_3 Depth=2
	movl	-8(%rbp), %eax
	addl	$1, %eax
	movl	%eax, -8(%rbp)
	jmp	.LBB7_3
.LBB7_8:                                #   in Loop: Header=BB7_1 Depth=1
	jmp	.LBB7_9
.LBB7_9:                                #   in Loop: Header=BB7_1 Depth=1
	movl	-4(%rbp), %eax
	addl	$1, %eax
	movl	%eax, -4(%rbp)
	jmp	.LBB7_1
.LBB7_10:
	movsd	.LCPI7_0(%rip), %xmm0   # xmm0 = mem[0],zero
	movsd	.LCPI7_1(%rip), %xmm1   # xmm1 = mem[0],zero
	movss	-16(%rbp), %xmm2        # xmm2 = mem[0],zero,zero,zero
	cvtss2sd	%xmm2, %xmm2
	mulsd	%xmm1, %xmm2
	movl	-12(%rbp), %eax
	cvtsi2ssl	%eax, %xmm1
	cvtss2sd	%xmm1, %xmm1
	movl	-12(%rbp), %eax
	cvtsi2ssl	%eax, %xmm3
	cvtss2sd	%xmm3, %xmm3
	subsd	%xmm0, %xmm3
	mulsd	%xmm3, %xmm1
	divsd	%xmm1, %xmm2
	cvtsd2ss	%xmm2, %xmm0
	movss	%xmm0, -24(%rbp)
.LBB7_11:
	movss	-24(%rbp), %xmm0        # xmm0 = mem[0],zero,zero,zero
	addq	$48, %rsp
	popq	%rbp
	retq
.Lfunc_end7:
	.size	CompareMultAlignments, .Lfunc_end7-CompareMultAlignments
	.cfi_endproc
                                        # -- End function
	.section	.rodata.cst8,"aM",@progbits,8
	.p2align	3               # -- Begin function CompareRefMultAlignments
.LCPI8_0:
	.quad	4607182418800017408     # double 1
.LCPI8_1:
	.quad	4611686018427387904     # double 2
	.section	.rodata.cst4,"aM",@progbits,4
	.p2align	2
.LCPI8_2:
	.long	3212836864              # float -1
	.text
	.globl	CompareRefMultAlignments
	.p2align	4, 0x90
	.type	CompareRefMultAlignments,@function
CompareRefMultAlignments:               # @CompareRefMultAlignments
	.cfi_startproc
# %bb.0:
	pushq	%rbp
	.cfi_def_cfa_offset 16
	.cfi_offset %rbp, -16
	movq	%rsp, %rbp
	.cfi_def_cfa_register %rbp
	subq	$48, %rsp
	xorps	%xmm0, %xmm0
	movq	%rdi, -48(%rbp)
	movq	%rsi, -40(%rbp)
	movq	%rdx, -32(%rbp)
	movl	%ecx, -12(%rbp)
	movss	%xmm0, -16(%rbp)
	movl	$0, -4(%rbp)
.LBB8_1:                                # =>This Loop Header: Depth=1
                                        #     Child Loop BB8_3 Depth 2
	movl	-4(%rbp), %eax
	cmpl	-12(%rbp), %eax
	jge	.LBB8_10
# %bb.2:                                #   in Loop: Header=BB8_1 Depth=1
	movl	-4(%rbp), %eax
	addl	$1, %eax
	movl	%eax, -8(%rbp)
.LBB8_3:                                #   Parent Loop BB8_1 Depth=1
                                        # =>  This Inner Loop Header: Depth=2
	movl	-8(%rbp), %eax
	cmpl	-12(%rbp), %eax
	jge	.LBB8_8
# %bb.4:                                #   in Loop: Header=BB8_3 Depth=2
	movq	-48(%rbp), %rdi
	movq	-40(%rbp), %rax
	movslq	-4(%rbp), %rcx
	movq	(%rax,%rcx,8), %rsi
	movq	-40(%rbp), %rax
	movslq	-8(%rbp), %rcx
	movq	(%rax,%rcx,8), %rdx
	movq	-32(%rbp), %rax
	movslq	-4(%rbp), %rcx
	movq	(%rax,%rcx,8), %rcx
	movq	-32(%rbp), %r8
	movslq	-8(%rbp), %rax
	movq	(%r8,%rax,8), %r8
	callq	CompareRefPairAlignments
	xorps	%xmm1, %xmm1
	movss	%xmm0, -20(%rbp)
	movss	-20(%rbp), %xmm0        # xmm0 = mem[0],zero,zero,zero
	cvtss2sd	%xmm0, %xmm0
	ucomisd	%xmm0, %xmm1
	jbe	.LBB8_6
# %bb.5:
	movss	.LCPI8_2(%rip), %xmm0   # xmm0 = mem[0],zero,zero,zero
	movss	%xmm0, -24(%rbp)
	jmp	.LBB8_11
.LBB8_6:                                #   in Loop: Header=BB8_3 Depth=2
	movss	-20(%rbp), %xmm0        # xmm0 = mem[0],zero,zero,zero
	addss	-16(%rbp), %xmm0
	movss	%xmm0, -16(%rbp)
# %bb.7:                                #   in Loop: Header=BB8_3 Depth=2
	movl	-8(%rbp), %eax
	addl	$1, %eax
	movl	%eax, -8(%rbp)
	jmp	.LBB8_3
.LBB8_8:                                #   in Loop: Header=BB8_1 Depth=1
	jmp	.LBB8_9
.LBB8_9:                                #   in Loop: Header=BB8_1 Depth=1
	movl	-4(%rbp), %eax
	addl	$1, %eax
	movl	%eax, -4(%rbp)
	jmp	.LBB8_1
.LBB8_10:
	movsd	.LCPI8_0(%rip), %xmm0   # xmm0 = mem[0],zero
	movsd	.LCPI8_1(%rip), %xmm1   # xmm1 = mem[0],zero
	movss	-16(%rbp), %xmm2        # xmm2 = mem[0],zero,zero,zero
	cvtss2sd	%xmm2, %xmm2
	mulsd	%xmm1, %xmm2
	movl	-12(%rbp), %eax
	cvtsi2ssl	%eax, %xmm1
	cvtss2sd	%xmm1, %xmm1
	movl	-12(%rbp), %eax
	cvtsi2ssl	%eax, %xmm3
	cvtss2sd	%xmm3, %xmm3
	subsd	%xmm0, %xmm3
	mulsd	%xmm3, %xmm1
	divsd	%xmm1, %xmm2
	cvtsd2ss	%xmm2, %xmm0
	movss	%xmm0, -24(%rbp)
.LBB8_11:
	movss	-24(%rbp), %xmm0        # xmm0 = mem[0],zero,zero,zero
	addq	$48, %rsp
	popq	%rbp
	retq
.Lfunc_end8:
	.size	CompareRefMultAlignments, .Lfunc_end8-CompareRefMultAlignments
	.cfi_endproc
                                        # -- End function
	.globl	PairwiseIdentity        # -- Begin function PairwiseIdentity
	.p2align	4, 0x90
	.type	PairwiseIdentity,@function
PairwiseIdentity:                       # @PairwiseIdentity
	.cfi_startproc
# %bb.0:
	pushq	%rbp
	.cfi_def_cfa_offset 16
	.cfi_offset %rbp, -16
	movq	%rsp, %rbp
	.cfi_def_cfa_register %rbp
	movq	%rdi, -32(%rbp)
	movq	%rsi, -24(%rbp)
	movl	$0, -12(%rbp)
	movl	$0, -8(%rbp)
	movl	$0, -36(%rbp)
	movl	$0, -4(%rbp)
.LBB9_1:                                # =>This Inner Loop Header: Depth=1
	xorl	%eax, %eax
	movq	-32(%rbp), %rcx
	movslq	-4(%rbp), %rdx
	movsbl	(%rcx,%rdx), %ecx
	cmpl	$0, %ecx
	je	.LBB9_3
# %bb.2:                                #   in Loop: Header=BB9_1 Depth=1
	movq	-24(%rbp), %rax
	movslq	-4(%rbp), %rcx
	movsbl	(%rax,%rcx), %eax
	cmpl	$0, %eax
	setne	%al
.LBB9_3:                                #   in Loop: Header=BB9_1 Depth=1
	testb	$1, %al
	jne	.LBB9_4
	jmp	.LBB9_20
.LBB9_4:                                #   in Loop: Header=BB9_1 Depth=1
	movq	-32(%rbp), %rax
	movslq	-4(%rbp), %rcx
	movsbl	(%rax,%rcx), %eax
	cmpl	$32, %eax
	je	.LBB9_12
# %bb.5:                                #   in Loop: Header=BB9_1 Depth=1
	movq	-32(%rbp), %rax
	movslq	-4(%rbp), %rcx
	movsbl	(%rax,%rcx), %eax
	cmpl	$46, %eax
	je	.LBB9_12
# %bb.6:                                #   in Loop: Header=BB9_1 Depth=1
	movq	-32(%rbp), %rax
	movslq	-4(%rbp), %rcx
	movsbl	(%rax,%rcx), %eax
	cmpl	$95, %eax
	je	.LBB9_12
# %bb.7:                                #   in Loop: Header=BB9_1 Depth=1
	movq	-32(%rbp), %rax
	movslq	-4(%rbp), %rcx
	movsbl	(%rax,%rcx), %eax
	cmpl	$45, %eax
	je	.LBB9_12
# %bb.8:                                #   in Loop: Header=BB9_1 Depth=1
	movq	-32(%rbp), %rax
	movslq	-4(%rbp), %rcx
	movsbl	(%rax,%rcx), %eax
	cmpl	$126, %eax
	je	.LBB9_12
# %bb.9:                                #   in Loop: Header=BB9_1 Depth=1
	movl	-8(%rbp), %eax
	addl	$1, %eax
	movl	%eax, -8(%rbp)
	movq	-32(%rbp), %rax
	movslq	-4(%rbp), %rcx
	movsbl	(%rax,%rcx), %eax
	movq	-24(%rbp), %rcx
	movslq	-4(%rbp), %rdx
	movsbl	(%rcx,%rdx), %ecx
	cmpl	%ecx, %eax
	jne	.LBB9_11
# %bb.10:                               #   in Loop: Header=BB9_1 Depth=1
	movl	-36(%rbp), %eax
	addl	$1, %eax
	movl	%eax, -36(%rbp)
.LBB9_11:                               #   in Loop: Header=BB9_1 Depth=1
	jmp	.LBB9_12
.LBB9_12:                               #   in Loop: Header=BB9_1 Depth=1
	movq	-24(%rbp), %rax
	movslq	-4(%rbp), %rcx
	movsbl	(%rax,%rcx), %eax
	cmpl	$32, %eax
	je	.LBB9_18
# %bb.13:                               #   in Loop: Header=BB9_1 Depth=1
	movq	-24(%rbp), %rax
	movslq	-4(%rbp), %rcx
	movsbl	(%rax,%rcx), %eax
	cmpl	$46, %eax
	je	.LBB9_18
# %bb.14:                               #   in Loop: Header=BB9_1 Depth=1
	movq	-24(%rbp), %rax
	movslq	-4(%rbp), %rcx
	movsbl	(%rax,%rcx), %eax
	cmpl	$95, %eax
	je	.LBB9_18
# %bb.15:                               #   in Loop: Header=BB9_1 Depth=1
	movq	-24(%rbp), %rax
	movslq	-4(%rbp), %rcx
	movsbl	(%rax,%rcx), %eax
	cmpl	$45, %eax
	je	.LBB9_18
# %bb.16:                               #   in Loop: Header=BB9_1 Depth=1
	movq	-24(%rbp), %rax
	movslq	-4(%rbp), %rcx
	movsbl	(%rax,%rcx), %eax
	cmpl	$126, %eax
	je	.LBB9_18
# %bb.17:                               #   in Loop: Header=BB9_1 Depth=1
	movl	-12(%rbp), %eax
	addl	$1, %eax
	movl	%eax, -12(%rbp)
.LBB9_18:                               #   in Loop: Header=BB9_1 Depth=1
	jmp	.LBB9_19
.LBB9_19:                               #   in Loop: Header=BB9_1 Depth=1
	movl	-4(%rbp), %eax
	addl	$1, %eax
	movl	%eax, -4(%rbp)
	jmp	.LBB9_1
.LBB9_20:
	movl	-12(%rbp), %eax
	cmpl	-8(%rbp), %eax
	jge	.LBB9_22
# %bb.21:
	movl	-12(%rbp), %eax
	movl	%eax, -8(%rbp)
.LBB9_22:
	cmpl	$0, -8(%rbp)
	jne	.LBB9_24
# %bb.23:
	xorps	%xmm0, %xmm0
	jmp	.LBB9_25
.LBB9_24:
	movl	-36(%rbp), %eax
	cvtsi2ssl	%eax, %xmm0
	movl	-8(%rbp), %eax
	cvtsi2ssl	%eax, %xmm1
	divss	%xmm1, %xmm0
	cvtss2sd	%xmm0, %xmm0
.LBB9_25:
	cvtsd2ss	%xmm0, %xmm0
	popq	%rbp
	retq
.Lfunc_end9:
	.size	PairwiseIdentity, .Lfunc_end9-PairwiseIdentity
	.cfi_endproc
                                        # -- End function
	.section	.rodata.cst4,"aM",@progbits,4
	.p2align	2               # -- Begin function AlignmentIdentityBySampling
.LCPI10_0:
	.long	1065353216              # float 1
	.text
	.globl	AlignmentIdentityBySampling
	.p2align	4, 0x90
	.type	AlignmentIdentityBySampling,@function
AlignmentIdentityBySampling:            # @AlignmentIdentityBySampling
	.cfi_startproc
# %bb.0:
	pushq	%rbp
	.cfi_def_cfa_offset 16
	.cfi_offset %rbp, -16
	movq	%rsp, %rbp
	.cfi_def_cfa_register %rbp
	subq	$48, %rsp
	movq	%rdi, -40(%rbp)
	movl	%esi, -44(%rbp)
	movl	%edx, -12(%rbp)
	movl	%ecx, -24(%rbp)
	cmpl	$2, -12(%rbp)
	jge	.LBB10_2
# %bb.1:
	movss	.LCPI10_0(%rip), %xmm0  # xmm0 = mem[0],zero,zero,zero
	movss	%xmm0, -28(%rbp)
	jmp	.LBB10_10
.LBB10_2:
	xorps	%xmm0, %xmm0
	movss	%xmm0, -4(%rbp)
	movl	$0, -8(%rbp)
.LBB10_3:                               # =>This Loop Header: Depth=1
                                        #     Child Loop BB10_5 Depth 2
	movl	-8(%rbp), %eax
	cmpl	-24(%rbp), %eax
	jge	.LBB10_9
# %bb.4:                                #   in Loop: Header=BB10_3 Depth=1
	callq	sre_random
	movl	-12(%rbp), %eax
	cvtsi2sdl	%eax, %xmm1
	mulsd	%xmm1, %xmm0
	cvttsd2si	%xmm0, %eax
	movl	%eax, -20(%rbp)
.LBB10_5:                               #   Parent Loop BB10_3 Depth=1
                                        # =>  This Inner Loop Header: Depth=2
	callq	sre_random
	movl	-12(%rbp), %eax
	cvtsi2sdl	%eax, %xmm1
	mulsd	%xmm1, %xmm0
	cvttsd2si	%xmm0, %eax
	movl	%eax, -16(%rbp)
# %bb.6:                                #   in Loop: Header=BB10_5 Depth=2
	movl	-16(%rbp), %eax
	cmpl	-20(%rbp), %eax
	je	.LBB10_5
# %bb.7:                                #   in Loop: Header=BB10_3 Depth=1
	movq	-40(%rbp), %rax
	movslq	-20(%rbp), %rcx
	movq	(%rax,%rcx,8), %rdi
	movq	-40(%rbp), %rax
	movslq	-16(%rbp), %rcx
	movq	(%rax,%rcx,8), %rsi
	callq	PairwiseIdentity
	addss	-4(%rbp), %xmm0
	movss	%xmm0, -4(%rbp)
# %bb.8:                                #   in Loop: Header=BB10_3 Depth=1
	movl	-8(%rbp), %eax
	addl	$1, %eax
	movl	%eax, -8(%rbp)
	jmp	.LBB10_3
.LBB10_9:
	movss	-4(%rbp), %xmm0         # xmm0 = mem[0],zero,zero,zero
	movl	-24(%rbp), %eax
	cvtsi2ssl	%eax, %xmm1
	divss	%xmm1, %xmm0
	movss	%xmm0, -28(%rbp)
.LBB10_10:
	movss	-28(%rbp), %xmm0        # xmm0 = mem[0],zero,zero,zero
	addq	$48, %rsp
	popq	%rbp
	retq
.Lfunc_end10:
	.size	AlignmentIdentityBySampling, .Lfunc_end10-AlignmentIdentityBySampling
	.cfi_endproc
                                        # -- End function
	.section	.rodata.cst8,"aM",@progbits,8
	.p2align	3               # -- Begin function MajorityRuleConsensus
.LCPI11_0:
	.quad	4602678819172646912     # double 0.5
	.text
	.globl	MajorityRuleConsensus
	.p2align	4, 0x90
	.type	MajorityRuleConsensus,@function
MajorityRuleConsensus:                  # @MajorityRuleConsensus
	.cfi_startproc
# %bb.0:
	pushq	%rbp
	.cfi_def_cfa_offset 16
	.cfi_offset %rbp, -16
	movq	%rsp, %rbp
	.cfi_def_cfa_register %rbp
	subq	$176, %rsp
	movabsq	$.L.str.6, %rax
	movq	%rdi, -56(%rbp)
	movl	%esi, -32(%rbp)
	movl	%edx, -28(%rbp)
	movl	-28(%rbp), %ecx
	addl	$1, %ecx
	movslq	%ecx, %rdx
	shlq	$0, %rdx
	movq	%rax, %rdi
	movl	$485, %esi              # imm = 0x1E5
	callq	sre_malloc
	movq	%rax, -40(%rbp)
	movl	$0, -16(%rbp)
	movl	$0, -8(%rbp)
.LBB11_1:                               # =>This Loop Header: Depth=1
                                        #     Child Loop BB11_3 Depth 2
                                        #     Child Loop BB11_7 Depth 2
                                        #     Child Loop BB11_15 Depth 2
	movl	-8(%rbp), %eax
	cmpl	-28(%rbp), %eax
	jge	.LBB11_23
# %bb.2:                                #   in Loop: Header=BB11_1 Depth=1
	movl	$0, -4(%rbp)
.LBB11_3:                               #   Parent Loop BB11_1 Depth=1
                                        # =>  This Inner Loop Header: Depth=2
	cmpl	$27, -4(%rbp)
	jge	.LBB11_6
# %bb.4:                                #   in Loop: Header=BB11_3 Depth=2
	movslq	-4(%rbp), %rax
	movl	$0, -176(%rbp,%rax,4)
# %bb.5:                                #   in Loop: Header=BB11_3 Depth=2
	movl	-4(%rbp), %eax
	addl	$1, %eax
	movl	%eax, -4(%rbp)
	jmp	.LBB11_3
.LBB11_6:                               #   in Loop: Header=BB11_1 Depth=1
	movl	$0, -12(%rbp)
.LBB11_7:                               #   Parent Loop BB11_1 Depth=1
                                        # =>  This Inner Loop Header: Depth=2
	movl	-12(%rbp), %eax
	cmpl	-32(%rbp), %eax
	jge	.LBB11_13
# %bb.8:                                #   in Loop: Header=BB11_7 Depth=2
	callq	__ctype_b_loc
	movq	(%rax), %rax
	movq	-56(%rbp), %rcx
	movslq	-12(%rbp), %rdx
	movq	(%rcx,%rdx,8), %rcx
	movslq	-8(%rbp), %rdx
	movsbl	(%rcx,%rdx), %ecx
	movslq	%ecx, %rcx
	movzwl	(%rax,%rcx,2), %eax
	andl	$1024, %eax             # imm = 0x400
	cmpl	$0, %eax
	je	.LBB11_10
# %bb.9:                                #   in Loop: Header=BB11_7 Depth=2
	movq	-56(%rbp), %rax
	movslq	-12(%rbp), %rcx
	movq	(%rax,%rcx,8), %rax
	movslq	-8(%rbp), %rcx
	movsbl	(%rax,%rcx), %edi
	callq	toupper
	movl	%eax, -44(%rbp)
	movl	-44(%rbp), %eax
	subl	$65, %eax
	cltq
	movl	-176(%rbp,%rax,4), %ecx
	addl	$1, %ecx
	movl	%ecx, -176(%rbp,%rax,4)
	jmp	.LBB11_11
.LBB11_10:                              #   in Loop: Header=BB11_7 Depth=2
	movl	-72(%rbp), %eax
	addl	$1, %eax
	movl	%eax, -72(%rbp)
.LBB11_11:                              #   in Loop: Header=BB11_7 Depth=2
	jmp	.LBB11_12
.LBB11_12:                              #   in Loop: Header=BB11_7 Depth=2
	movl	-12(%rbp), %eax
	addl	$1, %eax
	movl	%eax, -12(%rbp)
	jmp	.LBB11_7
.LBB11_13:                              #   in Loop: Header=BB11_1 Depth=1
	movsd	.LCPI11_0(%rip), %xmm0  # xmm0 = mem[0],zero
	movl	-72(%rbp), %eax
	cvtsi2ssl	%eax, %xmm1
	movl	-32(%rbp), %eax
	cvtsi2ssl	%eax, %xmm2
	divss	%xmm2, %xmm1
	cvtss2sd	%xmm1, %xmm1
	ucomisd	%xmm1, %xmm0
	jb	.LBB11_21
# %bb.14:                               #   in Loop: Header=BB11_1 Depth=1
	movl	$-1, -20(%rbp)
	movl	$-1, -24(%rbp)
	movl	$0, -4(%rbp)
.LBB11_15:                              #   Parent Loop BB11_1 Depth=1
                                        # =>  This Inner Loop Header: Depth=2
	cmpl	$26, -4(%rbp)
	jge	.LBB11_20
# %bb.16:                               #   in Loop: Header=BB11_15 Depth=2
	movslq	-4(%rbp), %rax
	movl	-176(%rbp,%rax,4), %eax
	cmpl	-24(%rbp), %eax
	jle	.LBB11_18
# %bb.17:                               #   in Loop: Header=BB11_15 Depth=2
	movslq	-4(%rbp), %rax
	movl	-176(%rbp,%rax,4), %eax
	movl	%eax, -24(%rbp)
	movl	-4(%rbp), %eax
	movl	%eax, -20(%rbp)
.LBB11_18:                              #   in Loop: Header=BB11_15 Depth=2
	jmp	.LBB11_19
.LBB11_19:                              #   in Loop: Header=BB11_15 Depth=2
	movl	-4(%rbp), %eax
	addl	$1, %eax
	movl	%eax, -4(%rbp)
	jmp	.LBB11_15
.LBB11_20:                              #   in Loop: Header=BB11_1 Depth=1
	movl	-20(%rbp), %eax
	addl	$65, %eax
	movq	-40(%rbp), %rcx
	movl	-16(%rbp), %edx
	movl	%edx, %esi
	addl	$1, %esi
	movl	%esi, -16(%rbp)
	movslq	%edx, %rdx
	movb	%al, (%rcx,%rdx)
.LBB11_21:                              #   in Loop: Header=BB11_1 Depth=1
	jmp	.LBB11_22
.LBB11_22:                              #   in Loop: Header=BB11_1 Depth=1
	movl	-8(%rbp), %eax
	addl	$1, %eax
	movl	%eax, -8(%rbp)
	jmp	.LBB11_1
.LBB11_23:
	movq	-40(%rbp), %rax
	movslq	-16(%rbp), %rcx
	movb	$0, (%rax,%rcx)
	movq	-40(%rbp), %rax
	addq	$176, %rsp
	popq	%rbp
	retq
.Lfunc_end11:
	.size	MajorityRuleConsensus, .Lfunc_end11-MajorityRuleConsensus
	.cfi_endproc
                                        # -- End function
	.section	.rodata.cst4,"aM",@progbits,4
	.p2align	2               # -- Begin function AllocAlignment
.LCPI12_0:
	.long	1065353216              # float 1
	.text
	.globl	AllocAlignment
	.p2align	4, 0x90
	.type	AllocAlignment,@function
AllocAlignment:                         # @AllocAlignment
	.cfi_startproc
# %bb.0:
	pushq	%rbp
	.cfi_def_cfa_offset 16
	.cfi_offset %rbp, -16
	movq	%rsp, %rbp
	.cfi_def_cfa_register %rbp
	subq	$48, %rsp
	movl	%edi, -8(%rbp)
	movl	%esi, -20(%rbp)
	movq	%rdx, -40(%rbp)
	movq	%rcx, -16(%rbp)
	movq	-16(%rbp), %rdi
	callq	InitAinfo
	movabsq	$.L.str.7, %rdi
	movslq	-8(%rbp), %rdx
	shlq	$3, %rdx
	movl	$50, %esi
	callq	sre_malloc
	movq	%rax, -32(%rbp)
	movl	$0, -4(%rbp)
.LBB12_1:                               # =>This Inner Loop Header: Depth=1
	movl	-4(%rbp), %eax
	cmpl	-8(%rbp), %eax
	jge	.LBB12_4
# %bb.2:                                #   in Loop: Header=BB12_1 Depth=1
	movabsq	$.L.str.7, %rdi
	movl	-20(%rbp), %eax
	addl	$1, %eax
	movslq	%eax, %rdx
	shlq	$0, %rdx
	movl	$52, %esi
	callq	sre_malloc
	movq	-32(%rbp), %rcx
	movslq	-4(%rbp), %rdx
	movq	%rax, (%rcx,%rdx,8)
# %bb.3:                                #   in Loop: Header=BB12_1 Depth=1
	movl	-4(%rbp), %eax
	addl	$1, %eax
	movl	%eax, -4(%rbp)
	jmp	.LBB12_1
.LBB12_4:
	movabsq	$.L.str.7, %rdi
	movl	-20(%rbp), %eax
	movq	-16(%rbp), %rcx
	movl	%eax, 4(%rcx)
	movl	-8(%rbp), %eax
	movq	-16(%rbp), %rcx
	movl	%eax, 8(%rcx)
	movslq	-8(%rbp), %rdx
	shlq	$2, %rdx
	movl	$57, %esi
	callq	sre_malloc
	movss	.LCPI12_0(%rip), %xmm0  # xmm0 = mem[0],zero,zero,zero
	movq	-16(%rbp), %rcx
	movq	%rax, 16(%rcx)
	movq	-16(%rbp), %rax
	movq	16(%rax), %rdi
	movl	-8(%rbp), %esi
	callq	FSet
	movabsq	$.L.str.7, %rdi
	movslq	-8(%rbp), %rax
	imulq	$360, %rax, %rdx        # imm = 0x168
	movl	$60, %esi
	callq	sre_malloc
	movq	-16(%rbp), %rcx
	movq	%rax, 40(%rcx)
	movl	$0, -4(%rbp)
.LBB12_5:                               # =>This Inner Loop Header: Depth=1
	movl	-4(%rbp), %eax
	cmpl	-8(%rbp), %eax
	jge	.LBB12_8
# %bb.6:                                #   in Loop: Header=BB12_5 Depth=1
	movq	-16(%rbp), %rax
	movq	40(%rax), %rax
	movslq	-4(%rbp), %rcx
	imulq	$360, %rcx, %rcx        # imm = 0x168
	addq	%rcx, %rax
	movl	$0, (%rax)
# %bb.7:                                #   in Loop: Header=BB12_5 Depth=1
	movl	-4(%rbp), %eax
	addl	$1, %eax
	movl	%eax, -4(%rbp)
	jmp	.LBB12_5
.LBB12_8:
	movq	-32(%rbp), %rax
	movq	-40(%rbp), %rcx
	movq	%rax, (%rcx)
	addq	$48, %rsp
	popq	%rbp
	retq
.Lfunc_end12:
	.size	AllocAlignment, .Lfunc_end12-AllocAlignment
	.cfi_endproc
                                        # -- End function
	.globl	InitAinfo               # -- Begin function InitAinfo
	.p2align	4, 0x90
	.type	InitAinfo,@function
InitAinfo:                              # @InitAinfo
	.cfi_startproc
# %bb.0:
	pushq	%rbp
	.cfi_def_cfa_offset 16
	.cfi_offset %rbp, -16
	movq	%rsp, %rbp
	.cfi_def_cfa_register %rbp
	xorps	%xmm0, %xmm0
	movq	%rdi, -8(%rbp)
	movq	-8(%rbp), %rax
	movq	$0, 48(%rax)
	movq	-8(%rbp), %rax
	movq	$0, 56(%rax)
	movq	-8(%rbp), %rax
	movq	$0, 24(%rax)
	movq	-8(%rbp), %rax
	movq	$0, 32(%rax)
	movq	-8(%rbp), %rax
	movq	$0, 64(%rax)
	movq	-8(%rbp), %rax
	movq	$0, 72(%rax)
	movq	-8(%rbp), %rax
	movl	$0, (%rax)
	movq	-8(%rbp), %rax
	movss	%xmm0, 84(%rax)
	movq	-8(%rbp), %rax
	movss	%xmm0, 80(%rax)
	movq	-8(%rbp), %rax
	movss	%xmm0, 92(%rax)
	movq	-8(%rbp), %rax
	movss	%xmm0, 88(%rax)
	movq	-8(%rbp), %rax
	movss	%xmm0, 100(%rax)
	movq	-8(%rbp), %rax
	movss	%xmm0, 96(%rax)
	popq	%rbp
	retq
.Lfunc_end13:
	.size	InitAinfo, .Lfunc_end13-InitAinfo
	.cfi_endproc
                                        # -- End function
	.globl	FreeAlignment           # -- Begin function FreeAlignment
	.p2align	4, 0x90
	.type	FreeAlignment,@function
FreeAlignment:                          # @FreeAlignment
	.cfi_startproc
# %bb.0:
	pushq	%rbp
	.cfi_def_cfa_offset 16
	.cfi_offset %rbp, -16
	movq	%rsp, %rbp
	.cfi_def_cfa_register %rbp
	subq	$32, %rsp
	movq	%rdi, -24(%rbp)
	movq	%rsi, -8(%rbp)
	movl	$0, -12(%rbp)
.LBB14_1:                               # =>This Inner Loop Header: Depth=1
	movl	-12(%rbp), %eax
	movq	-8(%rbp), %rcx
	cmpl	8(%rcx), %eax
	jge	.LBB14_8
# %bb.2:                                #   in Loop: Header=BB14_1 Depth=1
	movq	-8(%rbp), %rax
	movq	40(%rax), %rax
	movslq	-12(%rbp), %rcx
	imulq	$360, %rcx, %rcx        # imm = 0x168
	addq	%rcx, %rax
	movl	(%rax), %eax
	andl	$512, %eax              # imm = 0x200
	cmpl	$0, %eax
	je	.LBB14_4
# %bb.3:                                #   in Loop: Header=BB14_1 Depth=1
	movq	-8(%rbp), %rax
	movq	40(%rax), %rax
	movslq	-12(%rbp), %rcx
	imulq	$360, %rcx, %rcx        # imm = 0x168
	addq	%rcx, %rax
	movq	344(%rax), %rdi
	callq	free
.LBB14_4:                               #   in Loop: Header=BB14_1 Depth=1
	movq	-8(%rbp), %rax
	movq	40(%rax), %rax
	movslq	-12(%rbp), %rcx
	imulq	$360, %rcx, %rcx        # imm = 0x168
	addq	%rcx, %rax
	movl	(%rax), %eax
	andl	$1024, %eax             # imm = 0x400
	cmpl	$0, %eax
	je	.LBB14_6
# %bb.5:                                #   in Loop: Header=BB14_1 Depth=1
	movq	-8(%rbp), %rax
	movq	40(%rax), %rax
	movslq	-12(%rbp), %rcx
	imulq	$360, %rcx, %rcx        # imm = 0x168
	addq	%rcx, %rax
	movq	352(%rax), %rdi
	callq	free
.LBB14_6:                               #   in Loop: Header=BB14_1 Depth=1
	jmp	.LBB14_7
.LBB14_7:                               #   in Loop: Header=BB14_1 Depth=1
	movl	-12(%rbp), %eax
	addl	$1, %eax
	movl	%eax, -12(%rbp)
	jmp	.LBB14_1
.LBB14_8:
	movq	-8(%rbp), %rax
	cmpq	$0, 24(%rax)
	je	.LBB14_10
# %bb.9:
	movq	-8(%rbp), %rax
	movq	24(%rax), %rdi
	callq	free
.LBB14_10:
	movq	-8(%rbp), %rax
	cmpq	$0, 32(%rax)
	je	.LBB14_12
# %bb.11:
	movq	-8(%rbp), %rax
	movq	32(%rax), %rdi
	callq	free
.LBB14_12:
	movq	-8(%rbp), %rax
	cmpq	$0, 48(%rax)
	je	.LBB14_14
# %bb.13:
	movq	-8(%rbp), %rax
	movq	48(%rax), %rdi
	callq	free
.LBB14_14:
	movq	-8(%rbp), %rax
	cmpq	$0, 56(%rax)
	je	.LBB14_16
# %bb.15:
	movq	-8(%rbp), %rax
	movq	56(%rax), %rdi
	callq	free
.LBB14_16:
	movq	-8(%rbp), %rax
	cmpq	$0, 64(%rax)
	je	.LBB14_18
# %bb.17:
	movq	-8(%rbp), %rax
	movq	64(%rax), %rdi
	callq	free
.LBB14_18:
	movq	-8(%rbp), %rax
	cmpq	$0, 72(%rax)
	je	.LBB14_20
# %bb.19:
	movq	-8(%rbp), %rax
	movq	72(%rax), %rdi
	callq	free
.LBB14_20:
	movq	-8(%rbp), %rax
	movq	40(%rax), %rdi
	callq	free
	movq	-8(%rbp), %rax
	movq	16(%rax), %rdi
	callq	free
	movq	-24(%rbp), %rdi
	movq	-8(%rbp), %rax
	movl	8(%rax), %esi
	callq	Free2DArray
	addq	$32, %rsp
	popq	%rbp
	retq
.Lfunc_end14:
	.size	FreeAlignment, .Lfunc_end14-FreeAlignment
	.cfi_endproc
                                        # -- End function
	.globl	SAMizeAlignment         # -- Begin function SAMizeAlignment
	.p2align	4, 0x90
	.type	SAMizeAlignment,@function
SAMizeAlignment:                        # @SAMizeAlignment
	.cfi_startproc
# %bb.0:
	pushq	%rbp
	.cfi_def_cfa_offset 16
	.cfi_offset %rbp, -16
	movq	%rsp, %rbp
	.cfi_def_cfa_register %rbp
	subq	$48, %rsp
	movq	%rdi, -24(%rbp)
	movl	%esi, -36(%rbp)
	movl	%edx, -44(%rbp)
	movl	$0, -8(%rbp)
.LBB15_1:                               # =>This Loop Header: Depth=1
                                        #     Child Loop BB15_3 Depth 2
                                        #     Child Loop BB15_20 Depth 2
	movl	-8(%rbp), %eax
	cmpl	-44(%rbp), %eax
	jge	.LBB15_31
# %bb.2:                                #   in Loop: Header=BB15_1 Depth=1
	movl	$0, -40(%rbp)
	movl	$0, -28(%rbp)
	movl	$0, -32(%rbp)
	movl	$0, -4(%rbp)
.LBB15_3:                               #   Parent Loop BB15_1 Depth=1
                                        # =>  This Inner Loop Header: Depth=2
	movl	-4(%rbp), %eax
	cmpl	-36(%rbp), %eax
	jge	.LBB15_16
# %bb.4:                                #   in Loop: Header=BB15_3 Depth=2
	movq	-24(%rbp), %rax
	movslq	-4(%rbp), %rcx
	movq	(%rax,%rcx,8), %rax
	movslq	-8(%rbp), %rcx
	movsbl	(%rax,%rcx), %eax
	cmpl	$32, %eax
	je	.LBB15_9
# %bb.5:                                #   in Loop: Header=BB15_3 Depth=2
	movq	-24(%rbp), %rax
	movslq	-4(%rbp), %rcx
	movq	(%rax,%rcx,8), %rax
	movslq	-8(%rbp), %rcx
	movsbl	(%rax,%rcx), %eax
	cmpl	$46, %eax
	je	.LBB15_9
# %bb.6:                                #   in Loop: Header=BB15_3 Depth=2
	movq	-24(%rbp), %rax
	movslq	-4(%rbp), %rcx
	movq	(%rax,%rcx,8), %rax
	movslq	-8(%rbp), %rcx
	movsbl	(%rax,%rcx), %eax
	cmpl	$95, %eax
	je	.LBB15_9
# %bb.7:                                #   in Loop: Header=BB15_3 Depth=2
	movq	-24(%rbp), %rax
	movslq	-4(%rbp), %rcx
	movq	(%rax,%rcx,8), %rax
	movslq	-8(%rbp), %rcx
	movsbl	(%rax,%rcx), %eax
	cmpl	$45, %eax
	je	.LBB15_9
# %bb.8:                                #   in Loop: Header=BB15_3 Depth=2
	movq	-24(%rbp), %rax
	movslq	-4(%rbp), %rcx
	movq	(%rax,%rcx,8), %rax
	movslq	-8(%rbp), %rcx
	movsbl	(%rax,%rcx), %eax
	cmpl	$126, %eax
	jne	.LBB15_10
.LBB15_9:                               #   in Loop: Header=BB15_3 Depth=2
	movl	$1, -40(%rbp)
	jmp	.LBB15_15
.LBB15_10:                              #   in Loop: Header=BB15_3 Depth=2
	callq	__ctype_b_loc
	movq	(%rax), %rax
	movq	-24(%rbp), %rcx
	movslq	-4(%rbp), %rdx
	movq	(%rcx,%rdx,8), %rcx
	movslq	-8(%rbp), %rdx
	movsbl	(%rcx,%rdx), %ecx
	movslq	%ecx, %rcx
	movzwl	(%rax,%rcx,2), %eax
	andl	$256, %eax              # imm = 0x100
	cmpl	$0, %eax
	je	.LBB15_12
# %bb.11:                               #   in Loop: Header=BB15_3 Depth=2
	movl	$1, -28(%rbp)
	jmp	.LBB15_15
.LBB15_12:                              #   in Loop: Header=BB15_3 Depth=2
	callq	__ctype_b_loc
	movq	(%rax), %rax
	movq	-24(%rbp), %rcx
	movslq	-4(%rbp), %rdx
	movq	(%rcx,%rdx,8), %rcx
	movslq	-8(%rbp), %rdx
	movsbl	(%rcx,%rdx), %ecx
	movslq	%ecx, %rcx
	movzwl	(%rax,%rcx,2), %eax
	andl	$512, %eax              # imm = 0x200
	cmpl	$0, %eax
	je	.LBB15_14
# %bb.13:                               #   in Loop: Header=BB15_3 Depth=2
	movl	$1, -32(%rbp)
.LBB15_14:                              #   in Loop: Header=BB15_3 Depth=2
	jmp	.LBB15_15
.LBB15_15:                              #   in Loop: Header=BB15_3 Depth=2
	movl	-4(%rbp), %eax
	addl	$1, %eax
	movl	%eax, -4(%rbp)
	jmp	.LBB15_3
.LBB15_16:                              #   in Loop: Header=BB15_1 Depth=1
	movb	$45, -9(%rbp)
	cmpl	$0, -32(%rbp)
	je	.LBB15_19
# %bb.17:                               #   in Loop: Header=BB15_1 Depth=1
	cmpl	$0, -28(%rbp)
	jne	.LBB15_19
# %bb.18:                               #   in Loop: Header=BB15_1 Depth=1
	movb	$46, -9(%rbp)
.LBB15_19:                              #   in Loop: Header=BB15_1 Depth=1
	movl	$0, -4(%rbp)
.LBB15_20:                              #   Parent Loop BB15_1 Depth=1
                                        # =>  This Inner Loop Header: Depth=2
	movl	-4(%rbp), %eax
	cmpl	-36(%rbp), %eax
	jge	.LBB15_29
# %bb.21:                               #   in Loop: Header=BB15_20 Depth=2
	movq	-24(%rbp), %rax
	movslq	-4(%rbp), %rcx
	movq	(%rax,%rcx,8), %rax
	movslq	-8(%rbp), %rcx
	movsbl	(%rax,%rcx), %eax
	cmpl	$32, %eax
	je	.LBB15_26
# %bb.22:                               #   in Loop: Header=BB15_20 Depth=2
	movq	-24(%rbp), %rax
	movslq	-4(%rbp), %rcx
	movq	(%rax,%rcx,8), %rax
	movslq	-8(%rbp), %rcx
	movsbl	(%rax,%rcx), %eax
	cmpl	$46, %eax
	je	.LBB15_26
# %bb.23:                               #   in Loop: Header=BB15_20 Depth=2
	movq	-24(%rbp), %rax
	movslq	-4(%rbp), %rcx
	movq	(%rax,%rcx,8), %rax
	movslq	-8(%rbp), %rcx
	movsbl	(%rax,%rcx), %eax
	cmpl	$95, %eax
	je	.LBB15_26
# %bb.24:                               #   in Loop: Header=BB15_20 Depth=2
	movq	-24(%rbp), %rax
	movslq	-4(%rbp), %rcx
	movq	(%rax,%rcx,8), %rax
	movslq	-8(%rbp), %rcx
	movsbl	(%rax,%rcx), %eax
	cmpl	$45, %eax
	je	.LBB15_26
# %bb.25:                               #   in Loop: Header=BB15_20 Depth=2
	movq	-24(%rbp), %rax
	movslq	-4(%rbp), %rcx
	movq	(%rax,%rcx,8), %rax
	movslq	-8(%rbp), %rcx
	movsbl	(%rax,%rcx), %eax
	cmpl	$126, %eax
	jne	.LBB15_27
.LBB15_26:                              #   in Loop: Header=BB15_20 Depth=2
	movb	-9(%rbp), %al
	movq	-24(%rbp), %rcx
	movslq	-4(%rbp), %rdx
	movq	(%rcx,%rdx,8), %rcx
	movslq	-8(%rbp), %rdx
	movb	%al, (%rcx,%rdx)
.LBB15_27:                              #   in Loop: Header=BB15_20 Depth=2
	jmp	.LBB15_28
.LBB15_28:                              #   in Loop: Header=BB15_20 Depth=2
	movl	-4(%rbp), %eax
	addl	$1, %eax
	movl	%eax, -4(%rbp)
	jmp	.LBB15_20
.LBB15_29:                              #   in Loop: Header=BB15_1 Depth=1
	jmp	.LBB15_30
.LBB15_30:                              #   in Loop: Header=BB15_1 Depth=1
	movl	-8(%rbp), %eax
	addl	$1, %eax
	movl	%eax, -8(%rbp)
	jmp	.LBB15_1
.LBB15_31:
	addq	$48, %rsp
	popq	%rbp
	retq
.Lfunc_end15:
	.size	SAMizeAlignment, .Lfunc_end15-SAMizeAlignment
	.cfi_endproc
                                        # -- End function
	.globl	SAMizeAlignmentByGapFrac # -- Begin function SAMizeAlignmentByGapFrac
	.p2align	4, 0x90
	.type	SAMizeAlignmentByGapFrac,@function
SAMizeAlignmentByGapFrac:               # @SAMizeAlignmentByGapFrac
	.cfi_startproc
# %bb.0:
	pushq	%rbp
	.cfi_def_cfa_offset 16
	.cfi_offset %rbp, -16
	movq	%rsp, %rbp
	.cfi_def_cfa_register %rbp
	subq	$32, %rsp
	movq	%rdi, -16(%rbp)
	movl	%esi, -20(%rbp)
	movl	%edx, -32(%rbp)
	movss	%xmm0, -28(%rbp)
	movl	$0, -8(%rbp)
.LBB16_1:                               # =>This Loop Header: Depth=1
                                        #     Child Loop BB16_3 Depth 2
                                        #     Child Loop BB16_14 Depth 2
                                        #     Child Loop BB16_26 Depth 2
	movl	-8(%rbp), %eax
	cmpl	-32(%rbp), %eax
	jge	.LBB16_39
# %bb.2:                                #   in Loop: Header=BB16_1 Depth=1
	movl	$0, -24(%rbp)
	movl	$0, -4(%rbp)
.LBB16_3:                               #   Parent Loop BB16_1 Depth=1
                                        # =>  This Inner Loop Header: Depth=2
	movl	-4(%rbp), %eax
	cmpl	-20(%rbp), %eax
	jge	.LBB16_12
# %bb.4:                                #   in Loop: Header=BB16_3 Depth=2
	movq	-16(%rbp), %rax
	movslq	-4(%rbp), %rcx
	movq	(%rax,%rcx,8), %rax
	movslq	-8(%rbp), %rcx
	movsbl	(%rax,%rcx), %eax
	cmpl	$32, %eax
	je	.LBB16_9
# %bb.5:                                #   in Loop: Header=BB16_3 Depth=2
	movq	-16(%rbp), %rax
	movslq	-4(%rbp), %rcx
	movq	(%rax,%rcx,8), %rax
	movslq	-8(%rbp), %rcx
	movsbl	(%rax,%rcx), %eax
	cmpl	$46, %eax
	je	.LBB16_9
# %bb.6:                                #   in Loop: Header=BB16_3 Depth=2
	movq	-16(%rbp), %rax
	movslq	-4(%rbp), %rcx
	movq	(%rax,%rcx,8), %rax
	movslq	-8(%rbp), %rcx
	movsbl	(%rax,%rcx), %eax
	cmpl	$95, %eax
	je	.LBB16_9
# %bb.7:                                #   in Loop: Header=BB16_3 Depth=2
	movq	-16(%rbp), %rax
	movslq	-4(%rbp), %rcx
	movq	(%rax,%rcx,8), %rax
	movslq	-8(%rbp), %rcx
	movsbl	(%rax,%rcx), %eax
	cmpl	$45, %eax
	je	.LBB16_9
# %bb.8:                                #   in Loop: Header=BB16_3 Depth=2
	movq	-16(%rbp), %rax
	movslq	-4(%rbp), %rcx
	movq	(%rax,%rcx,8), %rax
	movslq	-8(%rbp), %rcx
	movsbl	(%rax,%rcx), %eax
	cmpl	$126, %eax
	jne	.LBB16_10
.LBB16_9:                               #   in Loop: Header=BB16_3 Depth=2
	movl	-24(%rbp), %eax
	addl	$1, %eax
	movl	%eax, -24(%rbp)
.LBB16_10:                              #   in Loop: Header=BB16_3 Depth=2
	jmp	.LBB16_11
.LBB16_11:                              #   in Loop: Header=BB16_3 Depth=2
	movl	-4(%rbp), %eax
	addl	$1, %eax
	movl	%eax, -4(%rbp)
	jmp	.LBB16_3
.LBB16_12:                              #   in Loop: Header=BB16_1 Depth=1
	movl	-24(%rbp), %eax
	cvtsi2ssl	%eax, %xmm0
	movl	-20(%rbp), %eax
	cvtsi2ssl	%eax, %xmm1
	divss	%xmm1, %xmm0
	ucomiss	-28(%rbp), %xmm0
	jbe	.LBB16_25
# %bb.13:                               #   in Loop: Header=BB16_1 Depth=1
	movl	$0, -4(%rbp)
.LBB16_14:                              #   Parent Loop BB16_1 Depth=1
                                        # =>  This Inner Loop Header: Depth=2
	movl	-4(%rbp), %eax
	cmpl	-20(%rbp), %eax
	jge	.LBB16_24
# %bb.15:                               #   in Loop: Header=BB16_14 Depth=2
	movq	-16(%rbp), %rax
	movslq	-4(%rbp), %rcx
	movq	(%rax,%rcx,8), %rax
	movslq	-8(%rbp), %rcx
	movsbl	(%rax,%rcx), %eax
	cmpl	$32, %eax
	je	.LBB16_20
# %bb.16:                               #   in Loop: Header=BB16_14 Depth=2
	movq	-16(%rbp), %rax
	movslq	-4(%rbp), %rcx
	movq	(%rax,%rcx,8), %rax
	movslq	-8(%rbp), %rcx
	movsbl	(%rax,%rcx), %eax
	cmpl	$46, %eax
	je	.LBB16_20
# %bb.17:                               #   in Loop: Header=BB16_14 Depth=2
	movq	-16(%rbp), %rax
	movslq	-4(%rbp), %rcx
	movq	(%rax,%rcx,8), %rax
	movslq	-8(%rbp), %rcx
	movsbl	(%rax,%rcx), %eax
	cmpl	$95, %eax
	je	.LBB16_20
# %bb.18:                               #   in Loop: Header=BB16_14 Depth=2
	movq	-16(%rbp), %rax
	movslq	-4(%rbp), %rcx
	movq	(%rax,%rcx,8), %rax
	movslq	-8(%rbp), %rcx
	movsbl	(%rax,%rcx), %eax
	cmpl	$45, %eax
	je	.LBB16_20
# %bb.19:                               #   in Loop: Header=BB16_14 Depth=2
	movq	-16(%rbp), %rax
	movslq	-4(%rbp), %rcx
	movq	(%rax,%rcx,8), %rax
	movslq	-8(%rbp), %rcx
	movsbl	(%rax,%rcx), %eax
	cmpl	$126, %eax
	jne	.LBB16_21
.LBB16_20:                              #   in Loop: Header=BB16_14 Depth=2
	movq	-16(%rbp), %rax
	movslq	-4(%rbp), %rcx
	movq	(%rax,%rcx,8), %rax
	movslq	-8(%rbp), %rcx
	movb	$46, (%rax,%rcx)
	jmp	.LBB16_22
.LBB16_21:                              #   in Loop: Header=BB16_14 Depth=2
	movq	-16(%rbp), %rax
	movslq	-4(%rbp), %rcx
	movq	(%rax,%rcx,8), %rax
	movslq	-8(%rbp), %rcx
	movsbl	(%rax,%rcx), %edi
	callq	tolower
	movq	-16(%rbp), %rcx
	movslq	-4(%rbp), %rdx
	movq	(%rcx,%rdx,8), %rcx
	movslq	-8(%rbp), %rdx
	movb	%al, (%rcx,%rdx)
.LBB16_22:                              #   in Loop: Header=BB16_14 Depth=2
	jmp	.LBB16_23
.LBB16_23:                              #   in Loop: Header=BB16_14 Depth=2
	movl	-4(%rbp), %eax
	addl	$1, %eax
	movl	%eax, -4(%rbp)
	jmp	.LBB16_14
.LBB16_24:                              #   in Loop: Header=BB16_1 Depth=1
	jmp	.LBB16_37
.LBB16_25:                              #   in Loop: Header=BB16_1 Depth=1
	movl	$0, -4(%rbp)
.LBB16_26:                              #   Parent Loop BB16_1 Depth=1
                                        # =>  This Inner Loop Header: Depth=2
	movl	-4(%rbp), %eax
	cmpl	-20(%rbp), %eax
	jge	.LBB16_36
# %bb.27:                               #   in Loop: Header=BB16_26 Depth=2
	movq	-16(%rbp), %rax
	movslq	-4(%rbp), %rcx
	movq	(%rax,%rcx,8), %rax
	movslq	-8(%rbp), %rcx
	movsbl	(%rax,%rcx), %eax
	cmpl	$32, %eax
	je	.LBB16_32
# %bb.28:                               #   in Loop: Header=BB16_26 Depth=2
	movq	-16(%rbp), %rax
	movslq	-4(%rbp), %rcx
	movq	(%rax,%rcx,8), %rax
	movslq	-8(%rbp), %rcx
	movsbl	(%rax,%rcx), %eax
	cmpl	$46, %eax
	je	.LBB16_32
# %bb.29:                               #   in Loop: Header=BB16_26 Depth=2
	movq	-16(%rbp), %rax
	movslq	-4(%rbp), %rcx
	movq	(%rax,%rcx,8), %rax
	movslq	-8(%rbp), %rcx
	movsbl	(%rax,%rcx), %eax
	cmpl	$95, %eax
	je	.LBB16_32
# %bb.30:                               #   in Loop: Header=BB16_26 Depth=2
	movq	-16(%rbp), %rax
	movslq	-4(%rbp), %rcx
	movq	(%rax,%rcx,8), %rax
	movslq	-8(%rbp), %rcx
	movsbl	(%rax,%rcx), %eax
	cmpl	$45, %eax
	je	.LBB16_32
# %bb.31:                               #   in Loop: Header=BB16_26 Depth=2
	movq	-16(%rbp), %rax
	movslq	-4(%rbp), %rcx
	movq	(%rax,%rcx,8), %rax
	movslq	-8(%rbp), %rcx
	movsbl	(%rax,%rcx), %eax
	cmpl	$126, %eax
	jne	.LBB16_33
.LBB16_32:                              #   in Loop: Header=BB16_26 Depth=2
	movq	-16(%rbp), %rax
	movslq	-4(%rbp), %rcx
	movq	(%rax,%rcx,8), %rax
	movslq	-8(%rbp), %rcx
	movb	$45, (%rax,%rcx)
	jmp	.LBB16_34
.LBB16_33:                              #   in Loop: Header=BB16_26 Depth=2
	movq	-16(%rbp), %rax
	movslq	-4(%rbp), %rcx
	movq	(%rax,%rcx,8), %rax
	movslq	-8(%rbp), %rcx
	movsbl	(%rax,%rcx), %edi
	callq	toupper
	movq	-16(%rbp), %rcx
	movslq	-4(%rbp), %rdx
	movq	(%rcx,%rdx,8), %rcx
	movslq	-8(%rbp), %rdx
	movb	%al, (%rcx,%rdx)
.LBB16_34:                              #   in Loop: Header=BB16_26 Depth=2
	jmp	.LBB16_35
.LBB16_35:                              #   in Loop: Header=BB16_26 Depth=2
	movl	-4(%rbp), %eax
	addl	$1, %eax
	movl	%eax, -4(%rbp)
	jmp	.LBB16_26
.LBB16_36:                              #   in Loop: Header=BB16_1 Depth=1
	jmp	.LBB16_37
.LBB16_37:                              #   in Loop: Header=BB16_1 Depth=1
	jmp	.LBB16_38
.LBB16_38:                              #   in Loop: Header=BB16_1 Depth=1
	movl	-8(%rbp), %eax
	addl	$1, %eax
	movl	%eax, -8(%rbp)
	jmp	.LBB16_1
.LBB16_39:
	addq	$32, %rsp
	popq	%rbp
	retq
.Lfunc_end16:
	.size	SAMizeAlignmentByGapFrac, .Lfunc_end16-SAMizeAlignmentByGapFrac
	.cfi_endproc
                                        # -- End function
	.globl	MakeAlignedString       # -- Begin function MakeAlignedString
	.p2align	4, 0x90
	.type	MakeAlignedString,@function
MakeAlignedString:                      # @MakeAlignedString
	.cfi_startproc
# %bb.0:
	pushq	%rbp
	.cfi_def_cfa_offset 16
	.cfi_offset %rbp, -16
	movq	%rsp, %rbp
	.cfi_def_cfa_register %rbp
	pushq	%rbx
	subq	$56, %rsp
	.cfi_offset %rbx, -24
	movabsq	$.L.str.7, %rax
	movq	%rdi, -32(%rbp)
	movl	%esi, -36(%rbp)
	movq	%rdx, -48(%rbp)
	movq	%rcx, -56(%rbp)
	movl	-36(%rbp), %ecx
	addl	$1, %ecx
	movslq	%ecx, %rdx
	shlq	$0, %rdx
	movq	%rax, %rdi
	movl	$242, %esi
	callq	sre_malloc
	movq	%rax, -24(%rbp)
	movl	$0, -16(%rbp)
	movl	$0, -12(%rbp)
.LBB17_1:                               # =>This Inner Loop Header: Depth=1
	movl	-12(%rbp), %eax
	cmpl	-36(%rbp), %eax
	jge	.LBB17_11
# %bb.2:                                #   in Loop: Header=BB17_1 Depth=1
	movq	-32(%rbp), %rax
	movslq	-12(%rbp), %rcx
	movsbl	(%rax,%rcx), %eax
	cmpl	$32, %eax
	je	.LBB17_8
# %bb.3:                                #   in Loop: Header=BB17_1 Depth=1
	movq	-32(%rbp), %rax
	movslq	-12(%rbp), %rcx
	movsbl	(%rax,%rcx), %eax
	cmpl	$46, %eax
	je	.LBB17_8
# %bb.4:                                #   in Loop: Header=BB17_1 Depth=1
	movq	-32(%rbp), %rax
	movslq	-12(%rbp), %rcx
	movsbl	(%rax,%rcx), %eax
	cmpl	$95, %eax
	je	.LBB17_8
# %bb.5:                                #   in Loop: Header=BB17_1 Depth=1
	movq	-32(%rbp), %rax
	movslq	-12(%rbp), %rcx
	movsbl	(%rax,%rcx), %eax
	cmpl	$45, %eax
	je	.LBB17_8
# %bb.6:                                #   in Loop: Header=BB17_1 Depth=1
	movq	-32(%rbp), %rax
	movslq	-12(%rbp), %rcx
	movsbl	(%rax,%rcx), %eax
	cmpl	$126, %eax
	je	.LBB17_8
# %bb.7:                                #   in Loop: Header=BB17_1 Depth=1
	movq	-48(%rbp), %rax
	movslq	-16(%rbp), %rcx
	movb	(%rax,%rcx), %al
	movq	-24(%rbp), %rcx
	movslq	-12(%rbp), %rdx
	movb	%al, (%rcx,%rdx)
	movl	-16(%rbp), %eax
	addl	$1, %eax
	movl	%eax, -16(%rbp)
	jmp	.LBB17_9
.LBB17_8:                               #   in Loop: Header=BB17_1 Depth=1
	movq	-24(%rbp), %rax
	movslq	-12(%rbp), %rcx
	movb	$46, (%rax,%rcx)
.LBB17_9:                               #   in Loop: Header=BB17_1 Depth=1
	jmp	.LBB17_10
.LBB17_10:                              #   in Loop: Header=BB17_1 Depth=1
	movl	-12(%rbp), %eax
	addl	$1, %eax
	movl	%eax, -12(%rbp)
	jmp	.LBB17_1
.LBB17_11:
	movq	-24(%rbp), %rax
	movslq	-12(%rbp), %rcx
	movb	$0, (%rax,%rcx)
	movslq	-16(%rbp), %rbx
	movq	-48(%rbp), %rdi
	callq	strlen
	cmpq	%rax, %rbx
	je	.LBB17_13
# %bb.12:
	movl	$6, squid_errno
	movq	-24(%rbp), %rdi
	callq	free
	movl	$0, -40(%rbp)
	jmp	.LBB17_14
.LBB17_13:
	movq	-24(%rbp), %rax
	movq	-56(%rbp), %rcx
	movq	%rax, (%rcx)
	movl	$1, -40(%rbp)
.LBB17_14:
	movl	-40(%rbp), %eax
	addq	$56, %rsp
	popq	%rbx
	popq	%rbp
	retq
.Lfunc_end17:
	.size	MakeAlignedString, .Lfunc_end17-MakeAlignedString
	.cfi_endproc
                                        # -- End function
	.globl	MakeDealignedString     # -- Begin function MakeDealignedString
	.p2align	4, 0x90
	.type	MakeDealignedString,@function
MakeDealignedString:                    # @MakeDealignedString
	.cfi_startproc
# %bb.0:
	pushq	%rbp
	.cfi_def_cfa_offset 16
	.cfi_offset %rbp, -16
	movq	%rsp, %rbp
	.cfi_def_cfa_register %rbp
	pushq	%rbx
	subq	$56, %rsp
	.cfi_offset %rbx, -24
	movabsq	$.L.str.7, %rax
	movq	%rdi, -32(%rbp)
	movl	%esi, -20(%rbp)
	movq	%rdx, -56(%rbp)
	movq	%rcx, -64(%rbp)
	movl	-20(%rbp), %ecx
	addl	$1, %ecx
	movslq	%ecx, %rdx
	shlq	$0, %rdx
	movq	%rax, %rdi
	movl	$280, %esi              # imm = 0x118
	callq	sre_malloc
	movq	%rax, -48(%rbp)
	movl	$0, -16(%rbp)
	movl	$0, -12(%rbp)
.LBB18_1:                               # =>This Inner Loop Header: Depth=1
	movl	-12(%rbp), %eax
	cmpl	-20(%rbp), %eax
	jge	.LBB18_10
# %bb.2:                                #   in Loop: Header=BB18_1 Depth=1
	movq	-32(%rbp), %rax
	movslq	-12(%rbp), %rcx
	movsbl	(%rax,%rcx), %eax
	cmpl	$32, %eax
	je	.LBB18_8
# %bb.3:                                #   in Loop: Header=BB18_1 Depth=1
	movq	-32(%rbp), %rax
	movslq	-12(%rbp), %rcx
	movsbl	(%rax,%rcx), %eax
	cmpl	$46, %eax
	je	.LBB18_8
# %bb.4:                                #   in Loop: Header=BB18_1 Depth=1
	movq	-32(%rbp), %rax
	movslq	-12(%rbp), %rcx
	movsbl	(%rax,%rcx), %eax
	cmpl	$95, %eax
	je	.LBB18_8
# %bb.5:                                #   in Loop: Header=BB18_1 Depth=1
	movq	-32(%rbp), %rax
	movslq	-12(%rbp), %rcx
	movsbl	(%rax,%rcx), %eax
	cmpl	$45, %eax
	je	.LBB18_8
# %bb.6:                                #   in Loop: Header=BB18_1 Depth=1
	movq	-32(%rbp), %rax
	movslq	-12(%rbp), %rcx
	movsbl	(%rax,%rcx), %eax
	cmpl	$126, %eax
	je	.LBB18_8
# %bb.7:                                #   in Loop: Header=BB18_1 Depth=1
	movq	-56(%rbp), %rax
	movslq	-12(%rbp), %rcx
	movb	(%rax,%rcx), %al
	movq	-48(%rbp), %rcx
	movslq	-16(%rbp), %rdx
	movb	%al, (%rcx,%rdx)
	movl	-16(%rbp), %eax
	addl	$1, %eax
	movl	%eax, -16(%rbp)
.LBB18_8:                               #   in Loop: Header=BB18_1 Depth=1
	jmp	.LBB18_9
.LBB18_9:                               #   in Loop: Header=BB18_1 Depth=1
	movl	-12(%rbp), %eax
	addl	$1, %eax
	movl	%eax, -12(%rbp)
	jmp	.LBB18_1
.LBB18_10:
	movq	-48(%rbp), %rax
	movslq	-16(%rbp), %rcx
	movb	$0, (%rax,%rcx)
	movslq	-20(%rbp), %rbx
	movq	-56(%rbp), %rdi
	callq	strlen
	cmpq	%rax, %rbx
	je	.LBB18_12
# %bb.11:
	movl	$6, squid_errno
	movq	-48(%rbp), %rdi
	callq	free
	movl	$0, -36(%rbp)
	jmp	.LBB18_13
.LBB18_12:
	movq	-48(%rbp), %rax
	movq	-64(%rbp), %rcx
	movq	%rax, (%rcx)
	movl	$1, -36(%rbp)
.LBB18_13:
	movl	-36(%rbp), %eax
	addq	$56, %rsp
	popq	%rbx
	popq	%rbp
	retq
.Lfunc_end18:
	.size	MakeDealignedString, .Lfunc_end18-MakeDealignedString
	.cfi_endproc
                                        # -- End function
	.globl	DealignedLength         # -- Begin function DealignedLength
	.p2align	4, 0x90
	.type	DealignedLength,@function
DealignedLength:                        # @DealignedLength
	.cfi_startproc
# %bb.0:
	pushq	%rbp
	.cfi_def_cfa_offset 16
	.cfi_offset %rbp, -16
	movq	%rsp, %rbp
	.cfi_def_cfa_register %rbp
	movq	%rdi, -8(%rbp)
	movl	$0, -12(%rbp)
.LBB19_1:                               # =>This Inner Loop Header: Depth=1
	movq	-8(%rbp), %rax
	cmpb	$0, (%rax)
	je	.LBB19_10
# %bb.2:                                #   in Loop: Header=BB19_1 Depth=1
	movq	-8(%rbp), %rax
	movsbl	(%rax), %eax
	cmpl	$32, %eax
	je	.LBB19_8
# %bb.3:                                #   in Loop: Header=BB19_1 Depth=1
	movq	-8(%rbp), %rax
	movsbl	(%rax), %eax
	cmpl	$46, %eax
	je	.LBB19_8
# %bb.4:                                #   in Loop: Header=BB19_1 Depth=1
	movq	-8(%rbp), %rax
	movsbl	(%rax), %eax
	cmpl	$95, %eax
	je	.LBB19_8
# %bb.5:                                #   in Loop: Header=BB19_1 Depth=1
	movq	-8(%rbp), %rax
	movsbl	(%rax), %eax
	cmpl	$45, %eax
	je	.LBB19_8
# %bb.6:                                #   in Loop: Header=BB19_1 Depth=1
	movq	-8(%rbp), %rax
	movsbl	(%rax), %eax
	cmpl	$126, %eax
	je	.LBB19_8
# %bb.7:                                #   in Loop: Header=BB19_1 Depth=1
	movl	-12(%rbp), %eax
	addl	$1, %eax
	movl	%eax, -12(%rbp)
.LBB19_8:                               #   in Loop: Header=BB19_1 Depth=1
	jmp	.LBB19_9
.LBB19_9:                               #   in Loop: Header=BB19_1 Depth=1
	movq	-8(%rbp), %rax
	addq	$1, %rax
	movq	%rax, -8(%rbp)
	jmp	.LBB19_1
.LBB19_10:
	movl	-12(%rbp), %eax
	popq	%rbp
	retq
.Lfunc_end19:
	.size	DealignedLength, .Lfunc_end19-DealignedLength
	.cfi_endproc
                                        # -- End function
	.globl	WritePairwiseAlignment  # -- Begin function WritePairwiseAlignment
	.p2align	4, 0x90
	.type	WritePairwiseAlignment,@function
WritePairwiseAlignment:                 # @WritePairwiseAlignment
	.cfi_startproc
# %bb.0:
	pushq	%rbp
	.cfi_def_cfa_offset 16
	.cfi_offset %rbp, -16
	movq	%rsp, %rbp
	.cfi_def_cfa_register %rbp
	pushq	%rbx
	subq	$328, %rsp              # imm = 0x148
	.cfi_offset %rbx, -24
	movl	32(%rbp), %eax
	movq	24(%rbp), %rax
	movl	16(%rbp), %eax
	leaq	-90(%rbp), %rax
	movq	%rdi, -64(%rbp)
	movq	%rsi, -256(%rbp)
	movq	%rdx, -248(%rbp)
	movl	%ecx, -68(%rbp)
	movq	%r8, -240(%rbp)
	movq	%r9, -232(%rbp)
	movq	-248(%rbp), %rsi
	movq	%rax, %rdi
	movl	$10, %edx
	callq	strncpy
	movabsq	$.L.str.1.8, %rsi
	leaq	-90(%rbp), %rdi
	movb	$0, -80(%rbp)
	callq	strtok
	leaq	-79(%rbp), %rdi
	movq	-232(%rbp), %rsi
	movl	$10, %edx
	callq	strncpy
	movabsq	$.L.str.1.8, %rsi
	leaq	-79(%rbp), %rdi
	movb	$0, -69(%rbp)
	callq	strtok
	movq	-256(%rbp), %rax
	movq	%rax, -56(%rbp)
	movq	-240(%rbp), %rax
	movq	%rax, -48(%rbp)
	movl	-68(%rbp), %eax
	movl	%eax, -28(%rbp)
	movl	16(%rbp), %eax
	movl	%eax, -24(%rbp)
	movl	$1, -40(%rbp)
.LBB20_1:                               # =>This Loop Header: Depth=1
                                        #     Child Loop BB20_8 Depth 2
                                        #     Child Loop BB20_32 Depth 2
                                        #     Child Loop BB20_42 Depth 2
	cmpl	$0, -40(%rbp)
	je	.LBB20_52
# %bb.2:                                #   in Loop: Header=BB20_1 Depth=1
	leaq	-160(%rbp), %rdi
	movl	$0, -40(%rbp)
	movq	-56(%rbp), %rsi
	movl	$60, %edx
	callq	strncpy
	leaq	-224(%rbp), %rdi
	movb	$0, -100(%rbp)
	movq	-48(%rbp), %rsi
	movl	$60, %edx
	callq	strncpy
	leaq	-224(%rbp), %rbx
	leaq	-160(%rbp), %rdi
	movb	$0, -164(%rbp)
	callq	strlen
	movl	%eax, -36(%rbp)
	movq	%rbx, %rdi
	callq	strlen
	movl	%eax, -32(%rbp)
	cmpl	$60, -36(%rbp)
	jne	.LBB20_4
# %bb.3:                                #   in Loop: Header=BB20_1 Depth=1
	movq	-56(%rbp), %rax
	movsbl	60(%rax), %eax
	cmpl	$0, %eax
	jne	.LBB20_6
.LBB20_4:                               #   in Loop: Header=BB20_1 Depth=1
	cmpl	$60, -32(%rbp)
	jne	.LBB20_7
# %bb.5:                                #   in Loop: Header=BB20_1 Depth=1
	movq	-48(%rbp), %rax
	movsbl	60(%rax), %eax
	cmpl	$0, %eax
	je	.LBB20_7
.LBB20_6:                               #   in Loop: Header=BB20_1 Depth=1
	movl	$1, -40(%rbp)
.LBB20_7:                               #   in Loop: Header=BB20_1 Depth=1
	movl	-36(%rbp), %eax
	movq	-56(%rbp), %rcx
	cltq
	addq	%rax, %rcx
	movq	%rcx, -56(%rbp)
	movl	-32(%rbp), %eax
	movq	-48(%rbp), %rcx
	cltq
	addq	%rax, %rcx
	movq	%rcx, -48(%rbp)
	movl	$0, -12(%rbp)
.LBB20_8:                               #   Parent Loop BB20_1 Depth=1
                                        # =>  This Inner Loop Header: Depth=2
	xorl	%eax, %eax
	movl	-12(%rbp), %ecx
	cmpl	-36(%rbp), %ecx
	jge	.LBB20_10
# %bb.9:                                #   in Loop: Header=BB20_8 Depth=2
	movl	-12(%rbp), %eax
	cmpl	-32(%rbp), %eax
	setl	%al
.LBB20_10:                              #   in Loop: Header=BB20_8 Depth=2
	testb	$1, %al
	jne	.LBB20_11
	jmp	.LBB20_31
.LBB20_11:                              #   in Loop: Header=BB20_8 Depth=2
	movslq	-12(%rbp), %rax
	movsbl	-160(%rbp,%rax), %eax
	cmpl	$32, %eax
	je	.LBB20_28
# %bb.12:                               #   in Loop: Header=BB20_8 Depth=2
	movslq	-12(%rbp), %rax
	movsbl	-160(%rbp,%rax), %eax
	cmpl	$46, %eax
	je	.LBB20_28
# %bb.13:                               #   in Loop: Header=BB20_8 Depth=2
	movslq	-12(%rbp), %rax
	movsbl	-160(%rbp,%rax), %eax
	cmpl	$95, %eax
	je	.LBB20_28
# %bb.14:                               #   in Loop: Header=BB20_8 Depth=2
	movslq	-12(%rbp), %rax
	movsbl	-160(%rbp,%rax), %eax
	cmpl	$45, %eax
	je	.LBB20_28
# %bb.15:                               #   in Loop: Header=BB20_8 Depth=2
	movslq	-12(%rbp), %rax
	movsbl	-160(%rbp,%rax), %eax
	cmpl	$126, %eax
	je	.LBB20_28
# %bb.16:                               #   in Loop: Header=BB20_8 Depth=2
	movslq	-12(%rbp), %rax
	movsbl	-224(%rbp,%rax), %eax
	cmpl	$32, %eax
	je	.LBB20_28
# %bb.17:                               #   in Loop: Header=BB20_8 Depth=2
	movslq	-12(%rbp), %rax
	movsbl	-224(%rbp,%rax), %eax
	cmpl	$46, %eax
	je	.LBB20_28
# %bb.18:                               #   in Loop: Header=BB20_8 Depth=2
	movslq	-12(%rbp), %rax
	movsbl	-224(%rbp,%rax), %eax
	cmpl	$95, %eax
	je	.LBB20_28
# %bb.19:                               #   in Loop: Header=BB20_8 Depth=2
	movslq	-12(%rbp), %rax
	movsbl	-224(%rbp,%rax), %eax
	cmpl	$45, %eax
	je	.LBB20_28
# %bb.20:                               #   in Loop: Header=BB20_8 Depth=2
	movslq	-12(%rbp), %rax
	movsbl	-224(%rbp,%rax), %eax
	cmpl	$126, %eax
	je	.LBB20_28
# %bb.21:                               #   in Loop: Header=BB20_8 Depth=2
	movslq	-12(%rbp), %rax
	movsbl	-160(%rbp,%rax), %eax
	movslq	-12(%rbp), %rcx
	movsbl	-224(%rbp,%rcx), %ecx
	cmpl	%ecx, %eax
	jne	.LBB20_23
# %bb.22:                               #   in Loop: Header=BB20_8 Depth=2
	movslq	-12(%rbp), %rax
	movb	-160(%rbp,%rax), %al
	movslq	-12(%rbp), %rcx
	movb	%al, -320(%rbp,%rcx)
	jmp	.LBB20_27
.LBB20_23:                              #   in Loop: Header=BB20_8 Depth=2
	movq	24(%rbp), %rax
	movslq	-12(%rbp), %rcx
	movsbl	-160(%rbp,%rcx), %ecx
	subl	$65, %ecx
	movslq	%ecx, %rcx
	movq	(%rax,%rcx,8), %rax
	movslq	-12(%rbp), %rcx
	movsbl	-224(%rbp,%rcx), %ecx
	subl	$65, %ecx
	movslq	%ecx, %rcx
	cmpl	$0, (%rax,%rcx,4)
	jle	.LBB20_25
# %bb.24:                               #   in Loop: Header=BB20_8 Depth=2
	movslq	-12(%rbp), %rax
	movb	$43, -320(%rbp,%rax)
	jmp	.LBB20_26
.LBB20_25:                              #   in Loop: Header=BB20_8 Depth=2
	movslq	-12(%rbp), %rax
	movb	$32, -320(%rbp,%rax)
.LBB20_26:                              #   in Loop: Header=BB20_8 Depth=2
	jmp	.LBB20_27
.LBB20_27:                              #   in Loop: Header=BB20_8 Depth=2
	jmp	.LBB20_29
.LBB20_28:                              #   in Loop: Header=BB20_8 Depth=2
	movslq	-12(%rbp), %rax
	movb	$32, -320(%rbp,%rax)
.LBB20_29:                              #   in Loop: Header=BB20_8 Depth=2
	jmp	.LBB20_30
.LBB20_30:                              #   in Loop: Header=BB20_8 Depth=2
	movl	-12(%rbp), %eax
	addl	$1, %eax
	movl	%eax, -12(%rbp)
	jmp	.LBB20_8
.LBB20_31:                              #   in Loop: Header=BB20_1 Depth=1
	movslq	-12(%rbp), %rax
	movb	$0, -320(%rbp,%rax)
	movl	$0, -20(%rbp)
	movl	$0, -12(%rbp)
.LBB20_32:                              #   Parent Loop BB20_1 Depth=1
                                        # =>  This Inner Loop Header: Depth=2
	movl	-12(%rbp), %eax
	cmpl	-36(%rbp), %eax
	jge	.LBB20_41
# %bb.33:                               #   in Loop: Header=BB20_32 Depth=2
	movslq	-12(%rbp), %rax
	movsbl	-160(%rbp,%rax), %eax
	cmpl	$32, %eax
	je	.LBB20_39
# %bb.34:                               #   in Loop: Header=BB20_32 Depth=2
	movslq	-12(%rbp), %rax
	movsbl	-160(%rbp,%rax), %eax
	cmpl	$46, %eax
	je	.LBB20_39
# %bb.35:                               #   in Loop: Header=BB20_32 Depth=2
	movslq	-12(%rbp), %rax
	movsbl	-160(%rbp,%rax), %eax
	cmpl	$95, %eax
	je	.LBB20_39
# %bb.36:                               #   in Loop: Header=BB20_32 Depth=2
	movslq	-12(%rbp), %rax
	movsbl	-160(%rbp,%rax), %eax
	cmpl	$45, %eax
	je	.LBB20_39
# %bb.37:                               #   in Loop: Header=BB20_32 Depth=2
	movslq	-12(%rbp), %rax
	movsbl	-160(%rbp,%rax), %eax
	cmpl	$126, %eax
	je	.LBB20_39
# %bb.38:                               #   in Loop: Header=BB20_32 Depth=2
	movl	-20(%rbp), %eax
	addl	$1, %eax
	movl	%eax, -20(%rbp)
.LBB20_39:                              #   in Loop: Header=BB20_32 Depth=2
	jmp	.LBB20_40
.LBB20_40:                              #   in Loop: Header=BB20_32 Depth=2
	movl	-12(%rbp), %eax
	addl	$1, %eax
	movl	%eax, -12(%rbp)
	jmp	.LBB20_32
.LBB20_41:                              #   in Loop: Header=BB20_1 Depth=1
	movl	$0, -16(%rbp)
	movl	$0, -12(%rbp)
.LBB20_42:                              #   Parent Loop BB20_1 Depth=1
                                        # =>  This Inner Loop Header: Depth=2
	movl	-12(%rbp), %eax
	cmpl	-32(%rbp), %eax
	jge	.LBB20_51
# %bb.43:                               #   in Loop: Header=BB20_42 Depth=2
	movslq	-12(%rbp), %rax
	movsbl	-224(%rbp,%rax), %eax
	cmpl	$32, %eax
	je	.LBB20_49
# %bb.44:                               #   in Loop: Header=BB20_42 Depth=2
	movslq	-12(%rbp), %rax
	movsbl	-224(%rbp,%rax), %eax
	cmpl	$46, %eax
	je	.LBB20_49
# %bb.45:                               #   in Loop: Header=BB20_42 Depth=2
	movslq	-12(%rbp), %rax
	movsbl	-224(%rbp,%rax), %eax
	cmpl	$95, %eax
	je	.LBB20_49
# %bb.46:                               #   in Loop: Header=BB20_42 Depth=2
	movslq	-12(%rbp), %rax
	movsbl	-224(%rbp,%rax), %eax
	cmpl	$45, %eax
	je	.LBB20_49
# %bb.47:                               #   in Loop: Header=BB20_42 Depth=2
	movslq	-12(%rbp), %rax
	movsbl	-224(%rbp,%rax), %eax
	cmpl	$126, %eax
	je	.LBB20_49
# %bb.48:                               #   in Loop: Header=BB20_42 Depth=2
	movl	-16(%rbp), %eax
	addl	$1, %eax
	movl	%eax, -16(%rbp)
.LBB20_49:                              #   in Loop: Header=BB20_42 Depth=2
	jmp	.LBB20_50
.LBB20_50:                              #   in Loop: Header=BB20_42 Depth=2
	movl	-12(%rbp), %eax
	addl	$1, %eax
	movl	%eax, -12(%rbp)
	jmp	.LBB20_42
.LBB20_51:                              #   in Loop: Header=BB20_1 Depth=1
	movabsq	$.L.str.2.9, %rsi
	movabsq	$.L.str.3.10, %rcx
	leaq	-160(%rbp), %rax
	leaq	-90(%rbp), %r8
	movq	-64(%rbp), %rdi
	movl	32(%rbp), %edx
	movl	-28(%rbp), %r9d
	movl	-28(%rbp), %ebx
	addl	-20(%rbp), %ebx
	subl	$1, %ebx
	movq	%rax, (%rsp)
	movl	%ebx, 8(%rsp)
	movb	$0, %al
	callq	fprintf
	movabsq	$.L.str.4.11, %rsi
	movabsq	$.L.str.3.10, %rcx
	leaq	-320(%rbp), %r8
	movq	-64(%rbp), %rdi
	movl	32(%rbp), %edx
	movb	$0, %al
	callq	fprintf
	movabsq	$.L.str.2.9, %rsi
	movabsq	$.L.str.3.10, %rcx
	leaq	-224(%rbp), %rax
	leaq	-79(%rbp), %r8
	movq	-64(%rbp), %rdi
	movl	32(%rbp), %edx
	movl	-24(%rbp), %r9d
	movl	-24(%rbp), %ebx
	addl	-16(%rbp), %ebx
	subl	$1, %ebx
	movq	%rax, (%rsp)
	movl	%ebx, 8(%rsp)
	movb	$0, %al
	callq	fprintf
	movabsq	$.L.str.5.12, %rsi
	movq	-64(%rbp), %rdi
	movb	$0, %al
	callq	fprintf
	movl	-20(%rbp), %eax
	addl	-28(%rbp), %eax
	movl	%eax, -28(%rbp)
	movl	-16(%rbp), %eax
	addl	-24(%rbp), %eax
	movl	%eax, -24(%rbp)
	jmp	.LBB20_1
.LBB20_52:
	movl	$1, %eax
	addq	$328, %rsp              # imm = 0x148
	popq	%rbx
	popq	%rbp
	retq
.Lfunc_end20:
	.size	WritePairwiseAlignment, .Lfunc_end20-WritePairwiseAlignment
	.cfi_endproc
                                        # -- End function
	.globl	MingapAlignment         # -- Begin function MingapAlignment
	.p2align	4, 0x90
	.type	MingapAlignment,@function
MingapAlignment:                        # @MingapAlignment
	.cfi_startproc
# %bb.0:
	pushq	%rbp
	.cfi_def_cfa_offset 16
	.cfi_offset %rbp, -16
	movq	%rsp, %rbp
	.cfi_def_cfa_register %rbp
	movq	%rdi, -32(%rbp)
	movq	%rsi, -24(%rbp)
	movl	$0, -8(%rbp)
	movl	$0, -12(%rbp)
.LBB21_1:                               # =>This Loop Header: Depth=1
                                        #     Child Loop BB21_3 Depth 2
                                        #     Child Loop BB21_17 Depth 2
	movq	-32(%rbp), %rax
	movq	(%rax), %rax
	movslq	-8(%rbp), %rcx
	movsbl	(%rax,%rcx), %eax
	cmpl	$0, %eax
	je	.LBB21_27
# %bb.2:                                #   in Loop: Header=BB21_1 Depth=1
	movl	$0, -4(%rbp)
.LBB21_3:                               #   Parent Loop BB21_1 Depth=1
                                        # =>  This Inner Loop Header: Depth=2
	movl	-4(%rbp), %eax
	movq	-24(%rbp), %rcx
	cmpl	8(%rcx), %eax
	jge	.LBB21_12
# %bb.4:                                #   in Loop: Header=BB21_3 Depth=2
	movq	-32(%rbp), %rax
	movslq	-4(%rbp), %rcx
	movq	(%rax,%rcx,8), %rax
	movslq	-8(%rbp), %rcx
	movsbl	(%rax,%rcx), %eax
	cmpl	$32, %eax
	je	.LBB21_10
# %bb.5:                                #   in Loop: Header=BB21_3 Depth=2
	movq	-32(%rbp), %rax
	movslq	-4(%rbp), %rcx
	movq	(%rax,%rcx,8), %rax
	movslq	-8(%rbp), %rcx
	movsbl	(%rax,%rcx), %eax
	cmpl	$46, %eax
	je	.LBB21_10
# %bb.6:                                #   in Loop: Header=BB21_3 Depth=2
	movq	-32(%rbp), %rax
	movslq	-4(%rbp), %rcx
	movq	(%rax,%rcx,8), %rax
	movslq	-8(%rbp), %rcx
	movsbl	(%rax,%rcx), %eax
	cmpl	$95, %eax
	je	.LBB21_10
# %bb.7:                                #   in Loop: Header=BB21_3 Depth=2
	movq	-32(%rbp), %rax
	movslq	-4(%rbp), %rcx
	movq	(%rax,%rcx,8), %rax
	movslq	-8(%rbp), %rcx
	movsbl	(%rax,%rcx), %eax
	cmpl	$45, %eax
	je	.LBB21_10
# %bb.8:                                #   in Loop: Header=BB21_3 Depth=2
	movq	-32(%rbp), %rax
	movslq	-4(%rbp), %rcx
	movq	(%rax,%rcx,8), %rax
	movslq	-8(%rbp), %rcx
	movsbl	(%rax,%rcx), %eax
	cmpl	$126, %eax
	je	.LBB21_10
# %bb.9:                                #   in Loop: Header=BB21_1 Depth=1
	jmp	.LBB21_13
.LBB21_10:                              #   in Loop: Header=BB21_3 Depth=2
	jmp	.LBB21_11
.LBB21_11:                              #   in Loop: Header=BB21_3 Depth=2
	movl	-4(%rbp), %eax
	addl	$1, %eax
	movl	%eax, -4(%rbp)
	jmp	.LBB21_3
.LBB21_12:                              # %.loopexit
                                        #   in Loop: Header=BB21_1 Depth=1
	jmp	.LBB21_13
.LBB21_13:                              #   in Loop: Header=BB21_1 Depth=1
	movl	-4(%rbp), %eax
	movq	-24(%rbp), %rcx
	cmpl	8(%rcx), %eax
	jne	.LBB21_15
# %bb.14:                               #   in Loop: Header=BB21_1 Depth=1
	jmp	.LBB21_26
.LBB21_15:                              #   in Loop: Header=BB21_1 Depth=1
	movl	-12(%rbp), %eax
	cmpl	-8(%rbp), %eax
	je	.LBB21_25
# %bb.16:                               #   in Loop: Header=BB21_1 Depth=1
	movl	$0, -4(%rbp)
.LBB21_17:                              #   Parent Loop BB21_1 Depth=1
                                        # =>  This Inner Loop Header: Depth=2
	movl	-4(%rbp), %eax
	movq	-24(%rbp), %rcx
	cmpl	8(%rcx), %eax
	jge	.LBB21_20
# %bb.18:                               #   in Loop: Header=BB21_17 Depth=2
	movq	-32(%rbp), %rax
	movslq	-4(%rbp), %rcx
	movq	(%rax,%rcx,8), %rax
	movslq	-8(%rbp), %rcx
	movb	(%rax,%rcx), %al
	movq	-32(%rbp), %rcx
	movslq	-4(%rbp), %rdx
	movq	(%rcx,%rdx,8), %rcx
	movslq	-12(%rbp), %rdx
	movb	%al, (%rcx,%rdx)
# %bb.19:                               #   in Loop: Header=BB21_17 Depth=2
	movl	-4(%rbp), %eax
	addl	$1, %eax
	movl	%eax, -4(%rbp)
	jmp	.LBB21_17
.LBB21_20:                              #   in Loop: Header=BB21_1 Depth=1
	movq	-24(%rbp), %rax
	cmpq	$0, 24(%rax)
	je	.LBB21_22
# %bb.21:                               #   in Loop: Header=BB21_1 Depth=1
	movq	-24(%rbp), %rax
	movq	24(%rax), %rax
	movslq	-8(%rbp), %rcx
	movb	(%rax,%rcx), %al
	movq	-24(%rbp), %rcx
	movq	24(%rcx), %rcx
	movslq	-12(%rbp), %rdx
	movb	%al, (%rcx,%rdx)
.LBB21_22:                              #   in Loop: Header=BB21_1 Depth=1
	movq	-24(%rbp), %rax
	cmpq	$0, 32(%rax)
	je	.LBB21_24
# %bb.23:                               #   in Loop: Header=BB21_1 Depth=1
	movq	-24(%rbp), %rax
	movq	32(%rax), %rax
	movslq	-8(%rbp), %rcx
	movb	(%rax,%rcx), %al
	movq	-24(%rbp), %rcx
	movq	32(%rcx), %rcx
	movslq	-12(%rbp), %rdx
	movb	%al, (%rcx,%rdx)
.LBB21_24:                              #   in Loop: Header=BB21_1 Depth=1
	jmp	.LBB21_25
.LBB21_25:                              #   in Loop: Header=BB21_1 Depth=1
	movl	-12(%rbp), %eax
	addl	$1, %eax
	movl	%eax, -12(%rbp)
.LBB21_26:                              #   in Loop: Header=BB21_1 Depth=1
	movl	-8(%rbp), %eax
	addl	$1, %eax
	movl	%eax, -8(%rbp)
	jmp	.LBB21_1
.LBB21_27:
	movl	$0, -4(%rbp)
.LBB21_28:                              # =>This Inner Loop Header: Depth=1
	movl	-4(%rbp), %eax
	movq	-24(%rbp), %rcx
	cmpl	8(%rcx), %eax
	jge	.LBB21_31
# %bb.29:                               #   in Loop: Header=BB21_28 Depth=1
	movq	-32(%rbp), %rax
	movslq	-4(%rbp), %rcx
	movq	(%rax,%rcx,8), %rax
	movslq	-12(%rbp), %rcx
	movb	$0, (%rax,%rcx)
# %bb.30:                               #   in Loop: Header=BB21_28 Depth=1
	movl	-4(%rbp), %eax
	addl	$1, %eax
	movl	%eax, -4(%rbp)
	jmp	.LBB21_28
.LBB21_31:
	movl	-12(%rbp), %eax
	movq	-24(%rbp), %rcx
	movl	%eax, 4(%rcx)
	movq	-24(%rbp), %rax
	cmpq	$0, 24(%rax)
	je	.LBB21_33
# %bb.32:
	movq	-24(%rbp), %rax
	movq	24(%rax), %rax
	movslq	-12(%rbp), %rcx
	movb	$0, (%rax,%rcx)
.LBB21_33:
	movq	-24(%rbp), %rax
	cmpq	$0, 32(%rax)
	je	.LBB21_35
# %bb.34:
	movq	-24(%rbp), %rax
	movq	32(%rax), %rax
	movslq	-12(%rbp), %rcx
	movb	$0, (%rax,%rcx)
.LBB21_35:
	movl	$1, %eax
	popq	%rbp
	retq
.Lfunc_end21:
	.size	MingapAlignment, .Lfunc_end21-MingapAlignment
	.cfi_endproc
                                        # -- End function
	.section	.rodata.cst8,"aM",@progbits,8
	.p2align	3               # -- Begin function RandomAlignment
.LCPI22_0:
	.quad	4607182418800017408     # double 1
	.text
	.globl	RandomAlignment
	.p2align	4, 0x90
	.type	RandomAlignment,@function
RandomAlignment:                        # @RandomAlignment
	.cfi_startproc
# %bb.0:
	pushq	%rbp
	.cfi_def_cfa_offset 16
	.cfi_offset %rbp, -16
	movq	%rsp, %rbp
	.cfi_def_cfa_register %rbp
	subq	$112, %rsp
	movabsq	$.L.str.7, %rax
	movq	%rdi, -96(%rbp)
	movq	%rsi, -112(%rbp)
	movl	%edx, -16(%rbp)
	movss	%xmm0, -32(%rbp)
	movss	%xmm1, -52(%rbp)
	movq	%rcx, -104(%rbp)
	movq	%r8, -88(%rbp)
	movslq	-16(%rbp), %rdx
	shlq	$2, %rdx
	movq	%rax, %rdi
	movl	$530, %esi              # imm = 0x212
	callq	sre_malloc
	movq	%rax, -72(%rbp)
	movl	$0, -12(%rbp)
	movl	$9999999, -36(%rbp)     # imm = 0x98967F
	movl	$0, -4(%rbp)
.LBB22_1:                               # =>This Inner Loop Header: Depth=1
	movl	-4(%rbp), %eax
	cmpl	-16(%rbp), %eax
	jge	.LBB22_7
# %bb.2:                                #   in Loop: Header=BB22_1 Depth=1
	movq	-96(%rbp), %rax
	movslq	-4(%rbp), %rcx
	movq	(%rax,%rcx,8), %rdi
	callq	strlen
	movq	-72(%rbp), %rcx
	movslq	-4(%rbp), %rdx
	movl	%eax, (%rcx,%rdx,4)
	movq	-72(%rbp), %rax
	movslq	-4(%rbp), %rcx
	movl	(%rax,%rcx,4), %eax
	addl	-12(%rbp), %eax
	movl	%eax, -12(%rbp)
	movq	-72(%rbp), %rax
	movslq	-4(%rbp), %rcx
	movl	(%rax,%rcx,4), %eax
	cmpl	-36(%rbp), %eax
	jge	.LBB22_4
# %bb.3:                                #   in Loop: Header=BB22_1 Depth=1
	movq	-72(%rbp), %rax
	movslq	-4(%rbp), %rcx
	movl	(%rax,%rcx,4), %eax
	jmp	.LBB22_5
.LBB22_4:                               #   in Loop: Header=BB22_1 Depth=1
	movl	-36(%rbp), %eax
.LBB22_5:                               #   in Loop: Header=BB22_1 Depth=1
	movl	%eax, -36(%rbp)
# %bb.6:                                #   in Loop: Header=BB22_1 Depth=1
	movl	-4(%rbp), %eax
	addl	$1, %eax
	movl	%eax, -4(%rbp)
	jmp	.LBB22_1
.LBB22_7:
	movsd	.LCPI22_0(%rip), %xmm0  # xmm0 = mem[0],zero
	movl	-12(%rbp), %eax
	cvtsi2ssl	%eax, %xmm1
	cvtss2sd	%xmm1, %xmm1
	movss	-32(%rbp), %xmm2        # xmm2 = mem[0],zero,zero,zero
	cvtss2sd	%xmm2, %xmm2
	movss	-52(%rbp), %xmm3        # xmm3 = mem[0],zero,zero,zero
	cvtss2sd	%xmm3, %xmm3
	movaps	%xmm0, %xmm4
	subsd	%xmm3, %xmm4
	movaps	%xmm0, %xmm3
	divsd	%xmm4, %xmm3
	movaps	%xmm0, %xmm4
	addsd	%xmm3, %xmm4
	mulsd	%xmm4, %xmm2
	addsd	%xmm2, %xmm0
	divsd	%xmm0, %xmm1
	cvttsd2si	%xmm1, %eax
	movl	%eax, -12(%rbp)
	movl	-16(%rbp), %ecx
	movl	-12(%rbp), %eax
	cltd
	idivl	%ecx
	movl	%eax, -12(%rbp)
	movl	-12(%rbp), %eax
	cmpl	-36(%rbp), %eax
	jle	.LBB22_9
# %bb.8:
	movl	-36(%rbp), %eax
	movl	%eax, -12(%rbp)
.LBB22_9:
	movabsq	$.L.str.7, %rdi
	movslq	-16(%rbp), %rdx
	shlq	$3, %rdx
	movl	$545, %esi              # imm = 0x221
	callq	sre_malloc
	movabsq	$.L.str.7, %rdi
	movq	%rax, -48(%rbp)
	movl	-12(%rbp), %eax
	addl	$1, %eax
	movslq	%eax, %rdx
	shlq	$2, %rdx
	movl	$546, %esi              # imm = 0x222
	callq	sre_malloc
	movq	%rax, -64(%rbp)
	movl	$0, -4(%rbp)
.LBB22_10:                              # =>This Loop Header: Depth=1
                                        #     Child Loop BB22_12 Depth 2
	movl	-4(%rbp), %eax
	cmpl	-16(%rbp), %eax
	jge	.LBB22_17
# %bb.11:                               #   in Loop: Header=BB22_10 Depth=1
	movabsq	$.L.str.7, %rdi
	movl	-12(%rbp), %eax
	addl	$1, %eax
	movslq	%eax, %rdx
	shlq	$2, %rdx
	movl	$549, %esi              # imm = 0x225
	callq	sre_malloc
	movq	-48(%rbp), %rcx
	movslq	-4(%rbp), %rdx
	movq	%rax, (%rcx,%rdx,8)
	movl	$0, -20(%rbp)
.LBB22_12:                              #   Parent Loop BB22_10 Depth=1
                                        # =>  This Inner Loop Header: Depth=2
	movl	-20(%rbp), %eax
	cmpl	-12(%rbp), %eax
	jg	.LBB22_15
# %bb.13:                               #   in Loop: Header=BB22_12 Depth=2
	movq	-48(%rbp), %rax
	movslq	-4(%rbp), %rcx
	movq	(%rax,%rcx,8), %rax
	movslq	-20(%rbp), %rcx
	movl	$0, (%rax,%rcx,4)
# %bb.14:                               #   in Loop: Header=BB22_12 Depth=2
	movl	-20(%rbp), %eax
	addl	$1, %eax
	movl	%eax, -20(%rbp)
	jmp	.LBB22_12
.LBB22_15:                              #   in Loop: Header=BB22_10 Depth=1
	jmp	.LBB22_16
.LBB22_16:                              #   in Loop: Header=BB22_10 Depth=1
	movl	-4(%rbp), %eax
	addl	$1, %eax
	movl	%eax, -4(%rbp)
	jmp	.LBB22_10
.LBB22_17:
	movsd	.LCPI22_0(%rip), %xmm0  # xmm0 = mem[0],zero
	movss	-32(%rbp), %xmm1        # xmm1 = mem[0],zero,zero,zero
	movss	-32(%rbp), %xmm2        # xmm2 = mem[0],zero,zero,zero
	addss	-52(%rbp), %xmm2
	divss	%xmm2, %xmm1
	movss	%xmm1, -32(%rbp)
	movss	-32(%rbp), %xmm1        # xmm1 = mem[0],zero,zero,zero
	cvtss2sd	%xmm1, %xmm1
	subsd	%xmm1, %xmm0
	cvtsd2ss	%xmm0, %xmm0
	movss	%xmm0, -52(%rbp)
	movl	$0, -4(%rbp)
.LBB22_18:                              # =>This Loop Header: Depth=1
                                        #     Child Loop BB22_20 Depth 2
	movl	-4(%rbp), %eax
	cmpl	-16(%rbp), %eax
	jge	.LBB22_28
# %bb.19:                               #   in Loop: Header=BB22_18 Depth=1
	movl	$-1, -8(%rbp)
	movl	$0, -20(%rbp)
.LBB22_20:                              #   Parent Loop BB22_18 Depth=1
                                        # =>  This Inner Loop Header: Depth=2
	movl	-20(%rbp), %eax
	movq	-72(%rbp), %rcx
	movslq	-4(%rbp), %rdx
	movl	(%rcx,%rdx,4), %ecx
	subl	-12(%rbp), %ecx
	cmpl	%ecx, %eax
	jge	.LBB22_26
# %bb.21:                               #   in Loop: Header=BB22_20 Depth=2
	callq	sre_random
	movss	-32(%rbp), %xmm1        # xmm1 = mem[0],zero,zero,zero
	cvtss2sd	%xmm1, %xmm1
	ucomisd	%xmm0, %xmm1
	ja	.LBB22_23
# %bb.22:                               #   in Loop: Header=BB22_20 Depth=2
	cmpl	$-1, -8(%rbp)
	jne	.LBB22_24
.LBB22_23:                              #   in Loop: Header=BB22_20 Depth=2
	callq	sre_random
	movl	-12(%rbp), %eax
	addl	$1, %eax
	cvtsi2sdl	%eax, %xmm1
	mulsd	%xmm1, %xmm0
	cvttsd2si	%xmm0, %eax
	movl	%eax, -8(%rbp)
.LBB22_24:                              #   in Loop: Header=BB22_20 Depth=2
	movq	-48(%rbp), %rax
	movslq	-4(%rbp), %rcx
	movq	(%rax,%rcx,8), %rax
	movslq	-8(%rbp), %rcx
	movl	(%rax,%rcx,4), %edx
	addl	$1, %edx
	movl	%edx, (%rax,%rcx,4)
# %bb.25:                               #   in Loop: Header=BB22_20 Depth=2
	movl	-20(%rbp), %eax
	addl	$1, %eax
	movl	%eax, -20(%rbp)
	jmp	.LBB22_20
.LBB22_26:                              #   in Loop: Header=BB22_18 Depth=1
	jmp	.LBB22_27
.LBB22_27:                              #   in Loop: Header=BB22_18 Depth=1
	movl	-4(%rbp), %eax
	addl	$1, %eax
	movl	%eax, -4(%rbp)
	jmp	.LBB22_18
.LBB22_28:
	movl	-12(%rbp), %eax
	movl	%eax, -40(%rbp)
	movl	$0, -8(%rbp)
.LBB22_29:                              # =>This Loop Header: Depth=1
                                        #     Child Loop BB22_31 Depth 2
	movl	-8(%rbp), %eax
	cmpl	-12(%rbp), %eax
	jg	.LBB22_38
# %bb.30:                               #   in Loop: Header=BB22_29 Depth=1
	movq	-64(%rbp), %rax
	movslq	-8(%rbp), %rcx
	movl	$0, (%rax,%rcx,4)
	movl	$0, -4(%rbp)
.LBB22_31:                              #   Parent Loop BB22_29 Depth=1
                                        # =>  This Inner Loop Header: Depth=2
	movl	-4(%rbp), %eax
	cmpl	-16(%rbp), %eax
	jge	.LBB22_36
# %bb.32:                               #   in Loop: Header=BB22_31 Depth=2
	movq	-48(%rbp), %rax
	movslq	-4(%rbp), %rcx
	movq	(%rax,%rcx,8), %rax
	movslq	-8(%rbp), %rcx
	movl	(%rax,%rcx,4), %eax
	movq	-64(%rbp), %rcx
	movslq	-8(%rbp), %rdx
	cmpl	(%rcx,%rdx,4), %eax
	jle	.LBB22_34
# %bb.33:                               #   in Loop: Header=BB22_31 Depth=2
	movq	-48(%rbp), %rax
	movslq	-4(%rbp), %rcx
	movq	(%rax,%rcx,8), %rax
	movslq	-8(%rbp), %rcx
	movl	(%rax,%rcx,4), %eax
	movq	-64(%rbp), %rcx
	movslq	-8(%rbp), %rdx
	movl	%eax, (%rcx,%rdx,4)
.LBB22_34:                              #   in Loop: Header=BB22_31 Depth=2
	jmp	.LBB22_35
.LBB22_35:                              #   in Loop: Header=BB22_31 Depth=2
	movl	-4(%rbp), %eax
	addl	$1, %eax
	movl	%eax, -4(%rbp)
	jmp	.LBB22_31
.LBB22_36:                              #   in Loop: Header=BB22_29 Depth=1
	movq	-64(%rbp), %rax
	movslq	-8(%rbp), %rcx
	movl	(%rax,%rcx,4), %eax
	addl	-40(%rbp), %eax
	movl	%eax, -40(%rbp)
# %bb.37:                               #   in Loop: Header=BB22_29 Depth=1
	movl	-8(%rbp), %eax
	addl	$1, %eax
	movl	%eax, -8(%rbp)
	jmp	.LBB22_29
.LBB22_38:
	movabsq	$.L.str.7, %rdi
	movslq	-16(%rbp), %rdx
	shlq	$3, %rdx
	movl	$581, %esi              # imm = 0x245
	callq	sre_malloc
	movq	%rax, -80(%rbp)
	movl	$0, -4(%rbp)
.LBB22_39:                              # =>This Inner Loop Header: Depth=1
	movl	-4(%rbp), %eax
	cmpl	-16(%rbp), %eax
	jge	.LBB22_42
# %bb.40:                               #   in Loop: Header=BB22_39 Depth=1
	movabsq	$.L.str.7, %rdi
	movl	-40(%rbp), %eax
	addl	$1, %eax
	movslq	%eax, %rdx
	shlq	$0, %rdx
	movl	$583, %esi              # imm = 0x247
	callq	sre_malloc
	movq	-80(%rbp), %rcx
	movslq	-4(%rbp), %rdx
	movq	%rax, (%rcx,%rdx,8)
# %bb.41:                               #   in Loop: Header=BB22_39 Depth=1
	movl	-4(%rbp), %eax
	addl	$1, %eax
	movl	%eax, -4(%rbp)
	jmp	.LBB22_39
.LBB22_42:
	movl	$0, -4(%rbp)
.LBB22_43:                              # =>This Loop Header: Depth=1
                                        #     Child Loop BB22_45 Depth 2
                                        #       Child Loop BB22_47 Depth 3
                                        #       Child Loop BB22_51 Depth 3
	movl	-4(%rbp), %eax
	cmpl	-16(%rbp), %eax
	jge	.LBB22_60
# %bb.44:                               #   in Loop: Header=BB22_43 Depth=1
	movl	$0, -20(%rbp)
	movl	$0, -8(%rbp)
	movl	$0, -28(%rbp)
.LBB22_45:                              #   Parent Loop BB22_43 Depth=1
                                        # =>  This Loop Header: Depth=2
                                        #       Child Loop BB22_47 Depth 3
                                        #       Child Loop BB22_51 Depth 3
	movl	-28(%rbp), %eax
	cmpl	-12(%rbp), %eax
	jg	.LBB22_58
# %bb.46:                               #   in Loop: Header=BB22_45 Depth=2
	movl	$0, -24(%rbp)
.LBB22_47:                              #   Parent Loop BB22_43 Depth=1
                                        #     Parent Loop BB22_45 Depth=2
                                        # =>    This Inner Loop Header: Depth=3
	movl	-24(%rbp), %eax
	movq	-48(%rbp), %rcx
	movslq	-4(%rbp), %rdx
	movq	(%rcx,%rdx,8), %rcx
	movslq	-28(%rbp), %rdx
	cmpl	(%rcx,%rdx,4), %eax
	jge	.LBB22_50
# %bb.48:                               #   in Loop: Header=BB22_47 Depth=3
	movq	-96(%rbp), %rax
	movslq	-4(%rbp), %rcx
	movq	(%rax,%rcx,8), %rax
	movl	-20(%rbp), %ecx
	movl	%ecx, %edx
	addl	$1, %edx
	movl	%edx, -20(%rbp)
	movslq	%ecx, %rcx
	movb	(%rax,%rcx), %al
	movq	-80(%rbp), %rcx
	movslq	-4(%rbp), %rdx
	movq	(%rcx,%rdx,8), %rcx
	movl	-8(%rbp), %edx
	movl	%edx, %esi
	addl	$1, %esi
	movl	%esi, -8(%rbp)
	movslq	%edx, %rdx
	movb	%al, (%rcx,%rdx)
# %bb.49:                               #   in Loop: Header=BB22_47 Depth=3
	movl	-24(%rbp), %eax
	addl	$1, %eax
	movl	%eax, -24(%rbp)
	jmp	.LBB22_47
.LBB22_50:                              #   in Loop: Header=BB22_45 Depth=2
	jmp	.LBB22_51
.LBB22_51:                              #   Parent Loop BB22_43 Depth=1
                                        #     Parent Loop BB22_45 Depth=2
                                        # =>    This Inner Loop Header: Depth=3
	movl	-24(%rbp), %eax
	movq	-64(%rbp), %rcx
	movslq	-28(%rbp), %rdx
	cmpl	(%rcx,%rdx,4), %eax
	jge	.LBB22_54
# %bb.52:                               #   in Loop: Header=BB22_51 Depth=3
	movq	-80(%rbp), %rax
	movslq	-4(%rbp), %rcx
	movq	(%rax,%rcx,8), %rax
	movl	-8(%rbp), %ecx
	movl	%ecx, %edx
	addl	$1, %edx
	movl	%edx, -8(%rbp)
	movslq	%ecx, %rcx
	movb	$32, (%rax,%rcx)
# %bb.53:                               #   in Loop: Header=BB22_51 Depth=3
	movl	-24(%rbp), %eax
	addl	$1, %eax
	movl	%eax, -24(%rbp)
	jmp	.LBB22_51
.LBB22_54:                              #   in Loop: Header=BB22_45 Depth=2
	movl	-28(%rbp), %eax
	cmpl	-12(%rbp), %eax
	je	.LBB22_56
# %bb.55:                               #   in Loop: Header=BB22_45 Depth=2
	movq	-96(%rbp), %rax
	movslq	-4(%rbp), %rcx
	movq	(%rax,%rcx,8), %rax
	movl	-20(%rbp), %ecx
	movl	%ecx, %edx
	addl	$1, %edx
	movl	%edx, -20(%rbp)
	movslq	%ecx, %rcx
	movb	(%rax,%rcx), %al
	movq	-80(%rbp), %rcx
	movslq	-4(%rbp), %rdx
	movq	(%rcx,%rdx,8), %rcx
	movl	-8(%rbp), %edx
	movl	%edx, %esi
	addl	$1, %esi
	movl	%esi, -8(%rbp)
	movslq	%edx, %rdx
	movb	%al, (%rcx,%rdx)
.LBB22_56:                              #   in Loop: Header=BB22_45 Depth=2
	jmp	.LBB22_57
.LBB22_57:                              #   in Loop: Header=BB22_45 Depth=2
	movl	-28(%rbp), %eax
	addl	$1, %eax
	movl	%eax, -28(%rbp)
	jmp	.LBB22_45
.LBB22_58:                              #   in Loop: Header=BB22_43 Depth=1
	movq	-80(%rbp), %rax
	movslq	-4(%rbp), %rcx
	movq	(%rax,%rcx,8), %rax
	movslq	-40(%rbp), %rcx
	movb	$0, (%rax,%rcx)
# %bb.59:                               #   in Loop: Header=BB22_43 Depth=1
	movl	-4(%rbp), %eax
	addl	$1, %eax
	movl	%eax, -4(%rbp)
	jmp	.LBB22_43
.LBB22_60:
	movabsq	$.L.str.7, %rdi
	movq	-88(%rbp), %rax
	movl	$0, (%rax)
	movl	-40(%rbp), %eax
	movq	-88(%rbp), %rcx
	movl	%eax, 4(%rcx)
	movl	-16(%rbp), %eax
	movq	-88(%rbp), %rcx
	movl	%eax, 8(%rcx)
	movslq	-16(%rbp), %rax
	imulq	$360, %rax, %rdx        # imm = 0x168
	movl	$603, %esi              # imm = 0x25B
	callq	sre_malloc
	movq	-88(%rbp), %rcx
	movq	%rax, 40(%rcx)
	movl	$0, -4(%rbp)
.LBB22_61:                              # =>This Inner Loop Header: Depth=1
	movl	-4(%rbp), %eax
	cmpl	-16(%rbp), %eax
	jge	.LBB22_64
# %bb.62:                               #   in Loop: Header=BB22_61 Depth=1
	movq	-88(%rbp), %rax
	movq	40(%rax), %rdi
	movslq	-4(%rbp), %rax
	imulq	$360, %rax, %rax        # imm = 0x168
	addq	%rax, %rdi
	movq	-112(%rbp), %rsi
	movslq	-4(%rbp), %rax
	imulq	$360, %rax, %rax        # imm = 0x168
	addq	%rax, %rsi
	callq	SeqinfoCopy
# %bb.63:                               #   in Loop: Header=BB22_61 Depth=1
	movl	-4(%rbp), %eax
	addl	$1, %eax
	movl	%eax, -4(%rbp)
	jmp	.LBB22_61
.LBB22_64:
	movq	-72(%rbp), %rdi
	callq	free
	movq	-64(%rbp), %rdi
	callq	free
	movq	-48(%rbp), %rdi
	movl	-16(%rbp), %esi
	callq	Free2DArray
	movq	-80(%rbp), %rax
	movq	-104(%rbp), %rcx
	movq	%rax, (%rcx)
	movl	$1, %eax
	addq	$112, %rsp
	popq	%rbp
	retq
.Lfunc_end22:
	.size	RandomAlignment, .Lfunc_end22-RandomAlignment
	.cfi_endproc
                                        # -- End function
	.globl	AlignmentHomogenousGapsym # -- Begin function AlignmentHomogenousGapsym
	.p2align	4, 0x90
	.type	AlignmentHomogenousGapsym,@function
AlignmentHomogenousGapsym:              # @AlignmentHomogenousGapsym
	.cfi_startproc
# %bb.0:
	pushq	%rbp
	.cfi_def_cfa_offset 16
	.cfi_offset %rbp, -16
	movq	%rsp, %rbp
	.cfi_def_cfa_register %rbp
	movq	%rdi, -24(%rbp)
	movl	%esi, -32(%rbp)
	movl	%edx, -28(%rbp)
	movb	%cl, -9(%rbp)
	movl	$0, -8(%rbp)
.LBB23_1:                               # =>This Loop Header: Depth=1
                                        #     Child Loop BB23_3 Depth 2
	movl	-8(%rbp), %eax
	cmpl	-32(%rbp), %eax
	jge	.LBB23_14
# %bb.2:                                #   in Loop: Header=BB23_1 Depth=1
	movl	$0, -4(%rbp)
.LBB23_3:                               #   Parent Loop BB23_1 Depth=1
                                        # =>  This Inner Loop Header: Depth=2
	movl	-4(%rbp), %eax
	cmpl	-28(%rbp), %eax
	jge	.LBB23_12
# %bb.4:                                #   in Loop: Header=BB23_3 Depth=2
	movq	-24(%rbp), %rax
	movslq	-8(%rbp), %rcx
	movq	(%rax,%rcx,8), %rax
	movslq	-4(%rbp), %rcx
	movsbl	(%rax,%rcx), %eax
	cmpl	$32, %eax
	je	.LBB23_9
# %bb.5:                                #   in Loop: Header=BB23_3 Depth=2
	movq	-24(%rbp), %rax
	movslq	-8(%rbp), %rcx
	movq	(%rax,%rcx,8), %rax
	movslq	-4(%rbp), %rcx
	movsbl	(%rax,%rcx), %eax
	cmpl	$46, %eax
	je	.LBB23_9
# %bb.6:                                #   in Loop: Header=BB23_3 Depth=2
	movq	-24(%rbp), %rax
	movslq	-8(%rbp), %rcx
	movq	(%rax,%rcx,8), %rax
	movslq	-4(%rbp), %rcx
	movsbl	(%rax,%rcx), %eax
	cmpl	$95, %eax
	je	.LBB23_9
# %bb.7:                                #   in Loop: Header=BB23_3 Depth=2
	movq	-24(%rbp), %rax
	movslq	-8(%rbp), %rcx
	movq	(%rax,%rcx,8), %rax
	movslq	-4(%rbp), %rcx
	movsbl	(%rax,%rcx), %eax
	cmpl	$45, %eax
	je	.LBB23_9
# %bb.8:                                #   in Loop: Header=BB23_3 Depth=2
	movq	-24(%rbp), %rax
	movslq	-8(%rbp), %rcx
	movq	(%rax,%rcx,8), %rax
	movslq	-4(%rbp), %rcx
	movsbl	(%rax,%rcx), %eax
	cmpl	$126, %eax
	jne	.LBB23_10
.LBB23_9:                               #   in Loop: Header=BB23_3 Depth=2
	movb	-9(%rbp), %al
	movq	-24(%rbp), %rcx
	movslq	-8(%rbp), %rdx
	movq	(%rcx,%rdx,8), %rcx
	movslq	-4(%rbp), %rdx
	movb	%al, (%rcx,%rdx)
.LBB23_10:                              #   in Loop: Header=BB23_3 Depth=2
	jmp	.LBB23_11
.LBB23_11:                              #   in Loop: Header=BB23_3 Depth=2
	movl	-4(%rbp), %eax
	addl	$1, %eax
	movl	%eax, -4(%rbp)
	jmp	.LBB23_3
.LBB23_12:                              #   in Loop: Header=BB23_1 Depth=1
	jmp	.LBB23_13
.LBB23_13:                              #   in Loop: Header=BB23_1 Depth=1
	movl	-8(%rbp), %eax
	addl	$1, %eax
	movl	%eax, -8(%rbp)
	jmp	.LBB23_1
.LBB23_14:
	popq	%rbp
	retq
.Lfunc_end23:
	.size	AlignmentHomogenousGapsym, .Lfunc_end23-AlignmentHomogenousGapsym
	.cfi_endproc
                                        # -- End function
	.globl	DetermineAlphabet       # -- Begin function DetermineAlphabet
	.p2align	4, 0x90
	.type	DetermineAlphabet,@function
DetermineAlphabet:                      # @DetermineAlphabet
	.cfi_startproc
# %bb.0:
	pushq	%rbp
	.cfi_def_cfa_offset 16
	.cfi_offset %rbp, -16
	movq	%rsp, %rbp
	.cfi_def_cfa_register %rbp
	subq	$32, %rsp
	movq	%rdi, -32(%rbp)
	movl	%esi, -24(%rbp)
	movl	$0, -12(%rbp)
	movl	$0, -8(%rbp)
	movl	$0, -4(%rbp)
	movl	$0, -16(%rbp)
	movl	$0, -20(%rbp)
.LBB24_1:                               # =>This Inner Loop Header: Depth=1
	movl	-20(%rbp), %eax
	cmpl	-24(%rbp), %eax
	jge	.LBB24_11
# %bb.2:                                #   in Loop: Header=BB24_1 Depth=1
	movq	-32(%rbp), %rax
	movslq	-20(%rbp), %rcx
	movq	(%rax,%rcx,8), %rdi
	callq	Seqtype
	movl	%eax, %ecx
	subl	$3, %eax
	ja	.LBB24_8
# %bb.3:                                #   in Loop: Header=BB24_1 Depth=1
	movq	.LJTI24_0(,%rcx,8), %rax
	jmpq	*%rax
.LBB24_4:                               #   in Loop: Header=BB24_1 Depth=1
	movl	-4(%rbp), %eax
	addl	$1, %eax
	movl	%eax, -4(%rbp)
	jmp	.LBB24_9
.LBB24_5:                               #   in Loop: Header=BB24_1 Depth=1
	movl	-4(%rbp), %eax
	addl	$1, %eax
	movl	%eax, -4(%rbp)
	jmp	.LBB24_9
.LBB24_6:                               #   in Loop: Header=BB24_1 Depth=1
	movl	-8(%rbp), %eax
	addl	$1, %eax
	movl	%eax, -8(%rbp)
	jmp	.LBB24_9
.LBB24_7:                               #   in Loop: Header=BB24_1 Depth=1
	movl	-16(%rbp), %eax
	addl	$1, %eax
	movl	%eax, -16(%rbp)
	jmp	.LBB24_9
.LBB24_8:                               #   in Loop: Header=BB24_1 Depth=1
	movabsq	$.L.str.13, %rdi
	movb	$0, %al
	callq	Die
.LBB24_9:                               #   in Loop: Header=BB24_1 Depth=1
	jmp	.LBB24_10
.LBB24_10:                              #   in Loop: Header=BB24_1 Depth=1
	movl	-20(%rbp), %eax
	addl	$1, %eax
	movl	%eax, -20(%rbp)
	jmp	.LBB24_1
.LBB24_11:
	movl	-4(%rbp), %eax
	cmpl	-24(%rbp), %eax
	jne	.LBB24_13
# %bb.12:
	movl	$2, -12(%rbp)
	jmp	.LBB24_25
.LBB24_13:
	movl	-8(%rbp), %eax
	cmpl	-24(%rbp), %eax
	jne	.LBB24_15
# %bb.14:
	movl	$3, -12(%rbp)
	jmp	.LBB24_24
.LBB24_15:
	movl	-4(%rbp), %eax
	cmpl	-8(%rbp), %eax
	jle	.LBB24_18
# %bb.16:
	movl	-4(%rbp), %eax
	cmpl	-16(%rbp), %eax
	jle	.LBB24_18
# %bb.17:
	movabsq	$.L.str.1.14, %rdi
	movb	$0, %al
	callq	Warn
	movl	$2, -12(%rbp)
	jmp	.LBB24_23
.LBB24_18:
	movl	-8(%rbp), %eax
	cmpl	-4(%rbp), %eax
	jle	.LBB24_21
# %bb.19:
	movl	-8(%rbp), %eax
	cmpl	-16(%rbp), %eax
	jle	.LBB24_21
# %bb.20:
	movabsq	$.L.str.2.15, %rdi
	movb	$0, %al
	callq	Warn
	movl	$3, -12(%rbp)
	jmp	.LBB24_22
.LBB24_21:
	movabsq	$.L.str.3.16, %rdi
	movb	$0, %al
	callq	Die
.LBB24_22:
	jmp	.LBB24_23
.LBB24_23:
	jmp	.LBB24_24
.LBB24_24:
	jmp	.LBB24_25
.LBB24_25:
	movl	-12(%rbp), %edi
	callq	SetAlphabet
	addq	$32, %rsp
	popq	%rbp
	retq
.Lfunc_end24:
	.size	DetermineAlphabet, .Lfunc_end24-DetermineAlphabet
	.cfi_endproc
	.section	.rodata,"a",@progbits
	.p2align	3
.LJTI24_0:
	.quad	.LBB24_7
	.quad	.LBB24_5
	.quad	.LBB24_4
	.quad	.LBB24_6
                                        # -- End function
	.text
	.globl	SetAlphabet             # -- Begin function SetAlphabet
	.p2align	4, 0x90
	.type	SetAlphabet,@function
SetAlphabet:                            # @SetAlphabet
	.cfi_startproc
# %bb.0:
	pushq	%rbp
	.cfi_def_cfa_offset 16
	.cfi_offset %rbp, -16
	movq	%rsp, %rbp
	.cfi_def_cfa_register %rbp
	subq	$16, %rsp
	movl	%edi, -8(%rbp)
	cmpl	$0, Alphabet_type
	je	.LBB25_4
# %bb.1:
	movl	-8(%rbp), %eax
	cmpl	Alphabet_type, %eax
	je	.LBB25_3
# %bb.2:
	movabsq	$.L.str.4.17, %rdi
	movb	$0, %al
	callq	Die
.LBB25_3:
	jmp	.LBB25_25
.LBB25_4:
	movl	-8(%rbp), %eax
	movl	%eax, %ecx
	subl	$2, %ecx
	je	.LBB25_15
	jmp	.LBB25_5
.LBB25_5:
	subl	$3, %eax
	jne	.LBB25_24
	jmp	.LBB25_6
.LBB25_6:
	movl	-8(%rbp), %eax
	movl	%eax, Alphabet_type
	movl	$Alphabet, %edi
	movl	$.L.str.5.18, %esi
	callq	strcpy
	movl	$20, Alphabet_size
	movl	$24, Alphabet_iupac
	movl	$0, -4(%rbp)
.LBB25_7:                               # =>This Inner Loop Header: Depth=1
	movl	-4(%rbp), %eax
	cmpl	Alphabet_iupac, %eax
	jge	.LBB25_10
# %bb.8:                                #   in Loop: Header=BB25_7 Depth=1
	movabsq	$Degenerate, %rdi
	movslq	-4(%rbp), %rax
	imulq	$20, %rax, %rax
	addq	%rax, %rdi
	movslq	Alphabet_size, %rdx
	xorl	%esi, %esi
	callq	memset
# %bb.9:                                #   in Loop: Header=BB25_7 Depth=1
	movl	-4(%rbp), %eax
	addl	$1, %eax
	movl	%eax, -4(%rbp)
	jmp	.LBB25_7
.LBB25_10:
	movl	$0, -4(%rbp)
.LBB25_11:                              # =>This Inner Loop Header: Depth=1
	movl	-4(%rbp), %eax
	cmpl	Alphabet_size, %eax
	jge	.LBB25_14
# %bb.12:                               #   in Loop: Header=BB25_11 Depth=1
	movabsq	$Degenerate, %rax
	movslq	-4(%rbp), %rcx
	imulq	$20, %rcx, %rcx
	addq	%rcx, %rax
	movslq	-4(%rbp), %rcx
	movb	$1, (%rax,%rcx)
	movslq	-4(%rbp), %rax
	movl	$1, DegenCount(,%rax,4)
# %bb.13:                               #   in Loop: Header=BB25_11 Depth=1
	movl	-4(%rbp), %eax
	addl	$1, %eax
	movl	%eax, -4(%rbp)
	jmp	.LBB25_11
.LBB25_14:
	movabsq	$.L.str.6.19, %rsi
	movl	$85, %edi
	callq	set_degenerate
	movabsq	$.L.str.7.20, %rsi
	movl	$66, %edi
	callq	set_degenerate
	movabsq	$.L.str.8, %rsi
	movl	$90, %edi
	callq	set_degenerate
	movabsq	$.L.str.9, %rsi
	movl	$88, %edi
	callq	set_degenerate
	jmp	.LBB25_25
.LBB25_15:
	movl	-8(%rbp), %eax
	movl	%eax, Alphabet_type
	movl	$Alphabet, %edi
	movl	$.L.str.10, %esi
	callq	strcpy
	movl	$4, Alphabet_size
	movl	$17, Alphabet_iupac
	movl	$0, -4(%rbp)
.LBB25_16:                              # =>This Inner Loop Header: Depth=1
	movl	-4(%rbp), %eax
	cmpl	Alphabet_iupac, %eax
	jge	.LBB25_19
# %bb.17:                               #   in Loop: Header=BB25_16 Depth=1
	movabsq	$Degenerate, %rdi
	movslq	-4(%rbp), %rax
	imulq	$20, %rax, %rax
	addq	%rax, %rdi
	movslq	Alphabet_size, %rdx
	xorl	%esi, %esi
	callq	memset
# %bb.18:                               #   in Loop: Header=BB25_16 Depth=1
	movl	-4(%rbp), %eax
	addl	$1, %eax
	movl	%eax, -4(%rbp)
	jmp	.LBB25_16
.LBB25_19:
	movl	$0, -4(%rbp)
.LBB25_20:                              # =>This Inner Loop Header: Depth=1
	movl	-4(%rbp), %eax
	cmpl	Alphabet_size, %eax
	jge	.LBB25_23
# %bb.21:                               #   in Loop: Header=BB25_20 Depth=1
	movabsq	$Degenerate, %rax
	movslq	-4(%rbp), %rcx
	imulq	$20, %rcx, %rcx
	addq	%rcx, %rax
	movslq	-4(%rbp), %rcx
	movb	$1, (%rax,%rcx)
	movslq	-4(%rbp), %rax
	movl	$1, DegenCount(,%rax,4)
# %bb.22:                               #   in Loop: Header=BB25_20 Depth=1
	movl	-4(%rbp), %eax
	addl	$1, %eax
	movl	%eax, -4(%rbp)
	jmp	.LBB25_20
.LBB25_23:
	movabsq	$.L.str.11, %rsi
	movl	$85, %edi
	callq	set_degenerate
	movabsq	$.L.str.12, %rsi
	movl	$78, %edi
	callq	set_degenerate
	movabsq	$.L.str.12, %rsi
	movl	$88, %edi
	callq	set_degenerate
	movabsq	$.L.str.13.21, %rsi
	movl	$82, %edi
	callq	set_degenerate
	movabsq	$.L.str.14, %rsi
	movl	$89, %edi
	callq	set_degenerate
	movabsq	$.L.str.15, %rsi
	movl	$77, %edi
	callq	set_degenerate
	movabsq	$.L.str.16, %rsi
	movl	$75, %edi
	callq	set_degenerate
	movabsq	$.L.str.17, %rsi
	movl	$83, %edi
	callq	set_degenerate
	movabsq	$.L.str.18, %rsi
	movl	$87, %edi
	callq	set_degenerate
	movabsq	$.L.str.19, %rsi
	movl	$72, %edi
	callq	set_degenerate
	movabsq	$.L.str.20, %rsi
	movl	$66, %edi
	callq	set_degenerate
	movabsq	$.L.str.21, %rsi
	movl	$86, %edi
	callq	set_degenerate
	movabsq	$.L.str.22, %rsi
	movl	$68, %edi
	callq	set_degenerate
	jmp	.LBB25_25
.LBB25_24:
	movabsq	$.L.str.23, %rdi
	movb	$0, %al
	callq	Die
.LBB25_25:
	addq	$16, %rsp
	popq	%rbp
	retq
.Lfunc_end25:
	.size	SetAlphabet, .Lfunc_end25-SetAlphabet
	.cfi_endproc
                                        # -- End function
	.p2align	4, 0x90         # -- Begin function set_degenerate
	.type	set_degenerate,@function
set_degenerate:                         # @set_degenerate
	.cfi_startproc
# %bb.0:
	pushq	%rbp
	.cfi_def_cfa_offset 16
	.cfi_offset %rbp, -16
	movq	%rsp, %rbp
	.cfi_def_cfa_register %rbp
	pushq	%r14
	pushq	%rbx
	subq	$16, %rsp
	.cfi_offset %rbx, -32
	.cfi_offset %r14, -24
	movabsq	$Alphabet, %r14
	movb	%dil, -17(%rbp)
	movq	%rsi, -32(%rbp)
	movq	-32(%rbp), %rdi
	callq	strlen
	movq	%rax, %rbx
	movsbl	-17(%rbp), %esi
	movq	%r14, %rdi
	callq	strchr
	movabsq	$Alphabet, %rcx
	subq	%rcx, %rax
	movl	%ebx, DegenCount(,%rax,4)
.LBB26_1:                               # =>This Inner Loop Header: Depth=1
	movq	-32(%rbp), %rax
	cmpb	$0, (%rax)
	je	.LBB26_3
# %bb.2:                                #   in Loop: Header=BB26_1 Depth=1
	movabsq	$Alphabet, %rdi
	movsbl	-17(%rbp), %esi
	callq	strchr
	movabsq	$Alphabet, %rdi
	movabsq	$Degenerate, %rbx
	subq	%rdi, %rax
	imulq	$20, %rax, %rax
	addq	%rax, %rbx
	movq	-32(%rbp), %rax
	movsbl	(%rax), %esi
	callq	strchr
	movabsq	$Alphabet, %rcx
	subq	%rcx, %rax
	movb	$1, (%rbx,%rax)
	movq	-32(%rbp), %rax
	addq	$1, %rax
	movq	%rax, -32(%rbp)
	jmp	.LBB26_1
.LBB26_3:
	addq	$16, %rsp
	popq	%rbx
	popq	%r14
	popq	%rbp
	retq
.Lfunc_end26:
	.size	set_degenerate, .Lfunc_end26-set_degenerate
	.cfi_endproc
                                        # -- End function
	.globl	SymbolIndex             # -- Begin function SymbolIndex
	.p2align	4, 0x90
	.type	SymbolIndex,@function
SymbolIndex:                            # @SymbolIndex
	.cfi_startproc
# %bb.0:
	pushq	%rbp
	.cfi_def_cfa_offset 16
	.cfi_offset %rbp, -16
	movq	%rsp, %rbp
	.cfi_def_cfa_register %rbp
	subq	$16, %rsp
	movb	%dil, -1(%rbp)
	movsbl	-1(%rbp), %edi
	callq	toupper
	movabsq	$Alphabet, %rdi
	movsbl	%al, %esi
	callq	strchr
	movq	%rax, -16(%rbp)
	cmpq	$0, %rax
	jne	.LBB27_2
# %bb.1:
	movl	Alphabet_iupac, %eax
	subl	$1, %eax
	cltq
	jmp	.LBB27_3
.LBB27_2:
	movabsq	$Alphabet, %rcx
	movq	-16(%rbp), %rax
	subq	%rcx, %rax
.LBB27_3:
                                        # kill: def %eax killed %eax killed %rax
	addq	$16, %rsp
	popq	%rbp
	retq
.Lfunc_end27:
	.size	SymbolIndex, .Lfunc_end27-SymbolIndex
	.cfi_endproc
                                        # -- End function
	.globl	DigitizeSequence        # -- Begin function DigitizeSequence
	.p2align	4, 0x90
	.type	DigitizeSequence,@function
DigitizeSequence:                       # @DigitizeSequence
	.cfi_startproc
# %bb.0:
	pushq	%rbp
	.cfi_def_cfa_offset 16
	.cfi_offset %rbp, -16
	movq	%rsp, %rbp
	.cfi_def_cfa_register %rbp
	subq	$32, %rsp
	movabsq	$.L.str.24, %rax
	movq	%rdi, -24(%rbp)
	movl	%esi, -8(%rbp)
	movl	-8(%rbp), %ecx
	addl	$2, %ecx
	movslq	%ecx, %rdx
	shlq	$0, %rdx
	movq	%rax, %rdi
	movl	$215, %esi
	callq	sre_malloc
	movq	%rax, -16(%rbp)
	movl	Alphabet_iupac, %eax
	movq	-16(%rbp), %rcx
	movl	-8(%rbp), %edx
	addl	$1, %edx
	movslq	%edx, %rdx
	movb	%al, (%rcx,%rdx)
	movq	-16(%rbp), %rcx
	movb	%al, (%rcx)
	movl	$1, -4(%rbp)
.LBB28_1:                               # =>This Inner Loop Header: Depth=1
	movl	-4(%rbp), %eax
	cmpl	-8(%rbp), %eax
	jg	.LBB28_4
# %bb.2:                                #   in Loop: Header=BB28_1 Depth=1
	movq	-24(%rbp), %rax
	movl	-4(%rbp), %ecx
	subl	$1, %ecx
	movslq	%ecx, %rcx
	movsbl	(%rax,%rcx), %edi
	callq	SymbolIndex
	movq	-16(%rbp), %rcx
	movslq	-4(%rbp), %rdx
	movb	%al, (%rcx,%rdx)
# %bb.3:                                #   in Loop: Header=BB28_1 Depth=1
	movl	-4(%rbp), %eax
	addl	$1, %eax
	movl	%eax, -4(%rbp)
	jmp	.LBB28_1
.LBB28_4:
	movq	-16(%rbp), %rax
	addq	$32, %rsp
	popq	%rbp
	retq
.Lfunc_end28:
	.size	DigitizeSequence, .Lfunc_end28-DigitizeSequence
	.cfi_endproc
                                        # -- End function
	.globl	DedigitizeSequence      # -- Begin function DedigitizeSequence
	.p2align	4, 0x90
	.type	DedigitizeSequence,@function
DedigitizeSequence:                     # @DedigitizeSequence
	.cfi_startproc
# %bb.0:
	pushq	%rbp
	.cfi_def_cfa_offset 16
	.cfi_offset %rbp, -16
	movq	%rsp, %rbp
	.cfi_def_cfa_register %rbp
	subq	$32, %rsp
	movabsq	$.L.str.24, %rax
	movq	%rdi, -24(%rbp)
	movl	%esi, -8(%rbp)
	movl	-8(%rbp), %ecx
	addl	$1, %ecx
	movslq	%ecx, %rdx
	shlq	$0, %rdx
	movq	%rax, %rdi
	movl	$235, %esi
	callq	sre_malloc
	movq	%rax, -16(%rbp)
	movl	$0, -4(%rbp)
.LBB29_1:                               # =>This Inner Loop Header: Depth=1
	movl	-4(%rbp), %eax
	cmpl	-8(%rbp), %eax
	jge	.LBB29_4
# %bb.2:                                #   in Loop: Header=BB29_1 Depth=1
	movq	-24(%rbp), %rax
	movl	-4(%rbp), %ecx
	addl	$1, %ecx
	movslq	%ecx, %rcx
	movsbl	(%rax,%rcx), %eax
	cltq
	movb	Alphabet(,%rax), %al
	movq	-16(%rbp), %rcx
	movslq	-4(%rbp), %rdx
	movb	%al, (%rcx,%rdx)
# %bb.3:                                #   in Loop: Header=BB29_1 Depth=1
	movl	-4(%rbp), %eax
	addl	$1, %eax
	movl	%eax, -4(%rbp)
	jmp	.LBB29_1
.LBB29_4:
	movq	-16(%rbp), %rax
	movslq	-8(%rbp), %rcx
	movb	$0, (%rax,%rcx)
	movq	-16(%rbp), %rax
	addq	$32, %rsp
	popq	%rbp
	retq
.Lfunc_end29:
	.size	DedigitizeSequence, .Lfunc_end29-DedigitizeSequence
	.cfi_endproc
                                        # -- End function
	.globl	DigitizeAlignment       # -- Begin function DigitizeAlignment
	.p2align	4, 0x90
	.type	DigitizeAlignment,@function
DigitizeAlignment:                      # @DigitizeAlignment
	.cfi_startproc
# %bb.0:
	pushq	%rbp
	.cfi_def_cfa_offset 16
	.cfi_offset %rbp, -16
	movq	%rsp, %rbp
	.cfi_def_cfa_register %rbp
	subq	$48, %rsp
	movabsq	$.L.str.24, %rax
	movq	%rdi, -16(%rbp)
	movq	%rsi, -40(%rbp)
	movq	-16(%rbp), %rcx
	movslq	28(%rcx), %rdx
	shlq	$3, %rdx
	movq	%rax, %rdi
	movl	$264, %esi              # imm = 0x108
	callq	sre_malloc
	movq	%rax, -32(%rbp)
	movl	$0, -4(%rbp)
.LBB30_1:                               # =>This Loop Header: Depth=1
                                        #     Child Loop BB30_3 Depth 2
	movl	-4(%rbp), %eax
	movq	-16(%rbp), %rcx
	cmpl	28(%rcx), %eax
	jge	.LBB30_14
# %bb.2:                                #   in Loop: Header=BB30_1 Depth=1
	movabsq	$.L.str.24, %rdi
	movq	-16(%rbp), %rax
	movl	24(%rax), %eax
	addl	$2, %eax
	movslq	%eax, %rdx
	shlq	$0, %rdx
	movl	$266, %esi              # imm = 0x10A
	callq	sre_malloc
	movq	-32(%rbp), %rcx
	movslq	-4(%rbp), %rdx
	movq	%rax, (%rcx,%rdx,8)
	movl	Alphabet_iupac, %eax
	movq	-32(%rbp), %rcx
	movslq	-4(%rbp), %rdx
	movq	(%rcx,%rdx,8), %rcx
	movb	%al, (%rcx)
	movl	$0, -8(%rbp)
	movl	$1, -20(%rbp)
.LBB30_3:                               #   Parent Loop BB30_1 Depth=1
                                        # =>  This Inner Loop Header: Depth=2
	movl	-8(%rbp), %eax
	movq	-16(%rbp), %rcx
	cmpl	24(%rcx), %eax
	jge	.LBB30_12
# %bb.4:                                #   in Loop: Header=BB30_3 Depth=2
	movq	-16(%rbp), %rax
	movq	(%rax), %rax
	movslq	-4(%rbp), %rcx
	movq	(%rax,%rcx,8), %rax
	movslq	-8(%rbp), %rcx
	movsbl	(%rax,%rcx), %eax
	cmpl	$32, %eax
	je	.LBB30_10
# %bb.5:                                #   in Loop: Header=BB30_3 Depth=2
	movq	-16(%rbp), %rax
	movq	(%rax), %rax
	movslq	-4(%rbp), %rcx
	movq	(%rax,%rcx,8), %rax
	movslq	-8(%rbp), %rcx
	movsbl	(%rax,%rcx), %eax
	cmpl	$46, %eax
	je	.LBB30_10
# %bb.6:                                #   in Loop: Header=BB30_3 Depth=2
	movq	-16(%rbp), %rax
	movq	(%rax), %rax
	movslq	-4(%rbp), %rcx
	movq	(%rax,%rcx,8), %rax
	movslq	-8(%rbp), %rcx
	movsbl	(%rax,%rcx), %eax
	cmpl	$95, %eax
	je	.LBB30_10
# %bb.7:                                #   in Loop: Header=BB30_3 Depth=2
	movq	-16(%rbp), %rax
	movq	(%rax), %rax
	movslq	-4(%rbp), %rcx
	movq	(%rax,%rcx,8), %rax
	movslq	-8(%rbp), %rcx
	movsbl	(%rax,%rcx), %eax
	cmpl	$45, %eax
	je	.LBB30_10
# %bb.8:                                #   in Loop: Header=BB30_3 Depth=2
	movq	-16(%rbp), %rax
	movq	(%rax), %rax
	movslq	-4(%rbp), %rcx
	movq	(%rax,%rcx,8), %rax
	movslq	-8(%rbp), %rcx
	movsbl	(%rax,%rcx), %eax
	cmpl	$126, %eax
	je	.LBB30_10
# %bb.9:                                #   in Loop: Header=BB30_3 Depth=2
	movq	-16(%rbp), %rax
	movq	(%rax), %rax
	movslq	-4(%rbp), %rcx
	movq	(%rax,%rcx,8), %rax
	movslq	-8(%rbp), %rcx
	movsbl	(%rax,%rcx), %edi
	callq	SymbolIndex
	movq	-32(%rbp), %rcx
	movslq	-4(%rbp), %rdx
	movq	(%rcx,%rdx,8), %rcx
	movl	-20(%rbp), %edx
	movl	%edx, %esi
	addl	$1, %esi
	movl	%esi, -20(%rbp)
	movslq	%edx, %rdx
	movb	%al, (%rcx,%rdx)
.LBB30_10:                              #   in Loop: Header=BB30_3 Depth=2
	jmp	.LBB30_11
.LBB30_11:                              #   in Loop: Header=BB30_3 Depth=2
	movl	-8(%rbp), %eax
	addl	$1, %eax
	movl	%eax, -8(%rbp)
	jmp	.LBB30_3
.LBB30_12:                              #   in Loop: Header=BB30_1 Depth=1
	movl	Alphabet_iupac, %eax
	movq	-32(%rbp), %rcx
	movslq	-4(%rbp), %rdx
	movq	(%rcx,%rdx,8), %rcx
	movslq	-20(%rbp), %rdx
	movb	%al, (%rcx,%rdx)
# %bb.13:                               #   in Loop: Header=BB30_1 Depth=1
	movl	-4(%rbp), %eax
	addl	$1, %eax
	movl	%eax, -4(%rbp)
	jmp	.LBB30_1
.LBB30_14:
	movq	-32(%rbp), %rax
	movq	-40(%rbp), %rcx
	movq	%rax, (%rcx)
	addq	$48, %rsp
	popq	%rbp
	retq
.Lfunc_end30:
	.size	DigitizeAlignment, .Lfunc_end30-DigitizeAlignment
	.cfi_endproc
                                        # -- End function
	.globl	P7CountSymbol           # -- Begin function P7CountSymbol
	.p2align	4, 0x90
	.type	P7CountSymbol,@function
P7CountSymbol:                          # @P7CountSymbol
	.cfi_startproc
# %bb.0:
	pushq	%rbp
	.cfi_def_cfa_offset 16
	.cfi_offset %rbp, -16
	movq	%rsp, %rbp
	.cfi_def_cfa_register %rbp
	movq	%rdi, -24(%rbp)
	movb	%sil, -1(%rbp)
	movss	%xmm0, -12(%rbp)
	movsbl	-1(%rbp), %eax
	cmpl	Alphabet_size, %eax
	jge	.LBB31_2
# %bb.1:
	movss	-12(%rbp), %xmm0        # xmm0 = mem[0],zero,zero,zero
	movq	-24(%rbp), %rax
	movsbl	-1(%rbp), %ecx
	movslq	%ecx, %rcx
	addss	(%rax,%rcx,4), %xmm0
	movss	%xmm0, (%rax,%rcx,4)
	jmp	.LBB31_9
.LBB31_2:
	movl	$0, -8(%rbp)
.LBB31_3:                               # =>This Inner Loop Header: Depth=1
	movl	-8(%rbp), %eax
	cmpl	Alphabet_size, %eax
	jge	.LBB31_8
# %bb.4:                                #   in Loop: Header=BB31_3 Depth=1
	movabsq	$Degenerate, %rax
	movsbl	-1(%rbp), %ecx
	movslq	%ecx, %rcx
	imulq	$20, %rcx, %rcx
	addq	%rcx, %rax
	movslq	-8(%rbp), %rcx
	cmpb	$0, (%rax,%rcx)
	je	.LBB31_6
# %bb.5:                                #   in Loop: Header=BB31_3 Depth=1
	movss	-12(%rbp), %xmm0        # xmm0 = mem[0],zero,zero,zero
	movsbl	-1(%rbp), %eax
	cltq
	movl	DegenCount(,%rax,4), %eax
	cvtsi2ssl	%eax, %xmm1
	divss	%xmm1, %xmm0
	movq	-24(%rbp), %rax
	movslq	-8(%rbp), %rcx
	addss	(%rax,%rcx,4), %xmm0
	movss	%xmm0, (%rax,%rcx,4)
.LBB31_6:                               #   in Loop: Header=BB31_3 Depth=1
	jmp	.LBB31_7
.LBB31_7:                               #   in Loop: Header=BB31_3 Depth=1
	movl	-8(%rbp), %eax
	addl	$1, %eax
	movl	%eax, -8(%rbp)
	jmp	.LBB31_3
.LBB31_8:
	jmp	.LBB31_9
.LBB31_9:
	popq	%rbp
	retq
.Lfunc_end31:
	.size	P7CountSymbol, .Lfunc_end31-P7CountSymbol
	.cfi_endproc
                                        # -- End function
	.globl	DefaultGeneticCode      # -- Begin function DefaultGeneticCode
	.p2align	4, 0x90
	.type	DefaultGeneticCode,@function
DefaultGeneticCode:                     # @DefaultGeneticCode
	.cfi_startproc
# %bb.0:
	pushq	%rbp
	.cfi_def_cfa_offset 16
	.cfi_offset %rbp, -16
	movq	%rsp, %rbp
	.cfi_def_cfa_register %rbp
	subq	$16, %rsp
	movq	%rdi, -16(%rbp)
	movl	$0, -4(%rbp)
.LBB32_1:                               # =>This Inner Loop Header: Depth=1
	cmpl	$64, -4(%rbp)
	jge	.LBB32_7
# %bb.2:                                #   in Loop: Header=BB32_1 Depth=1
	movslq	-4(%rbp), %rax
	movq	stdcode1(,%rax,8), %rax
	movsbl	(%rax), %eax
	cmpl	$42, %eax
	jne	.LBB32_4
# %bb.3:                                #   in Loop: Header=BB32_1 Depth=1
	movq	-16(%rbp), %rax
	movslq	-4(%rbp), %rcx
	movl	$-1, (%rax,%rcx,4)
	jmp	.LBB32_5
.LBB32_4:                               #   in Loop: Header=BB32_1 Depth=1
	movabsq	$Alphabet, %rdi
	movslq	-4(%rbp), %rax
	movq	stdcode1(,%rax,8), %rax
	movsbl	(%rax), %esi
	callq	strchr
	movabsq	$Alphabet, %rcx
	subq	%rcx, %rax
	movq	-16(%rbp), %rcx
	movslq	-4(%rbp), %rdx
	movl	%eax, (%rcx,%rdx,4)
.LBB32_5:                               #   in Loop: Header=BB32_1 Depth=1
	jmp	.LBB32_6
.LBB32_6:                               #   in Loop: Header=BB32_1 Depth=1
	movl	-4(%rbp), %eax
	addl	$1, %eax
	movl	%eax, -4(%rbp)
	jmp	.LBB32_1
.LBB32_7:
	addq	$16, %rsp
	popq	%rbp
	retq
.Lfunc_end32:
	.size	DefaultGeneticCode, .Lfunc_end32-DefaultGeneticCode
	.cfi_endproc
                                        # -- End function
	.section	.rodata.cst4,"aM",@progbits,4
	.p2align	2               # -- Begin function DefaultCodonBias
.LCPI33_0:
	.long	1056964608              # float 0.5
.LCPI33_1:
	.long	1042983595              # float 0.166666672
.LCPI33_2:
	.long	1065353216              # float 1
.LCPI33_3:
	.long	1048576000              # float 0.25
.LCPI33_4:
	.long	1051372203              # float 0.333333343
	.text
	.globl	DefaultCodonBias
	.p2align	4, 0x90
	.type	DefaultCodonBias,@function
DefaultCodonBias:                       # @DefaultCodonBias
	.cfi_startproc
# %bb.0:
	pushq	%rbp
	.cfi_def_cfa_offset 16
	.cfi_offset %rbp, -16
	movq	%rsp, %rbp
	.cfi_def_cfa_register %rbp
	movss	.LCPI33_0(%rip), %xmm0  # xmm0 = mem[0],zero,zero,zero
	movss	.LCPI33_1(%rip), %xmm1  # xmm1 = mem[0],zero,zero,zero
	movss	.LCPI33_2(%rip), %xmm2  # xmm2 = mem[0],zero,zero,zero
	xorps	%xmm3, %xmm3
	movss	.LCPI33_3(%rip), %xmm4  # xmm4 = mem[0],zero,zero,zero
	movss	.LCPI33_4(%rip), %xmm5  # xmm5 = mem[0],zero,zero,zero
	movq	%rdi, -8(%rbp)
	movq	-8(%rbp), %rax
	movss	%xmm0, (%rax)
	movq	-8(%rbp), %rax
	movss	%xmm0, 4(%rax)
	movq	-8(%rbp), %rax
	movss	%xmm0, 8(%rax)
	movq	-8(%rbp), %rax
	movss	%xmm0, 12(%rax)
	movq	-8(%rbp), %rax
	movss	%xmm4, 16(%rax)
	movq	-8(%rbp), %rax
	movss	%xmm4, 20(%rax)
	movq	-8(%rbp), %rax
	movss	%xmm4, 24(%rax)
	movq	-8(%rbp), %rax
	movss	%xmm4, 28(%rax)
	movq	-8(%rbp), %rax
	movss	%xmm1, 32(%rax)
	movq	-8(%rbp), %rax
	movss	%xmm1, 36(%rax)
	movq	-8(%rbp), %rax
	movss	%xmm1, 40(%rax)
	movq	-8(%rbp), %rax
	movss	%xmm1, 44(%rax)
	movq	-8(%rbp), %rax
	movss	%xmm5, 48(%rax)
	movq	-8(%rbp), %rax
	movss	%xmm5, 52(%rax)
	movq	-8(%rbp), %rax
	movss	%xmm2, 56(%rax)
	movq	-8(%rbp), %rax
	movss	%xmm5, 60(%rax)
	movq	-8(%rbp), %rax
	movss	%xmm0, 64(%rax)
	movq	-8(%rbp), %rax
	movss	%xmm0, 68(%rax)
	movq	-8(%rbp), %rax
	movss	%xmm0, 72(%rax)
	movq	-8(%rbp), %rax
	movss	%xmm0, 76(%rax)
	movq	-8(%rbp), %rax
	movss	%xmm4, 80(%rax)
	movq	-8(%rbp), %rax
	movss	%xmm4, 84(%rax)
	movq	-8(%rbp), %rax
	movss	%xmm4, 88(%rax)
	movq	-8(%rbp), %rax
	movss	%xmm4, 92(%rax)
	movq	-8(%rbp), %rax
	movss	%xmm1, 96(%rax)
	movq	-8(%rbp), %rax
	movss	%xmm1, 100(%rax)
	movq	-8(%rbp), %rax
	movss	%xmm1, 104(%rax)
	movq	-8(%rbp), %rax
	movss	%xmm1, 108(%rax)
	movq	-8(%rbp), %rax
	movss	%xmm1, 112(%rax)
	movq	-8(%rbp), %rax
	movss	%xmm1, 116(%rax)
	movq	-8(%rbp), %rax
	movss	%xmm1, 120(%rax)
	movq	-8(%rbp), %rax
	movss	%xmm1, 124(%rax)
	movq	-8(%rbp), %rax
	movss	%xmm0, 128(%rax)
	movq	-8(%rbp), %rax
	movss	%xmm0, 132(%rax)
	movq	-8(%rbp), %rax
	movss	%xmm0, 136(%rax)
	movq	-8(%rbp), %rax
	movss	%xmm0, 140(%rax)
	movq	-8(%rbp), %rax
	movss	%xmm4, 144(%rax)
	movq	-8(%rbp), %rax
	movss	%xmm4, 148(%rax)
	movq	-8(%rbp), %rax
	movss	%xmm4, 152(%rax)
	movq	-8(%rbp), %rax
	movss	%xmm4, 156(%rax)
	movq	-8(%rbp), %rax
	movss	%xmm4, 160(%rax)
	movq	-8(%rbp), %rax
	movss	%xmm4, 164(%rax)
	movq	-8(%rbp), %rax
	movss	%xmm4, 168(%rax)
	movq	-8(%rbp), %rax
	movss	%xmm4, 172(%rax)
	movq	-8(%rbp), %rax
	movss	%xmm4, 176(%rax)
	movq	-8(%rbp), %rax
	movss	%xmm4, 180(%rax)
	movq	-8(%rbp), %rax
	movss	%xmm4, 184(%rax)
	movq	-8(%rbp), %rax
	movss	%xmm4, 188(%rax)
	movq	-8(%rbp), %rax
	movss	%xmm3, 192(%rax)
	movq	-8(%rbp), %rax
	movss	%xmm0, 196(%rax)
	movq	-8(%rbp), %rax
	movss	%xmm3, 200(%rax)
	movq	-8(%rbp), %rax
	movss	%xmm0, 204(%rax)
	movq	-8(%rbp), %rax
	movss	%xmm1, 208(%rax)
	movq	-8(%rbp), %rax
	movss	%xmm1, 212(%rax)
	movq	-8(%rbp), %rax
	movss	%xmm1, 216(%rax)
	movq	-8(%rbp), %rax
	movss	%xmm1, 220(%rax)
	movq	-8(%rbp), %rax
	movss	%xmm3, 224(%rax)
	movq	-8(%rbp), %rax
	movss	%xmm0, 228(%rax)
	movq	-8(%rbp), %rax
	movss	%xmm2, 232(%rax)
	movq	-8(%rbp), %rax
	movss	%xmm0, 236(%rax)
	movq	-8(%rbp), %rax
	movss	%xmm1, 240(%rax)
	movq	-8(%rbp), %rax
	movss	%xmm0, 244(%rax)
	movq	-8(%rbp), %rax
	movss	%xmm1, 248(%rax)
	movq	-8(%rbp), %rax
	movss	%xmm0, 252(%rax)
	popq	%rbp
	retq
.Lfunc_end33:
	.size	DefaultCodonBias, .Lfunc_end33-DefaultCodonBias
	.cfi_endproc
                                        # -- End function
	.globl	ReadClustal             # -- Begin function ReadClustal
	.p2align	4, 0x90
	.type	ReadClustal,@function
ReadClustal:                            # @ReadClustal
	.cfi_startproc
# %bb.0:
	pushq	%rbp
	.cfi_def_cfa_offset 16
	.cfi_offset %rbp, -16
	movq	%rsp, %rbp
	.cfi_def_cfa_register %rbp
	subq	$80, %rsp
	movq	%rdi, -32(%rbp)
	movq	-32(%rbp), %rax
	movq	(%rax), %rdi
	callq	feof
	cmpl	$0, %eax
	je	.LBB34_2
# %bb.1:
	movq	$0, -40(%rbp)
	jmp	.LBB34_25
.LBB34_2:
	jmp	.LBB34_3
.LBB34_3:                               # =>This Inner Loop Header: Depth=1
	movq	-32(%rbp), %rdi
	callq	MSAFileGetLine
	movq	%rax, -24(%rbp)
	cmpq	$0, %rax
	je	.LBB34_8
# %bb.4:                                #   in Loop: Header=BB34_3 Depth=1
	movabsq	$.L.str.25, %rsi
	movq	-24(%rbp), %rdi
	movl	$7, %edx
	callq	strncmp
	cmpl	$0, %eax
	jne	.LBB34_7
# %bb.5:                                #   in Loop: Header=BB34_3 Depth=1
	movabsq	$.L.str.1.26, %rsi
	movq	-24(%rbp), %rdi
	callq	strstr
	cmpq	$0, %rax
	je	.LBB34_7
# %bb.6:
	jmp	.LBB34_9
.LBB34_7:                               #   in Loop: Header=BB34_3 Depth=1
	jmp	.LBB34_3
.LBB34_8:                               # %.loopexit
	jmp	.LBB34_9
.LBB34_9:
	cmpq	$0, -24(%rbp)
	jne	.LBB34_11
# %bb.10:
	movq	$0, -40(%rbp)
	jmp	.LBB34_25
.LBB34_11:
	movl	$10, %edi
	xorl	%esi, %esi
	callq	MSAAlloc
	movq	%rax, -16(%rbp)
.LBB34_12:                              # =>This Inner Loop Header: Depth=1
	movq	-32(%rbp), %rdi
	callq	MSAFileGetLine
	movq	%rax, -24(%rbp)
	cmpq	$0, %rax
	je	.LBB34_24
# %bb.13:                               #   in Loop: Header=BB34_12 Depth=1
	leaq	-24(%rbp), %rdi
	movabsq	$.L.str.2.27, %rsi
	xorl	%edx, %edx
	callq	sre_strtok
	movq	%rax, -64(%rbp)
	cmpq	$0, %rax
	jne	.LBB34_16
# %bb.14:                               #   in Loop: Header=BB34_12 Depth=1
	jmp	.LBB34_15
.LBB34_15:                              # %.backedge
                                        #   in Loop: Header=BB34_12 Depth=1
	jmp	.LBB34_12
.LBB34_16:                              #   in Loop: Header=BB34_12 Depth=1
	leaq	-24(%rbp), %rdi
	movabsq	$.L.str.2.27, %rsi
	leaq	-44(%rbp), %rdx
	callq	sre_strtok
	movq	%rax, -56(%rbp)
	cmpq	$0, %rax
	jne	.LBB34_18
# %bb.17:                               #   in Loop: Header=BB34_12 Depth=1
	jmp	.LBB34_15
.LBB34_18:                              #   in Loop: Header=BB34_12 Depth=1
	leaq	-24(%rbp), %rdi
	movabsq	$.L.str.3.28, %rsi
	xorl	%edx, %edx
	callq	sre_strtok
	movabsq	$.L.str.4.29, %rsi
	movq	%rax, -72(%rbp)
	movq	-64(%rbp), %rdi
	callq	strpbrk
	cmpq	$0, %rax
	je	.LBB34_21
# %bb.19:                               #   in Loop: Header=BB34_12 Depth=1
	movabsq	$.L.str.4.29, %rsi
	movq	-56(%rbp), %rdi
	callq	strpbrk
	cmpq	$0, %rax
	je	.LBB34_21
# %bb.20:                               #   in Loop: Header=BB34_12 Depth=1
	jmp	.LBB34_15
.LBB34_21:                              #   in Loop: Header=BB34_12 Depth=1
	cmpq	$0, -72(%rbp)
	je	.LBB34_23
# %bb.22:                               #   in Loop: Header=BB34_12 Depth=1
	movabsq	$.L.str.5.30, %rdi
	movq	-32(%rbp), %rax
	movl	16(%rax), %esi
	movq	-32(%rbp), %rax
	movq	8(%rax), %rdx
	movb	$0, %al
	callq	Die
.LBB34_23:                              #   in Loop: Header=BB34_12 Depth=1
	movq	-16(%rbp), %rdi
	movq	-64(%rbp), %rsi
	movq	-16(%rbp), %rax
	movl	352(%rax), %edx
	addl	$1, %edx
	callq	MSAGetSeqidx
	movl	%eax, -4(%rbp)
	movl	-4(%rbp), %eax
	movq	-16(%rbp), %rcx
	movl	%eax, 352(%rcx)
	movq	-16(%rbp), %rax
	movq	(%rax), %rdi
	movslq	-4(%rbp), %rax
	shlq	$3, %rax
	addq	%rax, %rdi
	movq	-16(%rbp), %rax
	movq	328(%rax), %rax
	movslq	-4(%rbp), %rcx
	movl	(%rax,%rcx,4), %esi
	movq	-56(%rbp), %rdx
	movl	-44(%rbp), %ecx
	callq	sre_strcat
	movq	-16(%rbp), %rcx
	movq	328(%rcx), %rcx
	movslq	-4(%rbp), %rdx
	movl	%eax, (%rcx,%rdx,4)
	jmp	.LBB34_15
.LBB34_24:
	movq	-16(%rbp), %rdi
	callq	MSAVerifyParse
	movq	-16(%rbp), %rax
	movq	%rax, -40(%rbp)
.LBB34_25:
	movq	-40(%rbp), %rax
	addq	$80, %rsp
	popq	%rbp
	retq
.Lfunc_end34:
	.size	ReadClustal, .Lfunc_end34-ReadClustal
	.cfi_endproc
                                        # -- End function
	.globl	WriteClustal            # -- Begin function WriteClustal
	.p2align	4, 0x90
	.type	WriteClustal,@function
WriteClustal:                           # @WriteClustal
	.cfi_startproc
# %bb.0:
	pushq	%rbp
	.cfi_def_cfa_offset 16
	.cfi_offset %rbp, -16
	movq	%rsp, %rbp
	.cfi_def_cfa_register %rbp
	subq	$112, %rsp
	movq	%rdi, -32(%rbp)
	movq	%rsi, -24(%rbp)
	movl	$50, -12(%rbp)
	movl	$0, -16(%rbp)
	movl	$0, -4(%rbp)
.LBB35_1:                               # =>This Inner Loop Header: Depth=1
	movl	-4(%rbp), %eax
	movq	-24(%rbp), %rcx
	cmpl	28(%rcx), %eax
	jge	.LBB35_6
# %bb.2:                                #   in Loop: Header=BB35_1 Depth=1
	movq	-24(%rbp), %rax
	movq	8(%rax), %rax
	movslq	-4(%rbp), %rcx
	movq	(%rax,%rcx,8), %rdi
	callq	strlen
	movl	%eax, -36(%rbp)
	cmpl	-16(%rbp), %eax
	jle	.LBB35_4
# %bb.3:                                #   in Loop: Header=BB35_1 Depth=1
	movl	-36(%rbp), %eax
	movl	%eax, -16(%rbp)
.LBB35_4:                               #   in Loop: Header=BB35_1 Depth=1
	jmp	.LBB35_5
.LBB35_5:                               #   in Loop: Header=BB35_1 Depth=1
	movl	-4(%rbp), %eax
	addl	$1, %eax
	movl	%eax, -4(%rbp)
	jmp	.LBB35_1
.LBB35_6:
	movabsq	$.L.str.6.31, %rsi
	movq	-32(%rbp), %rdi
	movb	$0, %al
	callq	fprintf
	movl	$0, -8(%rbp)
.LBB35_7:                               # =>This Loop Header: Depth=1
                                        #     Child Loop BB35_9 Depth 2
	movl	-8(%rbp), %eax
	movq	-24(%rbp), %rcx
	cmpl	24(%rcx), %eax
	jge	.LBB35_14
# %bb.8:                                #   in Loop: Header=BB35_7 Depth=1
	movabsq	$.L.str.3.28, %rsi
	movq	-32(%rbp), %rdi
	movb	$0, %al
	callq	fprintf
	movl	$0, -4(%rbp)
.LBB35_9:                               #   Parent Loop BB35_7 Depth=1
                                        # =>  This Inner Loop Header: Depth=2
	movl	-4(%rbp), %eax
	movq	-24(%rbp), %rcx
	cmpl	28(%rcx), %eax
	jge	.LBB35_12
# %bb.10:                               #   in Loop: Header=BB35_9 Depth=2
	leaq	-112(%rbp), %rdi
	movq	-24(%rbp), %rax
	movq	(%rax), %rax
	movslq	-4(%rbp), %rcx
	movq	(%rax,%rcx,8), %rsi
	movslq	-8(%rbp), %rax
	addq	%rax, %rsi
	movslq	-12(%rbp), %rdx
	callq	strncpy
	movabsq	$.L.str.7.32, %rsi
	leaq	-112(%rbp), %r8
	movslq	-12(%rbp), %rax
	movb	$0, -112(%rbp,%rax)
	movq	-32(%rbp), %rdi
	movl	-16(%rbp), %edx
	movq	-24(%rbp), %rax
	movq	8(%rax), %rax
	movslq	-4(%rbp), %rcx
	movq	(%rax,%rcx,8), %rcx
	movb	$0, %al
	callq	fprintf
# %bb.11:                               #   in Loop: Header=BB35_9 Depth=2
	movl	-4(%rbp), %eax
	addl	$1, %eax
	movl	%eax, -4(%rbp)
	jmp	.LBB35_9
.LBB35_12:                              #   in Loop: Header=BB35_7 Depth=1
	jmp	.LBB35_13
.LBB35_13:                              #   in Loop: Header=BB35_7 Depth=1
	movl	-12(%rbp), %eax
	addl	-8(%rbp), %eax
	movl	%eax, -8(%rbp)
	jmp	.LBB35_7
.LBB35_14:
	addq	$112, %rsp
	popq	%rbp
	retq
.Lfunc_end35:
	.size	WriteClustal, .Lfunc_end35-WriteClustal
	.cfi_endproc
                                        # -- End function
	.section	.rodata.cst4,"aM",@progbits,4
	.p2align	2               # -- Begin function Cluster
.LCPI36_0:
	.long	1232348144              # float 999999
	.section	.rodata.cst8,"aM",@progbits,8
	.p2align	3
.LCPI36_1:
	.quad	4611686018427387904     # double 2
	.text
	.globl	Cluster
	.p2align	4, 0x90
	.type	Cluster,@function
Cluster:                                # @Cluster
	.cfi_startproc
# %bb.0:
	pushq	%rbp
	.cfi_def_cfa_offset 16
	.cfi_offset %rbp, -16
	movq	%rsp, %rbp
	.cfi_def_cfa_register %rbp
	subq	$112, %rsp
	movabsq	$.L.str.33, %rax
	movq	%rdi, -112(%rbp)
	movl	%esi, -20(%rbp)
	movl	%edx, -92(%rbp)
	movq	%rcx, -104(%rbp)
	movslq	-20(%rbp), %rdx
	shlq	$3, %rdx
	movq	%rax, %rdi
	movl	$168, %esi
	callq	sre_malloc
	movq	%rax, -32(%rbp)
	movl	$0, -8(%rbp)
.LBB36_1:                               # =>This Loop Header: Depth=1
                                        #     Child Loop BB36_3 Depth 2
	movl	-8(%rbp), %eax
	cmpl	-20(%rbp), %eax
	jge	.LBB36_8
# %bb.2:                                #   in Loop: Header=BB36_1 Depth=1
	movabsq	$.L.str.33, %rdi
	movslq	-20(%rbp), %rdx
	shlq	$2, %rdx
	movl	$171, %esi
	callq	sre_malloc
	movq	-32(%rbp), %rcx
	movslq	-8(%rbp), %rdx
	movq	%rax, (%rcx,%rdx,8)
	movl	$0, -16(%rbp)
.LBB36_3:                               #   Parent Loop BB36_1 Depth=1
                                        # =>  This Inner Loop Header: Depth=2
	movl	-16(%rbp), %eax
	cmpl	-20(%rbp), %eax
	jge	.LBB36_6
# %bb.4:                                #   in Loop: Header=BB36_3 Depth=2
	movq	-112(%rbp), %rax
	movslq	-8(%rbp), %rcx
	movq	(%rax,%rcx,8), %rax
	movslq	-16(%rbp), %rcx
	movss	(%rax,%rcx,4), %xmm0    # xmm0 = mem[0],zero,zero,zero
	movq	-32(%rbp), %rax
	movslq	-8(%rbp), %rcx
	movq	(%rax,%rcx,8), %rax
	movslq	-16(%rbp), %rcx
	movss	%xmm0, (%rax,%rcx,4)
# %bb.5:                                #   in Loop: Header=BB36_3 Depth=2
	movl	-16(%rbp), %eax
	addl	$1, %eax
	movl	%eax, -16(%rbp)
	jmp	.LBB36_3
.LBB36_6:                               #   in Loop: Header=BB36_1 Depth=1
	jmp	.LBB36_7
.LBB36_7:                               #   in Loop: Header=BB36_1 Depth=1
	movl	-8(%rbp), %eax
	addl	$1, %eax
	movl	%eax, -8(%rbp)
	jmp	.LBB36_1
.LBB36_8:
	movabsq	$.L.str.33, %rdi
	movslq	-20(%rbp), %rdx
	shlq	$2, %rdx
	movl	$176, %esi
	callq	sre_malloc
	movabsq	$.L.str.33, %rdi
	movq	%rax, -40(%rbp)
	movl	-20(%rbp), %eax
	subl	$1, %eax
	movslq	%eax, %rdx
	shlq	$2, %rdx
	movl	$177, %esi
	callq	sre_malloc
	movq	%rax, -80(%rbp)
	movl	$0, -12(%rbp)
.LBB36_9:                               # =>This Inner Loop Header: Depth=1
	movl	-12(%rbp), %eax
	cmpl	-20(%rbp), %eax
	jge	.LBB36_12
# %bb.10:                               #   in Loop: Header=BB36_9 Depth=1
	movl	-12(%rbp), %eax
	movq	-40(%rbp), %rcx
	movslq	-12(%rbp), %rdx
	movl	%eax, (%rcx,%rdx,4)
# %bb.11:                               #   in Loop: Header=BB36_9 Depth=1
	movl	-12(%rbp), %eax
	addl	$1, %eax
	movl	%eax, -12(%rbp)
	jmp	.LBB36_9
.LBB36_12:
	movl	$0, -8(%rbp)
.LBB36_13:                              # =>This Inner Loop Header: Depth=1
	movl	-8(%rbp), %eax
	movl	-20(%rbp), %ecx
	subl	$1, %ecx
	cmpl	%ecx, %eax
	jge	.LBB36_16
# %bb.14:                               #   in Loop: Header=BB36_13 Depth=1
	xorps	%xmm0, %xmm0
	movq	-80(%rbp), %rax
	movslq	-8(%rbp), %rcx
	movss	%xmm0, (%rax,%rcx,4)
# %bb.15:                               #   in Loop: Header=BB36_13 Depth=1
	movl	-8(%rbp), %eax
	addl	$1, %eax
	movl	%eax, -8(%rbp)
	jmp	.LBB36_13
.LBB36_16:
	movl	-20(%rbp), %edi
	callq	AllocPhylo
	movq	%rax, -56(%rbp)
	cmpq	$0, %rax
	jne	.LBB36_18
# %bb.17:
	movabsq	$.L.str.1.34, %rdi
	movb	$0, %al
	callq	Die
.LBB36_18:
	movl	$0, -16(%rbp)
	movl	-20(%rbp), %eax
	movl	%eax, -4(%rbp)
.LBB36_19:                              # =>This Loop Header: Depth=1
                                        #     Child Loop BB36_21 Depth 2
                                        #       Child Loop BB36_23 Depth 3
                                        #     Child Loop BB36_41 Depth 2
                                        #     Child Loop BB36_48 Depth 2
                                        #     Child Loop BB36_57 Depth 2
                                        #     Child Loop BB36_63 Depth 2
                                        #     Child Loop BB36_68 Depth 2
                                        #     Child Loop BB36_85 Depth 2
	cmpl	$2, -4(%rbp)
	jl	.LBB36_90
# %bb.20:                               #   in Loop: Header=BB36_19 Depth=1
	movss	.LCPI36_0(%rip), %xmm0  # xmm0 = mem[0],zero,zero,zero
	movss	%xmm0, -64(%rbp)
	movl	$0, -24(%rbp)
.LBB36_21:                              #   Parent Loop BB36_19 Depth=1
                                        # =>  This Loop Header: Depth=2
                                        #       Child Loop BB36_23 Depth 3
	movl	-24(%rbp), %eax
	cmpl	-4(%rbp), %eax
	jge	.LBB36_30
# %bb.22:                               #   in Loop: Header=BB36_21 Depth=2
	movl	-24(%rbp), %eax
	addl	$1, %eax
	movl	%eax, -12(%rbp)
.LBB36_23:                              #   Parent Loop BB36_19 Depth=1
                                        #     Parent Loop BB36_21 Depth=2
                                        # =>    This Inner Loop Header: Depth=3
	movl	-12(%rbp), %eax
	cmpl	-4(%rbp), %eax
	jge	.LBB36_28
# %bb.24:                               #   in Loop: Header=BB36_23 Depth=3
	movq	-32(%rbp), %rax
	movslq	-24(%rbp), %rcx
	movq	(%rax,%rcx,8), %rax
	movslq	-12(%rbp), %rcx
	movss	(%rax,%rcx,4), %xmm0    # xmm0 = mem[0],zero,zero,zero
	movss	-64(%rbp), %xmm1        # xmm1 = mem[0],zero,zero,zero
	ucomiss	%xmm0, %xmm1
	jbe	.LBB36_26
# %bb.25:                               #   in Loop: Header=BB36_23 Depth=3
	movq	-32(%rbp), %rax
	movslq	-24(%rbp), %rcx
	movq	(%rax,%rcx,8), %rax
	movslq	-12(%rbp), %rcx
	movss	(%rax,%rcx,4), %xmm0    # xmm0 = mem[0],zero,zero,zero
	movss	%xmm0, -64(%rbp)
	movl	-24(%rbp), %eax
	movl	%eax, -8(%rbp)
	movl	-12(%rbp), %eax
	movl	%eax, -16(%rbp)
.LBB36_26:                              #   in Loop: Header=BB36_23 Depth=3
	jmp	.LBB36_27
.LBB36_27:                              #   in Loop: Header=BB36_23 Depth=3
	movl	-12(%rbp), %eax
	addl	$1, %eax
	movl	%eax, -12(%rbp)
	jmp	.LBB36_23
.LBB36_28:                              #   in Loop: Header=BB36_21 Depth=2
	jmp	.LBB36_29
.LBB36_29:                              #   in Loop: Header=BB36_21 Depth=2
	movl	-24(%rbp), %eax
	addl	$1, %eax
	movl	%eax, -24(%rbp)
	jmp	.LBB36_21
.LBB36_30:                              #   in Loop: Header=BB36_19 Depth=1
	movq	-40(%rbp), %rax
	movslq	-8(%rbp), %rcx
	movl	(%rax,%rcx,4), %eax
	movq	-56(%rbp), %rcx
	movl	-4(%rbp), %edx
	subl	$2, %edx
	movslq	%edx, %rdx
	imulq	$40, %rdx, %rdx
	addq	%rdx, %rcx
	movl	%eax, 4(%rcx)
	movq	-40(%rbp), %rax
	movslq	-16(%rbp), %rcx
	movl	(%rax,%rcx,4), %eax
	movq	-56(%rbp), %rcx
	movl	-4(%rbp), %edx
	subl	$2, %edx
	movslq	%edx, %rdx
	imulq	$40, %rdx, %rdx
	addq	%rdx, %rcx
	movl	%eax, 8(%rcx)
	movq	-40(%rbp), %rax
	movslq	-8(%rbp), %rcx
	movl	(%rax,%rcx,4), %eax
	cmpl	-20(%rbp), %eax
	jl	.LBB36_32
# %bb.31:                               #   in Loop: Header=BB36_19 Depth=1
	movl	-20(%rbp), %eax
	addl	-4(%rbp), %eax
	subl	$2, %eax
	movq	-56(%rbp), %rcx
	movq	-40(%rbp), %rdx
	movslq	-8(%rbp), %rsi
	movl	(%rdx,%rsi,4), %edx
	subl	-20(%rbp), %edx
	movslq	%edx, %rdx
	imulq	$40, %rdx, %rdx
	addq	%rdx, %rcx
	movl	%eax, (%rcx)
.LBB36_32:                              #   in Loop: Header=BB36_19 Depth=1
	movq	-40(%rbp), %rax
	movslq	-16(%rbp), %rcx
	movl	(%rax,%rcx,4), %eax
	cmpl	-20(%rbp), %eax
	jl	.LBB36_34
# %bb.33:                               #   in Loop: Header=BB36_19 Depth=1
	movl	-20(%rbp), %eax
	addl	-4(%rbp), %eax
	subl	$2, %eax
	movq	-56(%rbp), %rcx
	movq	-40(%rbp), %rdx
	movslq	-16(%rbp), %rsi
	movl	(%rdx,%rsi,4), %edx
	subl	-20(%rbp), %edx
	movslq	%edx, %rdx
	imulq	$40, %rdx, %rdx
	addq	%rdx, %rcx
	movl	%eax, (%rcx)
.LBB36_34:                              #   in Loop: Header=BB36_19 Depth=1
	movss	-64(%rbp), %xmm0        # xmm0 = mem[0],zero,zero,zero
	movq	-56(%rbp), %rax
	movl	-4(%rbp), %ecx
	subl	$2, %ecx
	movslq	%ecx, %rcx
	imulq	$40, %rcx, %rcx
	addq	%rcx, %rax
	movss	%xmm0, 12(%rax)
	movq	-80(%rbp), %rax
	movl	-4(%rbp), %ecx
	subl	$2, %ecx
	movslq	%ecx, %rcx
	movss	%xmm0, (%rax,%rcx,4)
	movss	-64(%rbp), %xmm0        # xmm0 = mem[0],zero,zero,zero
	movq	-56(%rbp), %rax
	movl	-4(%rbp), %ecx
	subl	$2, %ecx
	movslq	%ecx, %rcx
	imulq	$40, %rcx, %rcx
	addq	%rcx, %rax
	movss	%xmm0, 20(%rax)
	movq	-56(%rbp), %rax
	movl	-4(%rbp), %ecx
	subl	$2, %ecx
	movslq	%ecx, %rcx
	imulq	$40, %rcx, %rcx
	addq	%rcx, %rax
	movss	%xmm0, 16(%rax)
	movq	-40(%rbp), %rax
	movslq	-8(%rbp), %rcx
	movl	(%rax,%rcx,4), %eax
	cmpl	-20(%rbp), %eax
	jl	.LBB36_36
# %bb.35:                               #   in Loop: Header=BB36_19 Depth=1
	movq	-80(%rbp), %rax
	movq	-40(%rbp), %rcx
	movslq	-8(%rbp), %rdx
	movl	(%rcx,%rdx,4), %ecx
	subl	-20(%rbp), %ecx
	movslq	%ecx, %rcx
	movss	(%rax,%rcx,4), %xmm0    # xmm0 = mem[0],zero,zero,zero
	movq	-56(%rbp), %rax
	movl	-4(%rbp), %ecx
	subl	$2, %ecx
	movslq	%ecx, %rcx
	imulq	$40, %rcx, %rcx
	addq	%rcx, %rax
	movss	16(%rax), %xmm1         # xmm1 = mem[0],zero,zero,zero
	subss	%xmm0, %xmm1
	movss	%xmm1, 16(%rax)
.LBB36_36:                              #   in Loop: Header=BB36_19 Depth=1
	movq	-40(%rbp), %rax
	movslq	-16(%rbp), %rcx
	movl	(%rax,%rcx,4), %eax
	cmpl	-20(%rbp), %eax
	jl	.LBB36_38
# %bb.37:                               #   in Loop: Header=BB36_19 Depth=1
	movq	-80(%rbp), %rax
	movq	-40(%rbp), %rcx
	movslq	-16(%rbp), %rdx
	movl	(%rcx,%rdx,4), %ecx
	subl	-20(%rbp), %ecx
	movslq	%ecx, %rcx
	movss	(%rax,%rcx,4), %xmm0    # xmm0 = mem[0],zero,zero,zero
	movq	-56(%rbp), %rax
	movl	-4(%rbp), %ecx
	subl	$2, %ecx
	movslq	%ecx, %rcx
	imulq	$40, %rcx, %rcx
	addq	%rcx, %rax
	movss	20(%rax), %xmm1         # xmm1 = mem[0],zero,zero,zero
	subss	%xmm0, %xmm1
	movss	%xmm1, 20(%rax)
.LBB36_38:                              #   in Loop: Header=BB36_19 Depth=1
	movq	-40(%rbp), %rax
	movslq	-8(%rbp), %rcx
	movl	(%rax,%rcx,4), %eax
	cmpl	-20(%rbp), %eax
	jge	.LBB36_40
# %bb.39:                               #   in Loop: Header=BB36_19 Depth=1
	movq	-56(%rbp), %rax
	movl	-4(%rbp), %ecx
	subl	$2, %ecx
	movslq	%ecx, %rcx
	imulq	$40, %rcx, %rcx
	addq	%rcx, %rax
	movl	32(%rax), %ecx
	addl	$1, %ecx
	movl	%ecx, 32(%rax)
	movq	-56(%rbp), %rax
	movl	-4(%rbp), %ecx
	subl	$2, %ecx
	movslq	%ecx, %rcx
	imulq	$40, %rcx, %rcx
	addq	%rcx, %rax
	movq	24(%rax), %rax
	movq	-40(%rbp), %rcx
	movslq	-8(%rbp), %rdx
	movslq	(%rcx,%rdx,4), %rcx
	movb	$1, (%rax,%rcx)
	jmp	.LBB36_45
.LBB36_40:                              #   in Loop: Header=BB36_19 Depth=1
	movq	-56(%rbp), %rax
	movq	-40(%rbp), %rcx
	movslq	-8(%rbp), %rdx
	movl	(%rcx,%rdx,4), %ecx
	subl	-20(%rbp), %ecx
	movslq	%ecx, %rcx
	imulq	$40, %rcx, %rcx
	addq	%rcx, %rax
	movl	32(%rax), %eax
	movq	-56(%rbp), %rcx
	movl	-4(%rbp), %edx
	subl	$2, %edx
	movslq	%edx, %rdx
	imulq	$40, %rdx, %rdx
	addq	%rdx, %rcx
	addl	32(%rcx), %eax
	movl	%eax, 32(%rcx)
	movl	$0, -44(%rbp)
.LBB36_41:                              #   Parent Loop BB36_19 Depth=1
                                        # =>  This Inner Loop Header: Depth=2
	movl	-44(%rbp), %eax
	cmpl	-20(%rbp), %eax
	jge	.LBB36_44
# %bb.42:                               #   in Loop: Header=BB36_41 Depth=2
	movq	-56(%rbp), %rax
	movq	-40(%rbp), %rcx
	movslq	-8(%rbp), %rdx
	movl	(%rcx,%rdx,4), %ecx
	subl	-20(%rbp), %ecx
	movslq	%ecx, %rcx
	imulq	$40, %rcx, %rcx
	addq	%rcx, %rax
	movq	24(%rax), %rax
	movslq	-44(%rbp), %rcx
	movsbl	(%rax,%rcx), %eax
	movq	-56(%rbp), %rcx
	movl	-4(%rbp), %edx
	subl	$2, %edx
	movslq	%edx, %rdx
	imulq	$40, %rdx, %rdx
	addq	%rdx, %rcx
	movq	24(%rcx), %rcx
	movslq	-44(%rbp), %rdx
	movsbl	(%rcx,%rdx), %esi
	orl	%eax, %esi
	movb	%sil, (%rcx,%rdx)
# %bb.43:                               #   in Loop: Header=BB36_41 Depth=2
	movl	-44(%rbp), %eax
	addl	$1, %eax
	movl	%eax, -44(%rbp)
	jmp	.LBB36_41
.LBB36_44:                              #   in Loop: Header=BB36_19 Depth=1
	jmp	.LBB36_45
.LBB36_45:                              #   in Loop: Header=BB36_19 Depth=1
	movq	-40(%rbp), %rax
	movslq	-16(%rbp), %rcx
	movl	(%rax,%rcx,4), %eax
	cmpl	-20(%rbp), %eax
	jge	.LBB36_47
# %bb.46:                               #   in Loop: Header=BB36_19 Depth=1
	movq	-56(%rbp), %rax
	movl	-4(%rbp), %ecx
	subl	$2, %ecx
	movslq	%ecx, %rcx
	imulq	$40, %rcx, %rcx
	addq	%rcx, %rax
	movl	32(%rax), %ecx
	addl	$1, %ecx
	movl	%ecx, 32(%rax)
	movq	-56(%rbp), %rax
	movl	-4(%rbp), %ecx
	subl	$2, %ecx
	movslq	%ecx, %rcx
	imulq	$40, %rcx, %rcx
	addq	%rcx, %rax
	movq	24(%rax), %rax
	movq	-40(%rbp), %rcx
	movslq	-16(%rbp), %rdx
	movslq	(%rcx,%rdx,4), %rcx
	movb	$1, (%rax,%rcx)
	jmp	.LBB36_52
.LBB36_47:                              #   in Loop: Header=BB36_19 Depth=1
	movq	-56(%rbp), %rax
	movq	-40(%rbp), %rcx
	movslq	-16(%rbp), %rdx
	movl	(%rcx,%rdx,4), %ecx
	subl	-20(%rbp), %ecx
	movslq	%ecx, %rcx
	imulq	$40, %rcx, %rcx
	addq	%rcx, %rax
	movl	32(%rax), %eax
	movq	-56(%rbp), %rcx
	movl	-4(%rbp), %edx
	subl	$2, %edx
	movslq	%edx, %rdx
	imulq	$40, %rdx, %rdx
	addq	%rdx, %rcx
	addl	32(%rcx), %eax
	movl	%eax, 32(%rcx)
	movl	$0, -44(%rbp)
.LBB36_48:                              #   Parent Loop BB36_19 Depth=1
                                        # =>  This Inner Loop Header: Depth=2
	movl	-44(%rbp), %eax
	cmpl	-20(%rbp), %eax
	jge	.LBB36_51
# %bb.49:                               #   in Loop: Header=BB36_48 Depth=2
	movq	-56(%rbp), %rax
	movq	-40(%rbp), %rcx
	movslq	-16(%rbp), %rdx
	movl	(%rcx,%rdx,4), %ecx
	subl	-20(%rbp), %ecx
	movslq	%ecx, %rcx
	imulq	$40, %rcx, %rcx
	addq	%rcx, %rax
	movq	24(%rax), %rax
	movslq	-44(%rbp), %rcx
	movsbl	(%rax,%rcx), %eax
	movq	-56(%rbp), %rcx
	movl	-4(%rbp), %edx
	subl	$2, %edx
	movslq	%edx, %rdx
	imulq	$40, %rdx, %rdx
	addq	%rdx, %rcx
	movq	24(%rcx), %rcx
	movslq	-44(%rbp), %rdx
	movsbl	(%rcx,%rdx), %esi
	orl	%eax, %esi
	movb	%sil, (%rcx,%rdx)
# %bb.50:                               #   in Loop: Header=BB36_48 Depth=2
	movl	-44(%rbp), %eax
	addl	$1, %eax
	movl	%eax, -44(%rbp)
	jmp	.LBB36_48
.LBB36_51:                              #   in Loop: Header=BB36_19 Depth=1
	jmp	.LBB36_52
.LBB36_52:                              #   in Loop: Header=BB36_19 Depth=1
	movl	-8(%rbp), %eax
	movl	-4(%rbp), %ecx
	subl	$1, %ecx
	cmpl	%ecx, %eax
	je	.LBB36_54
# %bb.53:                               #   in Loop: Header=BB36_19 Depth=1
	movl	-16(%rbp), %eax
	movl	-4(%rbp), %ecx
	subl	$2, %ecx
	cmpl	%ecx, %eax
	jne	.LBB36_55
.LBB36_54:                              #   in Loop: Header=BB36_19 Depth=1
	movl	-16(%rbp), %eax
	movl	%eax, -60(%rbp)
	movl	-8(%rbp), %eax
	movl	%eax, -16(%rbp)
	movl	-60(%rbp), %eax
	movl	%eax, -8(%rbp)
.LBB36_55:                              #   in Loop: Header=BB36_19 Depth=1
	movl	-8(%rbp), %eax
	movl	-4(%rbp), %ecx
	subl	$2, %ecx
	cmpl	%ecx, %eax
	je	.LBB36_61
# %bb.56:                               #   in Loop: Header=BB36_19 Depth=1
	movq	-32(%rbp), %rax
	movl	-4(%rbp), %ecx
	subl	$2, %ecx
	movslq	%ecx, %rcx
	movq	(%rax,%rcx,8), %rax
	movq	%rax, -88(%rbp)
	movq	-32(%rbp), %rax
	movslq	-8(%rbp), %rcx
	movq	(%rax,%rcx,8), %rax
	movq	-32(%rbp), %rcx
	movl	-4(%rbp), %edx
	subl	$2, %edx
	movslq	%edx, %rdx
	movq	%rax, (%rcx,%rdx,8)
	movq	-88(%rbp), %rax
	movq	-32(%rbp), %rcx
	movslq	-8(%rbp), %rdx
	movq	%rax, (%rcx,%rdx,8)
	movl	$0, -24(%rbp)
.LBB36_57:                              #   Parent Loop BB36_19 Depth=1
                                        # =>  This Inner Loop Header: Depth=2
	movl	-24(%rbp), %eax
	cmpl	-4(%rbp), %eax
	jge	.LBB36_60
# %bb.58:                               #   in Loop: Header=BB36_57 Depth=2
	movq	-32(%rbp), %rax
	movslq	-24(%rbp), %rcx
	movq	(%rax,%rcx,8), %rax
	movl	-4(%rbp), %ecx
	subl	$2, %ecx
	movslq	%ecx, %rcx
	movss	(%rax,%rcx,4), %xmm0    # xmm0 = mem[0],zero,zero,zero
	movss	%xmm0, -68(%rbp)
	movq	-32(%rbp), %rax
	movslq	-24(%rbp), %rcx
	movq	(%rax,%rcx,8), %rax
	movslq	-8(%rbp), %rcx
	movss	(%rax,%rcx,4), %xmm0    # xmm0 = mem[0],zero,zero,zero
	movq	-32(%rbp), %rax
	movslq	-24(%rbp), %rcx
	movq	(%rax,%rcx,8), %rax
	movl	-4(%rbp), %ecx
	subl	$2, %ecx
	movslq	%ecx, %rcx
	movss	%xmm0, (%rax,%rcx,4)
	movss	-68(%rbp), %xmm0        # xmm0 = mem[0],zero,zero,zero
	movq	-32(%rbp), %rax
	movslq	-24(%rbp), %rcx
	movq	(%rax,%rcx,8), %rax
	movslq	-8(%rbp), %rcx
	movss	%xmm0, (%rax,%rcx,4)
# %bb.59:                               #   in Loop: Header=BB36_57 Depth=2
	movl	-24(%rbp), %eax
	addl	$1, %eax
	movl	%eax, -24(%rbp)
	jmp	.LBB36_57
.LBB36_60:                              #   in Loop: Header=BB36_19 Depth=1
	movq	-40(%rbp), %rax
	movl	-4(%rbp), %ecx
	subl	$2, %ecx
	movslq	%ecx, %rcx
	movl	(%rax,%rcx,4), %eax
	movl	%eax, -60(%rbp)
	movq	-40(%rbp), %rax
	movslq	-8(%rbp), %rcx
	movl	(%rax,%rcx,4), %eax
	movq	-40(%rbp), %rcx
	movl	-4(%rbp), %edx
	subl	$2, %edx
	movslq	%edx, %rdx
	movl	%eax, (%rcx,%rdx,4)
	movl	-60(%rbp), %eax
	movq	-40(%rbp), %rcx
	movslq	-8(%rbp), %rdx
	movl	%eax, (%rcx,%rdx,4)
.LBB36_61:                              #   in Loop: Header=BB36_19 Depth=1
	movl	-16(%rbp), %eax
	movl	-4(%rbp), %ecx
	subl	$1, %ecx
	cmpl	%ecx, %eax
	je	.LBB36_67
# %bb.62:                               #   in Loop: Header=BB36_19 Depth=1
	movq	-32(%rbp), %rax
	movl	-4(%rbp), %ecx
	subl	$1, %ecx
	movslq	%ecx, %rcx
	movq	(%rax,%rcx,8), %rax
	movq	%rax, -88(%rbp)
	movq	-32(%rbp), %rax
	movslq	-16(%rbp), %rcx
	movq	(%rax,%rcx,8), %rax
	movq	-32(%rbp), %rcx
	movl	-4(%rbp), %edx
	subl	$1, %edx
	movslq	%edx, %rdx
	movq	%rax, (%rcx,%rdx,8)
	movq	-88(%rbp), %rax
	movq	-32(%rbp), %rcx
	movslq	-16(%rbp), %rdx
	movq	%rax, (%rcx,%rdx,8)
	movl	$0, -24(%rbp)
.LBB36_63:                              #   Parent Loop BB36_19 Depth=1
                                        # =>  This Inner Loop Header: Depth=2
	movl	-24(%rbp), %eax
	cmpl	-4(%rbp), %eax
	jge	.LBB36_66
# %bb.64:                               #   in Loop: Header=BB36_63 Depth=2
	movq	-32(%rbp), %rax
	movslq	-24(%rbp), %rcx
	movq	(%rax,%rcx,8), %rax
	movl	-4(%rbp), %ecx
	subl	$1, %ecx
	movslq	%ecx, %rcx
	movss	(%rax,%rcx,4), %xmm0    # xmm0 = mem[0],zero,zero,zero
	movss	%xmm0, -68(%rbp)
	movq	-32(%rbp), %rax
	movslq	-24(%rbp), %rcx
	movq	(%rax,%rcx,8), %rax
	movslq	-16(%rbp), %rcx
	movss	(%rax,%rcx,4), %xmm0    # xmm0 = mem[0],zero,zero,zero
	movq	-32(%rbp), %rax
	movslq	-24(%rbp), %rcx
	movq	(%rax,%rcx,8), %rax
	movl	-4(%rbp), %ecx
	subl	$1, %ecx
	movslq	%ecx, %rcx
	movss	%xmm0, (%rax,%rcx,4)
	movss	-68(%rbp), %xmm0        # xmm0 = mem[0],zero,zero,zero
	movq	-32(%rbp), %rax
	movslq	-24(%rbp), %rcx
	movq	(%rax,%rcx,8), %rax
	movslq	-16(%rbp), %rcx
	movss	%xmm0, (%rax,%rcx,4)
# %bb.65:                               #   in Loop: Header=BB36_63 Depth=2
	movl	-24(%rbp), %eax
	addl	$1, %eax
	movl	%eax, -24(%rbp)
	jmp	.LBB36_63
.LBB36_66:                              #   in Loop: Header=BB36_19 Depth=1
	movq	-40(%rbp), %rax
	movl	-4(%rbp), %ecx
	subl	$1, %ecx
	movslq	%ecx, %rcx
	movl	(%rax,%rcx,4), %eax
	movl	%eax, -60(%rbp)
	movq	-40(%rbp), %rax
	movslq	-16(%rbp), %rcx
	movl	(%rax,%rcx,4), %eax
	movq	-40(%rbp), %rcx
	movl	-4(%rbp), %edx
	subl	$1, %edx
	movslq	%edx, %rdx
	movl	%eax, (%rcx,%rdx,4)
	movl	-60(%rbp), %eax
	movq	-40(%rbp), %rcx
	movslq	-16(%rbp), %rdx
	movl	%eax, (%rcx,%rdx,4)
.LBB36_67:                              #   in Loop: Header=BB36_19 Depth=1
	movl	-4(%rbp), %eax
	subl	$2, %eax
	movl	%eax, -8(%rbp)
	movl	-4(%rbp), %eax
	subl	$1, %eax
	movl	%eax, -16(%rbp)
	movl	$0, -12(%rbp)
.LBB36_68:                              #   Parent Loop BB36_19 Depth=1
                                        # =>  This Inner Loop Header: Depth=2
	movl	-12(%rbp), %eax
	cmpl	-4(%rbp), %eax
	jge	.LBB36_84
# %bb.69:                               #   in Loop: Header=BB36_68 Depth=2
	movl	-92(%rbp), %eax
	testl	%eax, %eax
	je	.LBB36_72
	jmp	.LBB36_70
.LBB36_70:                              #   in Loop: Header=BB36_68 Depth=2
	movl	%eax, %ecx
	subl	$1, %ecx
	je	.LBB36_77
	jmp	.LBB36_71
.LBB36_71:                              #   in Loop: Header=BB36_68 Depth=2
	subl	$2, %eax
	je	.LBB36_73
	jmp	.LBB36_81
.LBB36_72:                              #   in Loop: Header=BB36_68 Depth=2
	movsd	.LCPI36_1(%rip), %xmm0  # xmm0 = mem[0],zero
	movq	-32(%rbp), %rax
	movslq	-8(%rbp), %rcx
	movq	(%rax,%rcx,8), %rax
	movslq	-12(%rbp), %rcx
	movss	(%rax,%rcx,4), %xmm1    # xmm1 = mem[0],zero,zero,zero
	movq	-32(%rbp), %rax
	movslq	-16(%rbp), %rcx
	movq	(%rax,%rcx,8), %rax
	movslq	-12(%rbp), %rcx
	addss	(%rax,%rcx,4), %xmm1
	cvtss2sd	%xmm1, %xmm1
	divsd	%xmm0, %xmm1
	cvtsd2ss	%xmm1, %xmm0
	movq	-32(%rbp), %rax
	movslq	-8(%rbp), %rcx
	movq	(%rax,%rcx,8), %rax
	movslq	-12(%rbp), %rcx
	movss	%xmm0, (%rax,%rcx,4)
	jmp	.LBB36_82
.LBB36_73:                              #   in Loop: Header=BB36_68 Depth=2
	movq	-32(%rbp), %rax
	movslq	-8(%rbp), %rcx
	movq	(%rax,%rcx,8), %rax
	movslq	-12(%rbp), %rcx
	movss	(%rax,%rcx,4), %xmm0    # xmm0 = mem[0],zero,zero,zero
	movq	-32(%rbp), %rax
	movslq	-16(%rbp), %rcx
	movq	(%rax,%rcx,8), %rax
	movslq	-12(%rbp), %rcx
	movss	(%rax,%rcx,4), %xmm1    # xmm1 = mem[0],zero,zero,zero
	ucomiss	%xmm0, %xmm1
	jbe	.LBB36_75
# %bb.74:                               #   in Loop: Header=BB36_68 Depth=2
	movq	-32(%rbp), %rax
	movslq	-8(%rbp), %rcx
	movq	(%rax,%rcx,8), %rax
	movslq	-12(%rbp), %rcx
	movss	(%rax,%rcx,4), %xmm0    # xmm0 = mem[0],zero,zero,zero
	jmp	.LBB36_76
.LBB36_75:                              #   in Loop: Header=BB36_68 Depth=2
	movq	-32(%rbp), %rax
	movslq	-16(%rbp), %rcx
	movq	(%rax,%rcx,8), %rax
	movslq	-12(%rbp), %rcx
	movss	(%rax,%rcx,4), %xmm0    # xmm0 = mem[0],zero,zero,zero
.LBB36_76:                              #   in Loop: Header=BB36_68 Depth=2
	movq	-32(%rbp), %rax
	movslq	-8(%rbp), %rcx
	movq	(%rax,%rcx,8), %rax
	movslq	-12(%rbp), %rcx
	movss	%xmm0, (%rax,%rcx,4)
	jmp	.LBB36_82
.LBB36_77:                              #   in Loop: Header=BB36_68 Depth=2
	movq	-32(%rbp), %rax
	movslq	-8(%rbp), %rcx
	movq	(%rax,%rcx,8), %rax
	movslq	-12(%rbp), %rcx
	movss	(%rax,%rcx,4), %xmm0    # xmm0 = mem[0],zero,zero,zero
	movq	-32(%rbp), %rax
	movslq	-16(%rbp), %rcx
	movq	(%rax,%rcx,8), %rax
	movslq	-12(%rbp), %rcx
	ucomiss	(%rax,%rcx,4), %xmm0
	jbe	.LBB36_79
# %bb.78:                               #   in Loop: Header=BB36_68 Depth=2
	movq	-32(%rbp), %rax
	movslq	-8(%rbp), %rcx
	movq	(%rax,%rcx,8), %rax
	movslq	-12(%rbp), %rcx
	movss	(%rax,%rcx,4), %xmm0    # xmm0 = mem[0],zero,zero,zero
	jmp	.LBB36_80
.LBB36_79:                              #   in Loop: Header=BB36_68 Depth=2
	movq	-32(%rbp), %rax
	movslq	-16(%rbp), %rcx
	movq	(%rax,%rcx,8), %rax
	movslq	-12(%rbp), %rcx
	movss	(%rax,%rcx,4), %xmm0    # xmm0 = mem[0],zero,zero,zero
.LBB36_80:                              #   in Loop: Header=BB36_68 Depth=2
	movq	-32(%rbp), %rax
	movslq	-8(%rbp), %rcx
	movq	(%rax,%rcx,8), %rax
	movslq	-12(%rbp), %rcx
	movss	%xmm0, (%rax,%rcx,4)
	jmp	.LBB36_82
.LBB36_81:                              #   in Loop: Header=BB36_68 Depth=2
	movsd	.LCPI36_1(%rip), %xmm0  # xmm0 = mem[0],zero
	movq	-32(%rbp), %rax
	movslq	-8(%rbp), %rcx
	movq	(%rax,%rcx,8), %rax
	movslq	-12(%rbp), %rcx
	movss	(%rax,%rcx,4), %xmm1    # xmm1 = mem[0],zero,zero,zero
	movq	-32(%rbp), %rax
	movslq	-16(%rbp), %rcx
	movq	(%rax,%rcx,8), %rax
	movslq	-12(%rbp), %rcx
	addss	(%rax,%rcx,4), %xmm1
	cvtss2sd	%xmm1, %xmm1
	divsd	%xmm0, %xmm1
	cvtsd2ss	%xmm1, %xmm0
	movq	-32(%rbp), %rax
	movslq	-8(%rbp), %rcx
	movq	(%rax,%rcx,8), %rax
	movslq	-12(%rbp), %rcx
	movss	%xmm0, (%rax,%rcx,4)
.LBB36_82:                              #   in Loop: Header=BB36_68 Depth=2
	jmp	.LBB36_83
.LBB36_83:                              #   in Loop: Header=BB36_68 Depth=2
	movl	-12(%rbp), %eax
	addl	$1, %eax
	movl	%eax, -12(%rbp)
	jmp	.LBB36_68
.LBB36_84:                              #   in Loop: Header=BB36_19 Depth=1
	movl	$0, -12(%rbp)
.LBB36_85:                              #   Parent Loop BB36_19 Depth=1
                                        # =>  This Inner Loop Header: Depth=2
	movl	-12(%rbp), %eax
	cmpl	-4(%rbp), %eax
	jge	.LBB36_88
# %bb.86:                               #   in Loop: Header=BB36_85 Depth=2
	movq	-32(%rbp), %rax
	movslq	-8(%rbp), %rcx
	movq	(%rax,%rcx,8), %rax
	movslq	-12(%rbp), %rcx
	movss	(%rax,%rcx,4), %xmm0    # xmm0 = mem[0],zero,zero,zero
	movq	-32(%rbp), %rax
	movslq	-12(%rbp), %rcx
	movq	(%rax,%rcx,8), %rax
	movslq	-8(%rbp), %rcx
	movss	%xmm0, (%rax,%rcx,4)
# %bb.87:                               #   in Loop: Header=BB36_85 Depth=2
	movl	-12(%rbp), %eax
	addl	$1, %eax
	movl	%eax, -12(%rbp)
	jmp	.LBB36_85
.LBB36_88:                              #   in Loop: Header=BB36_19 Depth=1
	movl	-4(%rbp), %eax
	addl	-20(%rbp), %eax
	subl	$2, %eax
	movq	-40(%rbp), %rcx
	movl	-4(%rbp), %edx
	subl	$2, %edx
	movslq	%edx, %rdx
	movl	%eax, (%rcx,%rdx,4)
# %bb.89:                               #   in Loop: Header=BB36_19 Depth=1
	movl	-4(%rbp), %eax
	addl	$-1, %eax
	movl	%eax, -4(%rbp)
	jmp	.LBB36_19
.LBB36_90:
	movq	-32(%rbp), %rdi
	movl	-20(%rbp), %esi
	callq	Free2DArray
	movq	-40(%rbp), %rdi
	callq	free
	movq	-80(%rbp), %rdi
	callq	free
	movq	-56(%rbp), %rax
	movq	-104(%rbp), %rcx
	movq	%rax, (%rcx)
	movl	$1, %eax
	addq	$112, %rsp
	popq	%rbp
	retq
.Lfunc_end36:
	.size	Cluster, .Lfunc_end36-Cluster
	.cfi_endproc
                                        # -- End function
	.globl	AllocPhylo              # -- Begin function AllocPhylo
	.p2align	4, 0x90
	.type	AllocPhylo,@function
AllocPhylo:                             # @AllocPhylo
	.cfi_startproc
# %bb.0:
	pushq	%rbp
	.cfi_def_cfa_offset 16
	.cfi_offset %rbp, -16
	movq	%rsp, %rbp
	.cfi_def_cfa_register %rbp
	subq	$32, %rsp
	movl	%edi, -20(%rbp)
	movl	-20(%rbp), %eax
	subl	$1, %eax
	cltq
	imulq	$40, %rax, %rdi
	callq	malloc
	movq	%rax, -16(%rbp)
	cmpq	$0, %rax
	jne	.LBB37_2
# %bb.1:
	movq	$0, -32(%rbp)
	jmp	.LBB37_9
.LBB37_2:
	movl	$0, -4(%rbp)
.LBB37_3:                               # =>This Inner Loop Header: Depth=1
	movl	-4(%rbp), %eax
	movl	-20(%rbp), %ecx
	subl	$1, %ecx
	cmpl	%ecx, %eax
	jge	.LBB37_8
# %bb.4:                                #   in Loop: Header=BB37_3 Depth=1
	xorps	%xmm0, %xmm0
	movq	-16(%rbp), %rax
	movslq	-4(%rbp), %rcx
	imulq	$40, %rcx, %rcx
	addq	%rcx, %rax
	movss	%xmm0, 12(%rax)
	movq	-16(%rbp), %rax
	movslq	-4(%rbp), %rcx
	imulq	$40, %rcx, %rcx
	addq	%rcx, %rax
	movss	%xmm0, 20(%rax)
	movq	-16(%rbp), %rax
	movslq	-4(%rbp), %rcx
	imulq	$40, %rcx, %rcx
	addq	%rcx, %rax
	movss	%xmm0, 16(%rax)
	movq	-16(%rbp), %rax
	movslq	-4(%rbp), %rcx
	imulq	$40, %rcx, %rcx
	addq	%rcx, %rax
	movl	$-1, (%rax)
	movq	-16(%rbp), %rax
	movslq	-4(%rbp), %rcx
	imulq	$40, %rcx, %rcx
	addq	%rcx, %rax
	movl	$-1, 8(%rax)
	movq	-16(%rbp), %rax
	movslq	-4(%rbp), %rcx
	imulq	$40, %rcx, %rcx
	addq	%rcx, %rax
	movl	$-1, 4(%rax)
	movq	-16(%rbp), %rax
	movslq	-4(%rbp), %rcx
	imulq	$40, %rcx, %rcx
	addq	%rcx, %rax
	movl	$0, 32(%rax)
	movslq	-20(%rbp), %rdi
	movl	$1, %esi
	callq	calloc
	movq	-16(%rbp), %rcx
	movslq	-4(%rbp), %rdx
	imulq	$40, %rdx, %rdx
	addq	%rdx, %rcx
	movq	%rax, 24(%rcx)
	cmpq	$0, %rax
	jne	.LBB37_6
# %bb.5:
	movq	$0, -32(%rbp)
	jmp	.LBB37_9
.LBB37_6:                               #   in Loop: Header=BB37_3 Depth=1
	jmp	.LBB37_7
.LBB37_7:                               #   in Loop: Header=BB37_3 Depth=1
	movl	-4(%rbp), %eax
	addl	$1, %eax
	movl	%eax, -4(%rbp)
	jmp	.LBB37_3
.LBB37_8:
	movq	-16(%rbp), %rax
	movq	%rax, -32(%rbp)
.LBB37_9:
	movq	-32(%rbp), %rax
	addq	$32, %rsp
	popq	%rbp
	retq
.Lfunc_end37:
	.size	AllocPhylo, .Lfunc_end37-AllocPhylo
	.cfi_endproc
                                        # -- End function
	.globl	FreePhylo               # -- Begin function FreePhylo
	.p2align	4, 0x90
	.type	FreePhylo,@function
FreePhylo:                              # @FreePhylo
	.cfi_startproc
# %bb.0:
	pushq	%rbp
	.cfi_def_cfa_offset 16
	.cfi_offset %rbp, -16
	movq	%rsp, %rbp
	.cfi_def_cfa_register %rbp
	subq	$16, %rsp
	movq	%rdi, -16(%rbp)
	movl	%esi, -8(%rbp)
	movl	$0, -4(%rbp)
.LBB38_1:                               # =>This Inner Loop Header: Depth=1
	movl	-4(%rbp), %eax
	movl	-8(%rbp), %ecx
	subl	$1, %ecx
	cmpl	%ecx, %eax
	jge	.LBB38_4
# %bb.2:                                #   in Loop: Header=BB38_1 Depth=1
	movq	-16(%rbp), %rax
	movslq	-4(%rbp), %rcx
	imulq	$40, %rcx, %rcx
	addq	%rcx, %rax
	movq	24(%rax), %rdi
	callq	free
# %bb.3:                                #   in Loop: Header=BB38_1 Depth=1
	movl	-4(%rbp), %eax
	addl	$1, %eax
	movl	%eax, -4(%rbp)
	jmp	.LBB38_1
.LBB38_4:
	movq	-16(%rbp), %rdi
	callq	free
	addq	$16, %rsp
	popq	%rbp
	retq
.Lfunc_end38:
	.size	FreePhylo, .Lfunc_end38-FreePhylo
	.cfi_endproc
                                        # -- End function
	.section	.rodata.cst8,"aM",@progbits,8
	.p2align	3               # -- Begin function MakeDiffMx
.LCPI39_0:
	.quad	4607182418800017408     # double 1
	.text
	.globl	MakeDiffMx
	.p2align	4, 0x90
	.type	MakeDiffMx,@function
MakeDiffMx:                             # @MakeDiffMx
	.cfi_startproc
# %bb.0:
	pushq	%rbp
	.cfi_def_cfa_offset 16
	.cfi_offset %rbp, -16
	movq	%rsp, %rbp
	.cfi_def_cfa_register %rbp
	subq	$48, %rsp
	movq	%rdi, -32(%rbp)
	movl	%esi, -12(%rbp)
	movq	%rdx, -40(%rbp)
	movl	-12(%rbp), %edi
	movl	-12(%rbp), %esi
	callq	FMX2Alloc
	movq	%rax, -24(%rbp)
	movl	$0, -4(%rbp)
.LBB39_1:                               # =>This Loop Header: Depth=1
                                        #     Child Loop BB39_3 Depth 2
	movl	-4(%rbp), %eax
	cmpl	-12(%rbp), %eax
	jge	.LBB39_8
# %bb.2:                                #   in Loop: Header=BB39_1 Depth=1
	movl	-4(%rbp), %eax
	movl	%eax, -8(%rbp)
.LBB39_3:                               #   Parent Loop BB39_1 Depth=1
                                        # =>  This Inner Loop Header: Depth=2
	movl	-8(%rbp), %eax
	cmpl	-12(%rbp), %eax
	jge	.LBB39_6
# %bb.4:                                #   in Loop: Header=BB39_3 Depth=2
	movq	-32(%rbp), %rax
	movslq	-4(%rbp), %rcx
	movq	(%rax,%rcx,8), %rdi
	movq	-32(%rbp), %rax
	movslq	-8(%rbp), %rcx
	movq	(%rax,%rcx,8), %rsi
	callq	PairwiseIdentity
	movsd	.LCPI39_0(%rip), %xmm1  # xmm1 = mem[0],zero
	cvtss2sd	%xmm0, %xmm0
	subsd	%xmm0, %xmm1
	cvtsd2ss	%xmm1, %xmm0
	movq	-24(%rbp), %rax
	movslq	-8(%rbp), %rcx
	movq	(%rax,%rcx,8), %rax
	movslq	-4(%rbp), %rcx
	movss	%xmm0, (%rax,%rcx,4)
	movq	-24(%rbp), %rax
	movslq	-4(%rbp), %rcx
	movq	(%rax,%rcx,8), %rax
	movslq	-8(%rbp), %rcx
	movss	%xmm0, (%rax,%rcx,4)
# %bb.5:                                #   in Loop: Header=BB39_3 Depth=2
	movl	-8(%rbp), %eax
	addl	$1, %eax
	movl	%eax, -8(%rbp)
	jmp	.LBB39_3
.LBB39_6:                               #   in Loop: Header=BB39_1 Depth=1
	jmp	.LBB39_7
.LBB39_7:                               #   in Loop: Header=BB39_1 Depth=1
	movl	-4(%rbp), %eax
	addl	$1, %eax
	movl	%eax, -4(%rbp)
	jmp	.LBB39_1
.LBB39_8:
	movq	-24(%rbp), %rax
	movq	-40(%rbp), %rcx
	movq	%rax, (%rcx)
	addq	$48, %rsp
	popq	%rbp
	retq
.Lfunc_end39:
	.size	MakeDiffMx, .Lfunc_end39-MakeDiffMx
	.cfi_endproc
                                        # -- End function
	.globl	MakeIdentityMx          # -- Begin function MakeIdentityMx
	.p2align	4, 0x90
	.type	MakeIdentityMx,@function
MakeIdentityMx:                         # @MakeIdentityMx
	.cfi_startproc
# %bb.0:
	pushq	%rbp
	.cfi_def_cfa_offset 16
	.cfi_offset %rbp, -16
	movq	%rsp, %rbp
	.cfi_def_cfa_register %rbp
	subq	$48, %rsp
	movq	%rdi, -32(%rbp)
	movl	%esi, -12(%rbp)
	movq	%rdx, -40(%rbp)
	movl	-12(%rbp), %edi
	movl	-12(%rbp), %esi
	callq	FMX2Alloc
	movq	%rax, -24(%rbp)
	movl	$0, -4(%rbp)
.LBB40_1:                               # =>This Loop Header: Depth=1
                                        #     Child Loop BB40_3 Depth 2
	movl	-4(%rbp), %eax
	cmpl	-12(%rbp), %eax
	jge	.LBB40_8
# %bb.2:                                #   in Loop: Header=BB40_1 Depth=1
	movl	-4(%rbp), %eax
	movl	%eax, -8(%rbp)
.LBB40_3:                               #   Parent Loop BB40_1 Depth=1
                                        # =>  This Inner Loop Header: Depth=2
	movl	-8(%rbp), %eax
	cmpl	-12(%rbp), %eax
	jge	.LBB40_6
# %bb.4:                                #   in Loop: Header=BB40_3 Depth=2
	movq	-32(%rbp), %rax
	movslq	-4(%rbp), %rcx
	movq	(%rax,%rcx,8), %rdi
	movq	-32(%rbp), %rax
	movslq	-8(%rbp), %rcx
	movq	(%rax,%rcx,8), %rsi
	callq	PairwiseIdentity
	movq	-24(%rbp), %rax
	movslq	-8(%rbp), %rcx
	movq	(%rax,%rcx,8), %rax
	movslq	-4(%rbp), %rcx
	movss	%xmm0, (%rax,%rcx,4)
	movq	-24(%rbp), %rax
	movslq	-4(%rbp), %rcx
	movq	(%rax,%rcx,8), %rax
	movslq	-8(%rbp), %rcx
	movss	%xmm0, (%rax,%rcx,4)
# %bb.5:                                #   in Loop: Header=BB40_3 Depth=2
	movl	-8(%rbp), %eax
	addl	$1, %eax
	movl	%eax, -8(%rbp)
	jmp	.LBB40_3
.LBB40_6:                               #   in Loop: Header=BB40_1 Depth=1
	jmp	.LBB40_7
.LBB40_7:                               #   in Loop: Header=BB40_1 Depth=1
	movl	-4(%rbp), %eax
	addl	$1, %eax
	movl	%eax, -4(%rbp)
	jmp	.LBB40_1
.LBB40_8:
	movq	-24(%rbp), %rax
	movq	-40(%rbp), %rcx
	movq	%rax, (%rcx)
	addq	$48, %rsp
	popq	%rbp
	retq
.Lfunc_end40:
	.size	MakeIdentityMx, .Lfunc_end40-MakeIdentityMx
	.cfi_endproc
                                        # -- End function
	.globl	PrintNewHampshireTree   # -- Begin function PrintNewHampshireTree
	.p2align	4, 0x90
	.type	PrintNewHampshireTree,@function
PrintNewHampshireTree:                  # @PrintNewHampshireTree
	.cfi_startproc
# %bb.0:
	pushq	%rbp
	.cfi_def_cfa_offset 16
	.cfi_offset %rbp, -16
	movq	%rsp, %rbp
	.cfi_def_cfa_register %rbp
	subq	$64, %rsp
	movabsq	$.L.str.33, %rax
	movq	%rdi, -40(%rbp)
	movq	%rsi, -56(%rbp)
	movq	%rdx, -32(%rbp)
	movl	%ecx, -8(%rbp)
	movl	-8(%rbp), %ecx
	shll	$1, %ecx
	subl	$1, %ecx
	movslq	%ecx, %rdx
	shlq	$2, %rdx
	movq	%rax, %rdi
	movl	$464, %esi              # imm = 0x1D0
	callq	sre_malloc
	movq	%rax, -48(%rbp)
	callq	InitIntStack
	movq	%rax, -24(%rbp)
	movq	-24(%rbp), %rdi
	movl	-8(%rbp), %esi
	callq	PushIntStack
	movl	$0, -12(%rbp)
.LBB41_1:                               # =>This Inner Loop Header: Depth=1
	leaq	-4(%rbp), %rsi
	movq	-24(%rbp), %rdi
	callq	PopIntStack
	cmpl	$0, %eax
	je	.LBB41_16
# %bb.2:                                #   in Loop: Header=BB41_1 Depth=1
	movl	-4(%rbp), %eax
	cmpl	-8(%rbp), %eax
	jge	.LBB41_6
# %bb.3:                                #   in Loop: Header=BB41_1 Depth=1
	cmpl	$0, -12(%rbp)
	je	.LBB41_5
# %bb.4:                                #   in Loop: Header=BB41_1 Depth=1
	movabsq	$.L.str.2.35, %rdi
	movq	-40(%rbp), %rsi
	callq	fputs
.LBB41_5:                               #   in Loop: Header=BB41_1 Depth=1
	movabsq	$.L.str.3.36, %rsi
	movq	-40(%rbp), %rdi
	movq	-56(%rbp), %rax
	movq	40(%rax), %rdx
	movslq	-4(%rbp), %rax
	imulq	$360, %rax, %rax        # imm = 0x168
	addq	%rax, %rdx
	addq	$4, %rdx
	movq	-48(%rbp), %rax
	movslq	-4(%rbp), %rcx
	movss	(%rax,%rcx,4), %xmm0    # xmm0 = mem[0],zero,zero,zero
	cvtss2sd	%xmm0, %xmm0
	movb	$1, %al
	callq	fprintf
	movl	$1, -12(%rbp)
	jmp	.LBB41_15
.LBB41_6:                               #   in Loop: Header=BB41_1 Depth=1
	movl	-4(%rbp), %eax
	movl	-8(%rbp), %ecx
	shll	$1, %ecx
	cmpl	%ecx, %eax
	jge	.LBB41_10
# %bb.7:                                #   in Loop: Header=BB41_1 Depth=1
	cmpl	$0, -12(%rbp)
	je	.LBB41_9
# %bb.8:                                #   in Loop: Header=BB41_1 Depth=1
	movabsq	$.L.str.4.37, %rdi
	movq	-40(%rbp), %rsi
	callq	fputs
.LBB41_9:                               #   in Loop: Header=BB41_1 Depth=1
	movabsq	$.L.str.5.38, %rdi
	movq	-40(%rbp), %rsi
	callq	fputs
	movq	-24(%rbp), %rdi
	movl	-4(%rbp), %esi
	addl	-8(%rbp), %esi
	callq	PushIntStack
	movq	-24(%rbp), %rdi
	movq	-32(%rbp), %rax
	movl	-4(%rbp), %ecx
	subl	-8(%rbp), %ecx
	movslq	%ecx, %rcx
	imulq	$40, %rcx, %rcx
	addq	%rcx, %rax
	movl	8(%rax), %esi
	callq	PushIntStack
	movq	-24(%rbp), %rdi
	movq	-32(%rbp), %rax
	movl	-4(%rbp), %ecx
	subl	-8(%rbp), %ecx
	movslq	%ecx, %rcx
	imulq	$40, %rcx, %rcx
	addq	%rcx, %rax
	movl	4(%rax), %esi
	callq	PushIntStack
	movq	-32(%rbp), %rax
	movl	-4(%rbp), %ecx
	subl	-8(%rbp), %ecx
	movslq	%ecx, %rcx
	imulq	$40, %rcx, %rcx
	addq	%rcx, %rax
	movss	20(%rax), %xmm0         # xmm0 = mem[0],zero,zero,zero
	movq	-48(%rbp), %rax
	movq	-32(%rbp), %rcx
	movl	-4(%rbp), %edx
	subl	-8(%rbp), %edx
	movslq	%edx, %rdx
	imulq	$40, %rdx, %rdx
	addq	%rdx, %rcx
	movslq	8(%rcx), %rcx
	movss	%xmm0, (%rax,%rcx,4)
	movq	-32(%rbp), %rax
	movl	-4(%rbp), %ecx
	subl	-8(%rbp), %ecx
	movslq	%ecx, %rcx
	imulq	$40, %rcx, %rcx
	addq	%rcx, %rax
	movss	16(%rax), %xmm0         # xmm0 = mem[0],zero,zero,zero
	movq	-48(%rbp), %rax
	movq	-32(%rbp), %rcx
	movl	-4(%rbp), %edx
	subl	-8(%rbp), %edx
	movslq	%edx, %rdx
	imulq	$40, %rdx, %rdx
	addq	%rdx, %rcx
	movslq	4(%rcx), %rcx
	movss	%xmm0, (%rax,%rcx,4)
	movl	$0, -12(%rbp)
	jmp	.LBB41_14
.LBB41_10:                              #   in Loop: Header=BB41_1 Depth=1
	movl	-4(%rbp), %eax
	movl	-8(%rbp), %ecx
	shll	$1, %ecx
	cmpl	%ecx, %eax
	jne	.LBB41_12
# %bb.11:                               #   in Loop: Header=BB41_1 Depth=1
	movabsq	$.L.str.6.39, %rsi
	movq	-40(%rbp), %rdi
	movb	$0, %al
	callq	fprintf
	jmp	.LBB41_13
.LBB41_12:                              #   in Loop: Header=BB41_1 Depth=1
	movabsq	$.L.str.7.40, %rsi
	movq	-40(%rbp), %rdi
	movq	-48(%rbp), %rax
	movl	-4(%rbp), %ecx
	subl	-8(%rbp), %ecx
	movslq	%ecx, %rcx
	movss	(%rax,%rcx,4), %xmm0    # xmm0 = mem[0],zero,zero,zero
	cvtss2sd	%xmm0, %xmm0
	movb	$1, %al
	callq	fprintf
.LBB41_13:                              #   in Loop: Header=BB41_1 Depth=1
	movl	$1, -12(%rbp)
.LBB41_14:                              #   in Loop: Header=BB41_1 Depth=1
	jmp	.LBB41_15
.LBB41_15:                              #   in Loop: Header=BB41_1 Depth=1
	jmp	.LBB41_1
.LBB41_16:
	movq	-24(%rbp), %rdi
	callq	FreeIntStack
	movq	-48(%rbp), %rdi
	callq	free
	addq	$64, %rsp
	popq	%rbp
	retq
.Lfunc_end41:
	.size	PrintNewHampshireTree, .Lfunc_end41-PrintNewHampshireTree
	.cfi_endproc
                                        # -- End function
	.globl	PrintPhylo              # -- Begin function PrintPhylo
	.p2align	4, 0x90
	.type	PrintPhylo,@function
PrintPhylo:                             # @PrintPhylo
	.cfi_startproc
# %bb.0:
	pushq	%rbp
	.cfi_def_cfa_offset 16
	.cfi_offset %rbp, -16
	movq	%rsp, %rbp
	.cfi_def_cfa_register %rbp
	subq	$32, %rsp
	movq	%rdi, -24(%rbp)
	movq	%rsi, -32(%rbp)
	movq	%rdx, -16(%rbp)
	movl	%ecx, -8(%rbp)
	movl	$0, -4(%rbp)
.LBB42_1:                               # =>This Inner Loop Header: Depth=1
	movl	-4(%rbp), %eax
	movl	-8(%rbp), %ecx
	subl	$1, %ecx
	cmpl	%ecx, %eax
	jge	.LBB42_16
# %bb.2:                                #   in Loop: Header=BB42_1 Depth=1
	movabsq	$.L.str.8.41, %rsi
	movq	-24(%rbp), %rdi
	movl	-4(%rbp), %edx
	movl	-4(%rbp), %ecx
	addl	-8(%rbp), %ecx
	movb	$0, %al
	callq	fprintf
	movabsq	$.L.str.9.42, %rsi
	movq	-24(%rbp), %rdi
	movq	-16(%rbp), %rax
	movslq	-4(%rbp), %rcx
	imulq	$40, %rcx, %rcx
	addq	%rcx, %rax
	movl	(%rax), %edx
	subl	-8(%rbp), %edx
	movq	-16(%rbp), %rax
	movslq	-4(%rbp), %rcx
	imulq	$40, %rcx, %rcx
	addq	%rcx, %rax
	movl	(%rax), %ecx
	movb	$0, %al
	callq	fprintf
	movq	-24(%rbp), %rdi
	movq	-16(%rbp), %rax
	movslq	-4(%rbp), %rcx
	imulq	$40, %rcx, %rcx
	addq	%rcx, %rax
	movl	4(%rax), %eax
	cmpl	-8(%rbp), %eax
	jge	.LBB42_4
# %bb.3:                                #   in Loop: Header=BB42_1 Depth=1
	movq	-16(%rbp), %rax
	movslq	-4(%rbp), %rcx
	imulq	$40, %rcx, %rcx
	addq	%rcx, %rax
	movl	4(%rax), %edx
	subl	-8(%rbp), %edx
	jmp	.LBB42_5
.LBB42_4:                               #   in Loop: Header=BB42_1 Depth=1
	movq	-16(%rbp), %rax
	movslq	-4(%rbp), %rcx
	imulq	$40, %rcx, %rcx
	addq	%rcx, %rax
	movl	4(%rax), %edx
.LBB42_5:                               #   in Loop: Header=BB42_1 Depth=1
	movq	-16(%rbp), %rax
	movslq	-4(%rbp), %rcx
	imulq	$40, %rcx, %rcx
	addq	%rcx, %rax
	movl	4(%rax), %eax
	cmpl	-8(%rbp), %eax
	jge	.LBB42_7
# %bb.6:                                #   in Loop: Header=BB42_1 Depth=1
	movq	-32(%rbp), %rax
	movq	40(%rax), %rcx
	movq	-16(%rbp), %rax
	movslq	-4(%rbp), %rsi
	imulq	$40, %rsi, %rsi
	addq	%rsi, %rax
	movslq	4(%rax), %rax
	imulq	$360, %rax, %rax        # imm = 0x168
	addq	%rax, %rcx
	addq	$4, %rcx
	jmp	.LBB42_8
.LBB42_7:                               #   in Loop: Header=BB42_1 Depth=1
	movabsq	$.L.str.11.43, %rcx
	jmp	.LBB42_8
.LBB42_8:                               #   in Loop: Header=BB42_1 Depth=1
	movabsq	$.L.str.10.44, %rsi
	movq	-16(%rbp), %r8
	movslq	-4(%rbp), %rax
	imulq	$40, %rax, %rax
	addq	%rax, %r8
	movss	16(%r8), %xmm0          # xmm0 = mem[0],zero,zero,zero
	cvtss2sd	%xmm0, %xmm0
	movb	$1, %al
	callq	fprintf
	movq	-24(%rbp), %rdi
	movq	-16(%rbp), %rax
	movslq	-4(%rbp), %rcx
	imulq	$40, %rcx, %rcx
	addq	%rcx, %rax
	movl	8(%rax), %eax
	cmpl	-8(%rbp), %eax
	jge	.LBB42_10
# %bb.9:                                #   in Loop: Header=BB42_1 Depth=1
	movq	-16(%rbp), %rax
	movslq	-4(%rbp), %rcx
	imulq	$40, %rcx, %rcx
	addq	%rcx, %rax
	movl	8(%rax), %edx
	subl	-8(%rbp), %edx
	jmp	.LBB42_11
.LBB42_10:                              #   in Loop: Header=BB42_1 Depth=1
	movq	-16(%rbp), %rax
	movslq	-4(%rbp), %rcx
	imulq	$40, %rcx, %rcx
	addq	%rcx, %rax
	movl	8(%rax), %edx
.LBB42_11:                              #   in Loop: Header=BB42_1 Depth=1
	movq	-16(%rbp), %rax
	movslq	-4(%rbp), %rcx
	imulq	$40, %rcx, %rcx
	addq	%rcx, %rax
	movl	8(%rax), %eax
	cmpl	-8(%rbp), %eax
	jge	.LBB42_13
# %bb.12:                               #   in Loop: Header=BB42_1 Depth=1
	movq	-32(%rbp), %rax
	movq	40(%rax), %rcx
	movq	-16(%rbp), %rax
	movslq	-4(%rbp), %rsi
	imulq	$40, %rsi, %rsi
	addq	%rsi, %rax
	movslq	8(%rax), %rax
	imulq	$360, %rax, %rax        # imm = 0x168
	addq	%rax, %rcx
	addq	$4, %rcx
	jmp	.LBB42_14
.LBB42_13:                              #   in Loop: Header=BB42_1 Depth=1
	movabsq	$.L.str.11.43, %rcx
	jmp	.LBB42_14
.LBB42_14:                              #   in Loop: Header=BB42_1 Depth=1
	movabsq	$.L.str.12.45, %rsi
	movq	-16(%rbp), %r8
	movslq	-4(%rbp), %rax
	imulq	$40, %rax, %rax
	addq	%rax, %r8
	movss	20(%r8), %xmm0          # xmm0 = mem[0],zero,zero,zero
	cvtss2sd	%xmm0, %xmm0
	movb	$1, %al
	callq	fprintf
	movabsq	$.L.str.13.46, %rsi
	movq	-24(%rbp), %rdi
	movq	-16(%rbp), %rax
	movslq	-4(%rbp), %rcx
	imulq	$40, %rcx, %rcx
	addq	%rcx, %rax
	movss	12(%rax), %xmm0         # xmm0 = mem[0],zero,zero,zero
	cvtss2sd	%xmm0, %xmm0
	movb	$1, %al
	callq	fprintf
	movabsq	$.L.str.14.47, %rsi
	movq	-24(%rbp), %rdi
	movq	-16(%rbp), %rax
	movslq	-4(%rbp), %rcx
	imulq	$40, %rcx, %rcx
	addq	%rcx, %rax
	movl	32(%rax), %edx
	movb	$0, %al
	callq	fprintf
# %bb.15:                               #   in Loop: Header=BB42_1 Depth=1
	movl	-4(%rbp), %eax
	addl	$1, %eax
	movl	%eax, -4(%rbp)
	jmp	.LBB42_1
.LBB42_16:
	addq	$32, %rsp
	popq	%rbp
	retq
.Lfunc_end42:
	.size	PrintPhylo, .Lfunc_end42-PrintPhylo
	.cfi_endproc
                                        # -- End function
	.globl	CreatePlan7Matrix       # -- Begin function CreatePlan7Matrix
	.p2align	4, 0x90
	.type	CreatePlan7Matrix,@function
CreatePlan7Matrix:                      # @CreatePlan7Matrix
	.cfi_startproc
# %bb.0:
	pushq	%rbp
	.cfi_def_cfa_offset 16
	.cfi_offset %rbp, -16
	movq	%rsp, %rbp
	.cfi_def_cfa_register %rbp
	subq	$32, %rsp
	movabsq	$.L.str.48, %rax
	movl	%edi, -16(%rbp)
	movl	%esi, -20(%rbp)
	movl	%edx, -28(%rbp)
	movl	%ecx, -24(%rbp)
	movq	%rax, %rdi
	movl	$66, %esi
	movl	$80, %edx
	callq	sre_malloc
	movabsq	$.L.str.48, %rdi
	movq	%rax, -8(%rbp)
	movl	-16(%rbp), %eax
	addl	$1, %eax
	movslq	%eax, %rdx
	shlq	$3, %rdx
	movl	$67, %esi
	callq	sre_malloc
	movabsq	$.L.str.48, %rdi
	movq	-8(%rbp), %rcx
	movq	%rax, (%rcx)
	movl	-16(%rbp), %eax
	addl	$1, %eax
	movslq	%eax, %rdx
	shlq	$3, %rdx
	movl	$68, %esi
	callq	sre_malloc
	movabsq	$.L.str.48, %rdi
	movq	-8(%rbp), %rcx
	movq	%rax, 8(%rcx)
	movl	-16(%rbp), %eax
	addl	$1, %eax
	movslq	%eax, %rdx
	shlq	$3, %rdx
	movl	$69, %esi
	callq	sre_malloc
	movabsq	$.L.str.48, %rdi
	movq	-8(%rbp), %rcx
	movq	%rax, 16(%rcx)
	movl	-16(%rbp), %eax
	addl	$1, %eax
	movslq	%eax, %rdx
	shlq	$3, %rdx
	movl	$70, %esi
	callq	sre_malloc
	movabsq	$.L.str.48, %rdi
	movq	-8(%rbp), %rcx
	movq	%rax, 24(%rcx)
	movl	-16(%rbp), %eax
	addl	$1, %eax
	imull	$5, %eax, %eax
	movslq	%eax, %rdx
	shlq	$2, %rdx
	movl	$71, %esi
	callq	sre_malloc
	movabsq	$.L.str.48, %rdi
	movq	-8(%rbp), %rcx
	movq	%rax, 32(%rcx)
	movl	-16(%rbp), %eax
	addl	$1, %eax
	movl	-20(%rbp), %ecx
	addl	$2, %ecx
	imull	%ecx, %eax
	movslq	%eax, %rdx
	shlq	$2, %rdx
	movl	$72, %esi
	callq	sre_malloc
	movabsq	$.L.str.48, %rdi
	movq	-8(%rbp), %rcx
	movq	%rax, 40(%rcx)
	movl	-16(%rbp), %eax
	addl	$1, %eax
	movl	-20(%rbp), %ecx
	addl	$2, %ecx
	imull	%ecx, %eax
	movslq	%eax, %rdx
	shlq	$2, %rdx
	movl	$73, %esi
	callq	sre_malloc
	movabsq	$.L.str.48, %rdi
	movq	-8(%rbp), %rcx
	movq	%rax, 48(%rcx)
	movl	-16(%rbp), %eax
	addl	$1, %eax
	movl	-20(%rbp), %ecx
	addl	$2, %ecx
	imull	%ecx, %eax
	movslq	%eax, %rdx
	shlq	$2, %rdx
	movl	$74, %esi
	callq	sre_malloc
	movq	-8(%rbp), %rcx
	movq	%rax, 56(%rcx)
	movq	-8(%rbp), %rax
	movq	32(%rax), %rax
	movq	-8(%rbp), %rcx
	movq	(%rcx), %rcx
	movq	%rax, (%rcx)
	movq	-8(%rbp), %rax
	movq	40(%rax), %rax
	movq	-8(%rbp), %rcx
	movq	8(%rcx), %rcx
	movq	%rax, (%rcx)
	movq	-8(%rbp), %rax
	movq	48(%rax), %rax
	movq	-8(%rbp), %rcx
	movq	16(%rcx), %rcx
	movq	%rax, (%rcx)
	movq	-8(%rbp), %rax
	movq	56(%rax), %rax
	movq	-8(%rbp), %rcx
	movq	24(%rcx), %rcx
	movq	%rax, (%rcx)
	movl	$1, -12(%rbp)
.LBB43_1:                               # =>This Inner Loop Header: Depth=1
	movl	-12(%rbp), %eax
	cmpl	-16(%rbp), %eax
	jg	.LBB43_4
# %bb.2:                                #   in Loop: Header=BB43_1 Depth=1
	movq	-8(%rbp), %rax
	movq	(%rax), %rax
	movq	(%rax), %rax
	imull	$5, -12(%rbp), %ecx
	movslq	%ecx, %rcx
	shlq	$2, %rcx
	addq	%rcx, %rax
	movq	-8(%rbp), %rcx
	movq	(%rcx), %rcx
	movslq	-12(%rbp), %rdx
	movq	%rax, (%rcx,%rdx,8)
	movq	-8(%rbp), %rax
	movq	8(%rax), %rax
	movq	(%rax), %rax
	movl	-12(%rbp), %ecx
	movl	-20(%rbp), %edx
	addl	$2, %edx
	imull	%edx, %ecx
	movslq	%ecx, %rcx
	shlq	$2, %rcx
	addq	%rcx, %rax
	movq	-8(%rbp), %rcx
	movq	8(%rcx), %rcx
	movslq	-12(%rbp), %rdx
	movq	%rax, (%rcx,%rdx,8)
	movq	-8(%rbp), %rax
	movq	16(%rax), %rax
	movq	(%rax), %rax
	movl	-12(%rbp), %ecx
	movl	-20(%rbp), %edx
	addl	$2, %edx
	imull	%edx, %ecx
	movslq	%ecx, %rcx
	shlq	$2, %rcx
	addq	%rcx, %rax
	movq	-8(%rbp), %rcx
	movq	16(%rcx), %rcx
	movslq	-12(%rbp), %rdx
	movq	%rax, (%rcx,%rdx,8)
	movq	-8(%rbp), %rax
	movq	24(%rax), %rax
	movq	(%rax), %rax
	movl	-12(%rbp), %ecx
	movl	-20(%rbp), %edx
	addl	$2, %edx
	imull	%edx, %ecx
	movslq	%ecx, %rcx
	shlq	$2, %rcx
	addq	%rcx, %rax
	movq	-8(%rbp), %rcx
	movq	24(%rcx), %rcx
	movslq	-12(%rbp), %rdx
	movq	%rax, (%rcx,%rdx,8)
# %bb.3:                                #   in Loop: Header=BB43_1 Depth=1
	movl	-12(%rbp), %eax
	addl	$1, %eax
	movl	%eax, -12(%rbp)
	jmp	.LBB43_1
.LBB43_4:
	cmpl	$0, -24(%rbp)
	jle	.LBB43_7
# %bb.5:
	cmpl	$0, -28(%rbp)
	jle	.LBB43_7
# %bb.6:
	movabsq	$.L.str.1.49, %rdi
	movb	$0, %al
	callq	Die
.LBB43_7:
	movl	-16(%rbp), %eax
	movq	-8(%rbp), %rcx
	movl	%eax, 64(%rcx)
	movl	-20(%rbp), %eax
	movq	-8(%rbp), %rcx
	movl	%eax, 68(%rcx)
	movl	-28(%rbp), %eax
	movq	-8(%rbp), %rcx
	movl	%eax, 72(%rcx)
	movl	-24(%rbp), %eax
	movq	-8(%rbp), %rcx
	movl	%eax, 76(%rcx)
	movq	-8(%rbp), %rax
	addq	$32, %rsp
	popq	%rbp
	retq
.Lfunc_end43:
	.size	CreatePlan7Matrix, .Lfunc_end43-CreatePlan7Matrix
	.cfi_endproc
                                        # -- End function
	.globl	ResizePlan7Matrix       # -- Begin function ResizePlan7Matrix
	.p2align	4, 0x90
	.type	ResizePlan7Matrix,@function
ResizePlan7Matrix:                      # @ResizePlan7Matrix
	.cfi_startproc
# %bb.0:
	pushq	%rbp
	.cfi_def_cfa_offset 16
	.cfi_offset %rbp, -16
	movq	%rsp, %rbp
	.cfi_def_cfa_register %rbp
	subq	$48, %rsp
	movq	16(%rbp), %rax
	movq	%rdi, -8(%rbp)
	movl	%esi, -12(%rbp)
	movl	%edx, -20(%rbp)
	movq	%rcx, -48(%rbp)
	movq	%r8, -40(%rbp)
	movq	%r9, -32(%rbp)
	movl	-12(%rbp), %eax
	movq	-8(%rbp), %rcx
	cmpl	64(%rcx), %eax
	jg	.LBB44_3
# %bb.1:
	movl	-20(%rbp), %eax
	movq	-8(%rbp), %rcx
	cmpl	68(%rcx), %eax
	jg	.LBB44_3
# %bb.2:
	jmp	.LBB44_12
.LBB44_3:
	movl	-12(%rbp), %eax
	movq	-8(%rbp), %rcx
	cmpl	64(%rcx), %eax
	jle	.LBB44_5
# %bb.4:
	movabsq	$.L.str.48, %rdi
	movq	-8(%rbp), %rax
	movl	72(%rax), %eax
	addl	-12(%rbp), %eax
	movl	%eax, -12(%rbp)
	movl	-12(%rbp), %eax
	movq	-8(%rbp), %rcx
	movl	%eax, 64(%rcx)
	movq	-8(%rbp), %rax
	movq	(%rax), %rdx
	movl	-12(%rbp), %eax
	addl	$1, %eax
	movslq	%eax, %rcx
	shlq	$3, %rcx
	movl	$133, %esi
	callq	sre_realloc
	movabsq	$.L.str.48, %rdi
	movq	-8(%rbp), %rcx
	movq	%rax, (%rcx)
	movq	-8(%rbp), %rax
	movq	8(%rax), %rdx
	movl	-12(%rbp), %eax
	addl	$1, %eax
	movslq	%eax, %rcx
	shlq	$3, %rcx
	movl	$134, %esi
	callq	sre_realloc
	movabsq	$.L.str.48, %rdi
	movq	-8(%rbp), %rcx
	movq	%rax, 8(%rcx)
	movq	-8(%rbp), %rax
	movq	16(%rax), %rdx
	movl	-12(%rbp), %eax
	addl	$1, %eax
	movslq	%eax, %rcx
	shlq	$3, %rcx
	movl	$135, %esi
	callq	sre_realloc
	movabsq	$.L.str.48, %rdi
	movq	-8(%rbp), %rcx
	movq	%rax, 16(%rcx)
	movq	-8(%rbp), %rax
	movq	24(%rax), %rdx
	movl	-12(%rbp), %eax
	addl	$1, %eax
	movslq	%eax, %rcx
	shlq	$3, %rcx
	movl	$136, %esi
	callq	sre_realloc
	movq	-8(%rbp), %rcx
	movq	%rax, 24(%rcx)
.LBB44_5:
	movl	-20(%rbp), %eax
	movq	-8(%rbp), %rcx
	cmpl	68(%rcx), %eax
	jle	.LBB44_7
# %bb.6:
	movq	-8(%rbp), %rax
	movl	76(%rax), %eax
	addl	-20(%rbp), %eax
	movl	%eax, -20(%rbp)
	movl	-20(%rbp), %eax
	movq	-8(%rbp), %rcx
	movl	%eax, 68(%rcx)
.LBB44_7:
	movabsq	$.L.str.48, %rdi
	movq	-8(%rbp), %rax
	movq	32(%rax), %rdx
	movl	-12(%rbp), %eax
	addl	$1, %eax
	imull	$5, %eax, %eax
	movslq	%eax, %rcx
	shlq	$2, %rcx
	movl	$144, %esi
	callq	sre_realloc
	movabsq	$.L.str.48, %rdi
	movq	-8(%rbp), %rcx
	movq	%rax, 32(%rcx)
	movq	-8(%rbp), %rax
	movq	40(%rax), %rdx
	movl	-12(%rbp), %eax
	addl	$1, %eax
	movl	-20(%rbp), %ecx
	addl	$2, %ecx
	imull	%ecx, %eax
	movslq	%eax, %rcx
	shlq	$2, %rcx
	movl	$145, %esi
	callq	sre_realloc
	movabsq	$.L.str.48, %rdi
	movq	-8(%rbp), %rcx
	movq	%rax, 40(%rcx)
	movq	-8(%rbp), %rax
	movq	48(%rax), %rdx
	movl	-12(%rbp), %eax
	addl	$1, %eax
	movl	-20(%rbp), %ecx
	addl	$2, %ecx
	imull	%ecx, %eax
	movslq	%eax, %rcx
	shlq	$2, %rcx
	movl	$146, %esi
	callq	sre_realloc
	movabsq	$.L.str.48, %rdi
	movq	-8(%rbp), %rcx
	movq	%rax, 48(%rcx)
	movq	-8(%rbp), %rax
	movq	56(%rax), %rdx
	movl	-12(%rbp), %eax
	addl	$1, %eax
	movl	-20(%rbp), %ecx
	addl	$2, %ecx
	imull	%ecx, %eax
	movslq	%eax, %rcx
	shlq	$2, %rcx
	movl	$147, %esi
	callq	sre_realloc
	movq	-8(%rbp), %rcx
	movq	%rax, 56(%rcx)
	movq	-8(%rbp), %rax
	movq	32(%rax), %rax
	movq	-8(%rbp), %rcx
	movq	(%rcx), %rcx
	movq	%rax, (%rcx)
	movq	-8(%rbp), %rax
	movq	40(%rax), %rax
	movq	-8(%rbp), %rcx
	movq	8(%rcx), %rcx
	movq	%rax, (%rcx)
	movq	-8(%rbp), %rax
	movq	48(%rax), %rax
	movq	-8(%rbp), %rcx
	movq	16(%rcx), %rcx
	movq	%rax, (%rcx)
	movq	-8(%rbp), %rax
	movq	56(%rax), %rax
	movq	-8(%rbp), %rcx
	movq	24(%rcx), %rcx
	movq	%rax, (%rcx)
	movl	$1, -16(%rbp)
.LBB44_8:                               # =>This Inner Loop Header: Depth=1
	movl	-16(%rbp), %eax
	cmpl	-12(%rbp), %eax
	jg	.LBB44_11
# %bb.9:                                #   in Loop: Header=BB44_8 Depth=1
	movq	-8(%rbp), %rax
	movq	(%rax), %rax
	movq	(%rax), %rax
	imull	$5, -16(%rbp), %ecx
	movslq	%ecx, %rcx
	shlq	$2, %rcx
	addq	%rcx, %rax
	movq	-8(%rbp), %rcx
	movq	(%rcx), %rcx
	movslq	-16(%rbp), %rdx
	movq	%rax, (%rcx,%rdx,8)
	movq	-8(%rbp), %rax
	movq	8(%rax), %rax
	movq	(%rax), %rax
	movl	-16(%rbp), %ecx
	movl	-20(%rbp), %edx
	addl	$2, %edx
	imull	%edx, %ecx
	movslq	%ecx, %rcx
	shlq	$2, %rcx
	addq	%rcx, %rax
	movq	-8(%rbp), %rcx
	movq	8(%rcx), %rcx
	movslq	-16(%rbp), %rdx
	movq	%rax, (%rcx,%rdx,8)
	movq	-8(%rbp), %rax
	movq	16(%rax), %rax
	movq	(%rax), %rax
	movl	-16(%rbp), %ecx
	movl	-20(%rbp), %edx
	addl	$2, %edx
	imull	%edx, %ecx
	movslq	%ecx, %rcx
	shlq	$2, %rcx
	addq	%rcx, %rax
	movq	-8(%rbp), %rcx
	movq	16(%rcx), %rcx
	movslq	-16(%rbp), %rdx
	movq	%rax, (%rcx,%rdx,8)
	movq	-8(%rbp), %rax
	movq	24(%rax), %rax
	movq	(%rax), %rax
	movl	-16(%rbp), %ecx
	movl	-20(%rbp), %edx
	addl	$2, %edx
	imull	%edx, %ecx
	movslq	%ecx, %rcx
	shlq	$2, %rcx
	addq	%rcx, %rax
	movq	-8(%rbp), %rcx
	movq	24(%rcx), %rcx
	movslq	-16(%rbp), %rdx
	movq	%rax, (%rcx,%rdx,8)
# %bb.10:                               #   in Loop: Header=BB44_8 Depth=1
	movl	-16(%rbp), %eax
	addl	$1, %eax
	movl	%eax, -16(%rbp)
	jmp	.LBB44_8
.LBB44_11:
	jmp	.LBB44_12
.LBB44_12:
	cmpq	$0, -48(%rbp)
	je	.LBB44_14
# %bb.13:
	movq	-8(%rbp), %rax
	movq	(%rax), %rax
	movq	-48(%rbp), %rcx
	movq	%rax, (%rcx)
.LBB44_14:
	cmpq	$0, -40(%rbp)
	je	.LBB44_16
# %bb.15:
	movq	-8(%rbp), %rax
	movq	8(%rax), %rax
	movq	-40(%rbp), %rcx
	movq	%rax, (%rcx)
.LBB44_16:
	cmpq	$0, -32(%rbp)
	je	.LBB44_18
# %bb.17:
	movq	-8(%rbp), %rax
	movq	16(%rax), %rax
	movq	-32(%rbp), %rcx
	movq	%rax, (%rcx)
.LBB44_18:
	cmpq	$0, 16(%rbp)
	je	.LBB44_20
# %bb.19:
	movq	-8(%rbp), %rax
	movq	24(%rax), %rax
	movq	16(%rbp), %rcx
	movq	%rax, (%rcx)
.LBB44_20:
	addq	$48, %rsp
	popq	%rbp
	retq
.Lfunc_end44:
	.size	ResizePlan7Matrix, .Lfunc_end44-ResizePlan7Matrix
	.cfi_endproc
                                        # -- End function
	.globl	AllocPlan7Matrix        # -- Begin function AllocPlan7Matrix
	.p2align	4, 0x90
	.type	AllocPlan7Matrix,@function
AllocPlan7Matrix:                       # @AllocPlan7Matrix
	.cfi_startproc
# %bb.0:
	pushq	%rbp
	.cfi_def_cfa_offset 16
	.cfi_offset %rbp, -16
	movq	%rsp, %rbp
	.cfi_def_cfa_register %rbp
	subq	$48, %rsp
	movl	%edi, -16(%rbp)
	movl	%esi, -12(%rbp)
	movq	%rdx, -48(%rbp)
	movq	%rcx, -40(%rbp)
	movq	%r8, -32(%rbp)
	movq	%r9, -24(%rbp)
	movl	-16(%rbp), %edi
	subl	$1, %edi
	movl	-12(%rbp), %esi
	xorl	%edx, %edx
	xorl	%ecx, %ecx
	callq	CreatePlan7Matrix
	movq	%rax, -8(%rbp)
	cmpq	$0, -48(%rbp)
	je	.LBB45_2
# %bb.1:
	movq	-8(%rbp), %rax
	movq	(%rax), %rax
	movq	-48(%rbp), %rcx
	movq	%rax, (%rcx)
.LBB45_2:
	cmpq	$0, -40(%rbp)
	je	.LBB45_4
# %bb.3:
	movq	-8(%rbp), %rax
	movq	8(%rax), %rax
	movq	-40(%rbp), %rcx
	movq	%rax, (%rcx)
.LBB45_4:
	cmpq	$0, -32(%rbp)
	je	.LBB45_6
# %bb.5:
	movq	-8(%rbp), %rax
	movq	16(%rax), %rax
	movq	-32(%rbp), %rcx
	movq	%rax, (%rcx)
.LBB45_6:
	cmpq	$0, -24(%rbp)
	je	.LBB45_8
# %bb.7:
	movq	-8(%rbp), %rax
	movq	24(%rax), %rax
	movq	-24(%rbp), %rcx
	movq	%rax, (%rcx)
.LBB45_8:
	movq	-8(%rbp), %rax
	addq	$48, %rsp
	popq	%rbp
	retq
.Lfunc_end45:
	.size	AllocPlan7Matrix, .Lfunc_end45-AllocPlan7Matrix
	.cfi_endproc
                                        # -- End function
	.globl	FreePlan7Matrix         # -- Begin function FreePlan7Matrix
	.p2align	4, 0x90
	.type	FreePlan7Matrix,@function
FreePlan7Matrix:                        # @FreePlan7Matrix
	.cfi_startproc
# %bb.0:
	pushq	%rbp
	.cfi_def_cfa_offset 16
	.cfi_offset %rbp, -16
	movq	%rsp, %rbp
	.cfi_def_cfa_register %rbp
	subq	$16, %rsp
	movq	%rdi, -8(%rbp)
	movq	-8(%rbp), %rax
	movq	32(%rax), %rdi
	callq	free
	movq	-8(%rbp), %rax
	movq	40(%rax), %rdi
	callq	free
	movq	-8(%rbp), %rax
	movq	48(%rax), %rdi
	callq	free
	movq	-8(%rbp), %rax
	movq	56(%rax), %rdi
	callq	free
	movq	-8(%rbp), %rax
	movq	(%rax), %rdi
	callq	free
	movq	-8(%rbp), %rax
	movq	8(%rax), %rdi
	callq	free
	movq	-8(%rbp), %rax
	movq	16(%rax), %rdi
	callq	free
	movq	-8(%rbp), %rax
	movq	24(%rax), %rdi
	callq	free
	movq	-8(%rbp), %rdi
	callq	free
	addq	$16, %rsp
	popq	%rbp
	retq
.Lfunc_end46:
	.size	FreePlan7Matrix, .Lfunc_end46-FreePlan7Matrix
	.cfi_endproc
                                        # -- End function
	.globl	AllocShadowMatrix       # -- Begin function AllocShadowMatrix
	.p2align	4, 0x90
	.type	AllocShadowMatrix,@function
AllocShadowMatrix:                      # @AllocShadowMatrix
	.cfi_startproc
# %bb.0:
	pushq	%rbp
	.cfi_def_cfa_offset 16
	.cfi_offset %rbp, -16
	movq	%rsp, %rbp
	.cfi_def_cfa_register %rbp
	subq	$64, %rsp
	movabsq	$.L.str.48, %rax
	movl	%edi, -20(%rbp)
	movl	%esi, -24(%rbp)
	movq	%rdx, -56(%rbp)
	movq	%rcx, -48(%rbp)
	movq	%r8, -40(%rbp)
	movq	%r9, -32(%rbp)
	movq	%rax, %rdi
	movl	$244, %esi
	movl	$40, %edx
	callq	sre_malloc
	movabsq	$.L.str.48, %rdi
	movq	%rax, -16(%rbp)
	movslq	-20(%rbp), %rdx
	shlq	$3, %rdx
	movl	$245, %esi
	callq	sre_malloc
	movabsq	$.L.str.48, %rdi
	movq	-16(%rbp), %rcx
	movq	%rax, (%rcx)
	movslq	-20(%rbp), %rdx
	shlq	$3, %rdx
	movl	$246, %esi
	callq	sre_malloc
	movabsq	$.L.str.48, %rdi
	movq	-16(%rbp), %rcx
	movq	%rax, 8(%rcx)
	movslq	-20(%rbp), %rdx
	shlq	$3, %rdx
	movl	$247, %esi
	callq	sre_malloc
	movabsq	$.L.str.48, %rdi
	movq	-16(%rbp), %rcx
	movq	%rax, 16(%rcx)
	movslq	-20(%rbp), %rdx
	shlq	$3, %rdx
	movl	$248, %esi
	callq	sre_malloc
	movabsq	$.L.str.48, %rdi
	movq	-16(%rbp), %rcx
	movq	%rax, 24(%rcx)
	movslq	-20(%rbp), %rdx
	shlq	$2, %rdx
	movl	$249, %esi
	callq	sre_malloc
	movabsq	$.L.str.48, %rdi
	movq	-16(%rbp), %rcx
	movq	%rax, 32(%rcx)
	imull	$5, -20(%rbp), %eax
	movslq	%eax, %rdx
	shlq	$0, %rdx
	movl	$250, %esi
	callq	sre_malloc
	movabsq	$.L.str.48, %rdi
	movq	-16(%rbp), %rcx
	movq	(%rcx), %rcx
	movq	%rax, (%rcx)
	movl	-20(%rbp), %eax
	movl	-24(%rbp), %ecx
	addl	$2, %ecx
	imull	%ecx, %eax
	movslq	%eax, %rdx
	shlq	$0, %rdx
	movl	$251, %esi
	callq	sre_malloc
	movabsq	$.L.str.48, %rdi
	movq	-16(%rbp), %rcx
	movq	8(%rcx), %rcx
	movq	%rax, (%rcx)
	movl	-20(%rbp), %eax
	movl	-24(%rbp), %ecx
	addl	$2, %ecx
	imull	%ecx, %eax
	movslq	%eax, %rdx
	shlq	$0, %rdx
	movl	$252, %esi
	callq	sre_malloc
	movabsq	$.L.str.48, %rdi
	movq	-16(%rbp), %rcx
	movq	16(%rcx), %rcx
	movq	%rax, (%rcx)
	movl	-20(%rbp), %eax
	movl	-24(%rbp), %ecx
	addl	$2, %ecx
	imull	%ecx, %eax
	movslq	%eax, %rdx
	shlq	$0, %rdx
	movl	$253, %esi
	callq	sre_malloc
	movq	-16(%rbp), %rcx
	movq	24(%rcx), %rcx
	movq	%rax, (%rcx)
	movl	$1, -4(%rbp)
.LBB47_1:                               # =>This Inner Loop Header: Depth=1
	movl	-4(%rbp), %eax
	cmpl	-20(%rbp), %eax
	jge	.LBB47_4
# %bb.2:                                #   in Loop: Header=BB47_1 Depth=1
	movq	-16(%rbp), %rax
	movq	(%rax), %rax
	movq	(%rax), %rax
	imull	$5, -4(%rbp), %ecx
	movslq	%ecx, %rcx
	addq	%rcx, %rax
	movq	-16(%rbp), %rcx
	movq	(%rcx), %rcx
	movslq	-4(%rbp), %rdx
	movq	%rax, (%rcx,%rdx,8)
	movq	-16(%rbp), %rax
	movq	8(%rax), %rax
	movq	(%rax), %rax
	movl	-4(%rbp), %ecx
	movl	-24(%rbp), %edx
	addl	$2, %edx
	imull	%edx, %ecx
	movslq	%ecx, %rcx
	addq	%rcx, %rax
	movq	-16(%rbp), %rcx
	movq	8(%rcx), %rcx
	movslq	-4(%rbp), %rdx
	movq	%rax, (%rcx,%rdx,8)
	movq	-16(%rbp), %rax
	movq	16(%rax), %rax
	movq	(%rax), %rax
	movl	-4(%rbp), %ecx
	movl	-24(%rbp), %edx
	addl	$2, %edx
	imull	%edx, %ecx
	movslq	%ecx, %rcx
	addq	%rcx, %rax
	movq	-16(%rbp), %rcx
	movq	16(%rcx), %rcx
	movslq	-4(%rbp), %rdx
	movq	%rax, (%rcx,%rdx,8)
	movq	-16(%rbp), %rax
	movq	24(%rax), %rax
	movq	(%rax), %rax
	movl	-4(%rbp), %ecx
	movl	-24(%rbp), %edx
	addl	$2, %edx
	imull	%edx, %ecx
	movslq	%ecx, %rcx
	addq	%rcx, %rax
	movq	-16(%rbp), %rcx
	movq	24(%rcx), %rcx
	movslq	-4(%rbp), %rdx
	movq	%rax, (%rcx,%rdx,8)
# %bb.3:                                #   in Loop: Header=BB47_1 Depth=1
	movl	-4(%rbp), %eax
	addl	$1, %eax
	movl	%eax, -4(%rbp)
	jmp	.LBB47_1
.LBB47_4:
	cmpq	$0, -56(%rbp)
	je	.LBB47_6
# %bb.5:
	movq	-16(%rbp), %rax
	movq	(%rax), %rax
	movq	-56(%rbp), %rcx
	movq	%rax, (%rcx)
.LBB47_6:
	cmpq	$0, -48(%rbp)
	je	.LBB47_8
# %bb.7:
	movq	-16(%rbp), %rax
	movq	8(%rax), %rax
	movq	-48(%rbp), %rcx
	movq	%rax, (%rcx)
.LBB47_8:
	cmpq	$0, -40(%rbp)
	je	.LBB47_10
# %bb.9:
	movq	-16(%rbp), %rax
	movq	16(%rax), %rax
	movq	-40(%rbp), %rcx
	movq	%rax, (%rcx)
.LBB47_10:
	cmpq	$0, -32(%rbp)
	je	.LBB47_12
# %bb.11:
	movq	-16(%rbp), %rax
	movq	24(%rax), %rax
	movq	-32(%rbp), %rcx
	movq	%rax, (%rcx)
.LBB47_12:
	movq	-16(%rbp), %rax
	addq	$64, %rsp
	popq	%rbp
	retq
.Lfunc_end47:
	.size	AllocShadowMatrix, .Lfunc_end47-AllocShadowMatrix
	.cfi_endproc
                                        # -- End function
	.globl	FreeShadowMatrix        # -- Begin function FreeShadowMatrix
	.p2align	4, 0x90
	.type	FreeShadowMatrix,@function
FreeShadowMatrix:                       # @FreeShadowMatrix
	.cfi_startproc
# %bb.0:
	pushq	%rbp
	.cfi_def_cfa_offset 16
	.cfi_offset %rbp, -16
	movq	%rsp, %rbp
	.cfi_def_cfa_register %rbp
	subq	$16, %rsp
	movq	%rdi, -8(%rbp)
	movq	-8(%rbp), %rax
	movq	(%rax), %rax
	movq	(%rax), %rdi
	callq	free
	movq	-8(%rbp), %rax
	movq	8(%rax), %rax
	movq	(%rax), %rdi
	callq	free
	movq	-8(%rbp), %rax
	movq	16(%rax), %rax
	movq	(%rax), %rdi
	callq	free
	movq	-8(%rbp), %rax
	movq	24(%rax), %rax
	movq	(%rax), %rdi
	callq	free
	movq	-8(%rbp), %rax
	movq	32(%rax), %rdi
	callq	free
	movq	-8(%rbp), %rax
	movq	(%rax), %rdi
	callq	free
	movq	-8(%rbp), %rax
	movq	8(%rax), %rdi
	callq	free
	movq	-8(%rbp), %rax
	movq	16(%rax), %rdi
	callq	free
	movq	-8(%rbp), %rax
	movq	24(%rax), %rdi
	callq	free
	movq	-8(%rbp), %rdi
	callq	free
	addq	$16, %rsp
	popq	%rbp
	retq
.Lfunc_end48:
	.size	FreeShadowMatrix, .Lfunc_end48-FreeShadowMatrix
	.cfi_endproc
                                        # -- End function
	.section	.rodata.cst8,"aM",@progbits,8
	.p2align	3               # -- Begin function P7ViterbiSize
.LCPI49_0:
	.quad	4697254411347427328     # double 1048576
.LCPI49_1:
	.quad	4616189618054758400     # double 4
.LCPI49_2:
	.quad	4617315517961601024     # double 5
.LCPI49_3:
	.quad	4620693217682128896     # double 8
.LCPI49_4:
	.quad	4613937818241073152     # double 3
	.section	.rodata.cst4,"aM",@progbits,4
	.p2align	2
.LCPI49_5:
	.long	1117782016              # float 80
	.text
	.globl	P7ViterbiSize
	.p2align	4, 0x90
	.type	P7ViterbiSize,@function
P7ViterbiSize:                          # @P7ViterbiSize
	.cfi_startproc
# %bb.0:
	pushq	%rbp
	.cfi_def_cfa_offset 16
	.cfi_offset %rbp, -16
	movq	%rsp, %rbp
	.cfi_def_cfa_register %rbp
	movsd	.LCPI49_0(%rip), %xmm0  # xmm0 = mem[0],zero
	movsd	.LCPI49_1(%rip), %xmm2  # xmm2 = mem[0],zero
	movsd	.LCPI49_2(%rip), %xmm1  # xmm1 = mem[0],zero
	movsd	.LCPI49_3(%rip), %xmm3  # xmm3 = mem[0],zero
	movsd	.LCPI49_4(%rip), %xmm4  # xmm4 = mem[0],zero
	movss	.LCPI49_5(%rip), %xmm5  # xmm5 = mem[0],zero,zero,zero
	movl	%edi, -8(%rbp)
	movl	%esi, -12(%rbp)
	movss	%xmm5, -4(%rbp)
	movl	-8(%rbp), %eax
	addl	$1, %eax
	cvtsi2ssl	%eax, %xmm5
	cvtss2sd	%xmm5, %xmm5
	mulsd	%xmm5, %xmm4
	movl	-12(%rbp), %eax
	addl	$2, %eax
	cvtsi2ssl	%eax, %xmm5
	cvtss2sd	%xmm5, %xmm5
	mulsd	%xmm5, %xmm4
	mulsd	%xmm2, %xmm4
	movss	-4(%rbp), %xmm5         # xmm5 = mem[0],zero,zero,zero
	cvtss2sd	%xmm5, %xmm5
	addsd	%xmm4, %xmm5
	cvtsd2ss	%xmm5, %xmm4
	movss	%xmm4, -4(%rbp)
	movl	-8(%rbp), %eax
	addl	$1, %eax
	cvtsi2ssl	%eax, %xmm4
	cvtss2sd	%xmm4, %xmm4
	movaps	%xmm2, %xmm5
	mulsd	%xmm4, %xmm5
	mulsd	%xmm3, %xmm5
	movss	-4(%rbp), %xmm3         # xmm3 = mem[0],zero,zero,zero
	cvtss2sd	%xmm3, %xmm3
	addsd	%xmm5, %xmm3
	cvtsd2ss	%xmm3, %xmm3
	movss	%xmm3, -4(%rbp)
	movl	-8(%rbp), %eax
	addl	$1, %eax
	cvtsi2ssl	%eax, %xmm3
	cvtss2sd	%xmm3, %xmm3
	mulsd	%xmm3, %xmm1
	mulsd	%xmm2, %xmm1
	movss	-4(%rbp), %xmm2         # xmm2 = mem[0],zero,zero,zero
	cvtss2sd	%xmm2, %xmm2
	addsd	%xmm1, %xmm2
	cvtsd2ss	%xmm2, %xmm1
	movss	%xmm1, -4(%rbp)
	movss	-4(%rbp), %xmm1         # xmm1 = mem[0],zero,zero,zero
	cvtss2sd	%xmm1, %xmm1
	divsd	%xmm0, %xmm1
	cvtsd2ss	%xmm1, %xmm0
	movss	%xmm0, -4(%rbp)
	cvttss2si	-4(%rbp), %eax
	popq	%rbp
	retq
.Lfunc_end49:
	.size	P7ViterbiSize, .Lfunc_end49-P7ViterbiSize
	.cfi_endproc
                                        # -- End function
	.globl	P7SmallViterbiSize      # -- Begin function P7SmallViterbiSize
	.p2align	4, 0x90
	.type	P7SmallViterbiSize,@function
P7SmallViterbiSize:                     # @P7SmallViterbiSize
	.cfi_startproc
# %bb.0:
	pushq	%rbp
	.cfi_def_cfa_offset 16
	.cfi_offset %rbp, -16
	movq	%rsp, %rbp
	.cfi_def_cfa_register %rbp
	movl	$1000000, %ecx          # imm = 0xF4240
	movl	%edi, -8(%rbp)
	movl	%esi, -4(%rbp)
	movl	-4(%rbp), %eax
	addl	$2, %eax
	imull	$12, %eax, %eax
	cltq
	shlq	$2, %rax
	addq	$160, %rax
	addq	$128, %rax
	addq	$80, %rax
	movl	-8(%rbp), %edx
	addl	$1, %edx
	shll	$1, %edx
	movslq	%edx, %rdx
	shlq	$2, %rdx
	addq	%rdx, %rax
	xorl	%edx, %edx
	divq	%rcx
                                        # kill: def %eax killed %eax killed %rax
	popq	%rbp
	retq
.Lfunc_end50:
	.size	P7SmallViterbiSize, .Lfunc_end50-P7SmallViterbiSize
	.cfi_endproc
                                        # -- End function
	.globl	P7WeeViterbiSize        # -- Begin function P7WeeViterbiSize
	.p2align	4, 0x90
	.type	P7WeeViterbiSize,@function
P7WeeViterbiSize:                       # @P7WeeViterbiSize
	.cfi_startproc
# %bb.0:
	pushq	%rbp
	.cfi_def_cfa_offset 16
	.cfi_offset %rbp, -16
	movq	%rsp, %rbp
	.cfi_def_cfa_register %rbp
	movl	$1000000, %ecx          # imm = 0xF4240
	movl	%edi, -4(%rbp)
	movl	%esi, -8(%rbp)
	movl	-8(%rbp), %eax
	addl	$2, %eax
	imull	$12, %eax, %eax
	cltq
	shlq	$2, %rax
	addq	$160, %rax
	addq	$128, %rax
	addq	$80, %rax
	movl	-4(%rbp), %edx
	addl	$2, %edx
	shll	$1, %edx
	movslq	%edx, %rdx
	shlq	$2, %rdx
	addq	%rdx, %rax
	movl	-4(%rbp), %edx
	addl	$2, %edx
	movslq	%edx, %rdx
	shlq	$2, %rdx
	addq	%rdx, %rax
	movl	-4(%rbp), %edx
	addl	$2, %edx
	movslq	%edx, %rdx
	shlq	$0, %rdx
	addq	%rdx, %rax
	xorl	%edx, %edx
	divq	%rcx
                                        # kill: def %eax killed %eax killed %rax
	popq	%rbp
	retq
.Lfunc_end51:
	.size	P7WeeViterbiSize, .Lfunc_end51-P7WeeViterbiSize
	.cfi_endproc
                                        # -- End function
	.globl	P7Forward               # -- Begin function P7Forward
	.p2align	4, 0x90
	.type	P7Forward,@function
P7Forward:                              # @P7Forward
	.cfi_startproc
# %bb.0:
	pushq	%rbp
	.cfi_def_cfa_offset 16
	.cfi_offset %rbp, -16
	movq	%rsp, %rbp
	.cfi_def_cfa_register %rbp
	pushq	%rbx
	subq	$88, %rsp
	.cfi_offset %rbx, -24
	leaq	-32(%rbp), %rax
	leaq	-40(%rbp), %rbx
	leaq	-48(%rbp), %r8
	leaq	-64(%rbp), %r9
	movq	%rdi, -72(%rbp)
	movl	%esi, -52(%rbp)
	movq	%rdx, -24(%rbp)
	movq	%rcx, -96(%rbp)
	movl	-52(%rbp), %edi
	addl	$1, %edi
	movq	-24(%rbp), %rcx
	movl	136(%rcx), %esi
	movq	%rax, %rdx
	movq	%rbx, %rcx
	callq	AllocPlan7Matrix
	movq	%rax, -88(%rbp)
	movq	-32(%rbp), %rax
	movq	(%rax), %rax
	movl	$0, 16(%rax)
	movq	-24(%rbp), %rax
	movl	336(%rax), %eax
	movq	-32(%rbp), %rcx
	movq	(%rcx), %rcx
	movl	%eax, (%rcx)
	movq	-32(%rbp), %rax
	movq	(%rax), %rax
	movl	$-987654321, 12(%rax)   # imm = 0xC521974F
	movq	-32(%rbp), %rax
	movq	(%rax), %rax
	movl	$-987654321, 8(%rax)    # imm = 0xC521974F
	movq	-32(%rbp), %rax
	movq	(%rax), %rax
	movl	$-987654321, 4(%rax)    # imm = 0xC521974F
	movl	$0, -16(%rbp)
.LBB52_1:                               # =>This Inner Loop Header: Depth=1
	movl	-16(%rbp), %eax
	movq	-24(%rbp), %rcx
	cmpl	136(%rcx), %eax
	jg	.LBB52_4
# %bb.2:                                #   in Loop: Header=BB52_1 Depth=1
	movq	-64(%rbp), %rax
	movq	(%rax), %rax
	movslq	-16(%rbp), %rcx
	movl	$-987654321, (%rax,%rcx,4) # imm = 0xC521974F
	movq	-48(%rbp), %rax
	movq	(%rax), %rax
	movslq	-16(%rbp), %rcx
	movl	$-987654321, (%rax,%rcx,4) # imm = 0xC521974F
	movq	-40(%rbp), %rax
	movq	(%rax), %rax
	movslq	-16(%rbp), %rcx
	movl	$-987654321, (%rax,%rcx,4) # imm = 0xC521974F
# %bb.3:                                #   in Loop: Header=BB52_1 Depth=1
	movl	-16(%rbp), %eax
	addl	$1, %eax
	movl	%eax, -16(%rbp)
	jmp	.LBB52_1
.LBB52_4:
	movl	$1, -12(%rbp)
.LBB52_5:                               # =>This Loop Header: Depth=1
                                        #     Child Loop BB52_7 Depth 2
                                        #     Child Loop BB52_11 Depth 2
	movl	-12(%rbp), %eax
	cmpl	-52(%rbp), %eax
	jg	.LBB52_16
# %bb.6:                                #   in Loop: Header=BB52_5 Depth=1
	movq	-64(%rbp), %rax
	movslq	-12(%rbp), %rcx
	movq	(%rax,%rcx,8), %rax
	movl	$-987654321, (%rax)     # imm = 0xC521974F
	movq	-48(%rbp), %rax
	movslq	-12(%rbp), %rcx
	movq	(%rax,%rcx,8), %rax
	movl	$-987654321, (%rax)     # imm = 0xC521974F
	movq	-40(%rbp), %rax
	movslq	-12(%rbp), %rcx
	movq	(%rax,%rcx,8), %rax
	movl	$-987654321, (%rax)     # imm = 0xC521974F
	movl	$1, -16(%rbp)
.LBB52_7:                               #   Parent Loop BB52_5 Depth=1
                                        # =>  This Inner Loop Header: Depth=2
	movl	-16(%rbp), %eax
	movq	-24(%rbp), %rcx
	cmpl	136(%rcx), %eax
	jge	.LBB52_10
# %bb.8:                                #   in Loop: Header=BB52_7 Depth=2
	movq	-40(%rbp), %rax
	movl	-12(%rbp), %ecx
	subl	$1, %ecx
	movslq	%ecx, %rcx
	movq	(%rax,%rcx,8), %rax
	movl	-16(%rbp), %ecx
	subl	$1, %ecx
	movslq	%ecx, %rcx
	movl	(%rax,%rcx,4), %edi
	movq	-24(%rbp), %rax
	movq	312(%rax), %rax
	movq	(%rax), %rax
	movl	-16(%rbp), %ecx
	subl	$1, %ecx
	movslq	%ecx, %rcx
	addl	(%rax,%rcx,4), %edi
	movq	-48(%rbp), %rax
	movl	-12(%rbp), %ecx
	subl	$1, %ecx
	movslq	%ecx, %rcx
	movq	(%rax,%rcx,8), %rax
	movl	-16(%rbp), %ecx
	subl	$1, %ecx
	movslq	%ecx, %rcx
	movl	(%rax,%rcx,4), %esi
	movq	-24(%rbp), %rax
	movq	312(%rax), %rax
	movq	24(%rax), %rax
	movl	-16(%rbp), %ecx
	subl	$1, %ecx
	movslq	%ecx, %rcx
	addl	(%rax,%rcx,4), %esi
	callq	ILogsum
	movl	%eax, %ebx
	movq	-32(%rbp), %rax
	movl	-12(%rbp), %ecx
	subl	$1, %ecx
	movslq	%ecx, %rcx
	movq	(%rax,%rcx,8), %rax
	movl	(%rax), %edi
	movq	-24(%rbp), %rax
	movq	368(%rax), %rax
	movslq	-16(%rbp), %rcx
	addl	(%rax,%rcx,4), %edi
	movq	-64(%rbp), %rax
	movl	-12(%rbp), %ecx
	subl	$1, %ecx
	movslq	%ecx, %rcx
	movq	(%rax,%rcx,8), %rax
	movl	-16(%rbp), %ecx
	subl	$1, %ecx
	movslq	%ecx, %rcx
	movl	(%rax,%rcx,4), %esi
	movq	-24(%rbp), %rax
	movq	312(%rax), %rax
	movq	40(%rax), %rax
	movl	-16(%rbp), %ecx
	subl	$1, %ecx
	movslq	%ecx, %rcx
	addl	(%rax,%rcx,4), %esi
	callq	ILogsum
	movl	%ebx, %edi
	movl	%eax, %esi
	callq	ILogsum
	movq	-40(%rbp), %rcx
	movslq	-12(%rbp), %rdx
	movq	(%rcx,%rdx,8), %rcx
	movslq	-16(%rbp), %rdx
	movl	%eax, (%rcx,%rdx,4)
	movq	-24(%rbp), %rax
	movq	320(%rax), %rax
	movq	-72(%rbp), %rcx
	movslq	-12(%rbp), %rdx
	movsbl	(%rcx,%rdx), %ecx
	movslq	%ecx, %rcx
	movq	(%rax,%rcx,8), %rax
	movslq	-16(%rbp), %rcx
	movl	(%rax,%rcx,4), %eax
	movq	-40(%rbp), %rcx
	movslq	-12(%rbp), %rdx
	movq	(%rcx,%rdx,8), %rcx
	movslq	-16(%rbp), %rdx
	addl	(%rcx,%rdx,4), %eax
	movl	%eax, (%rcx,%rdx,4)
	movq	-40(%rbp), %rax
	movslq	-12(%rbp), %rcx
	movq	(%rax,%rcx,8), %rax
	movl	-16(%rbp), %ecx
	subl	$1, %ecx
	movslq	%ecx, %rcx
	movl	(%rax,%rcx,4), %edi
	movq	-24(%rbp), %rax
	movq	312(%rax), %rax
	movq	16(%rax), %rax
	movl	-16(%rbp), %ecx
	subl	$1, %ecx
	movslq	%ecx, %rcx
	addl	(%rax,%rcx,4), %edi
	movq	-64(%rbp), %rax
	movslq	-12(%rbp), %rcx
	movq	(%rax,%rcx,8), %rax
	movl	-16(%rbp), %ecx
	subl	$1, %ecx
	movslq	%ecx, %rcx
	movl	(%rax,%rcx,4), %esi
	movq	-24(%rbp), %rax
	movq	312(%rax), %rax
	movq	48(%rax), %rax
	movl	-16(%rbp), %ecx
	subl	$1, %ecx
	movslq	%ecx, %rcx
	addl	(%rax,%rcx,4), %esi
	callq	ILogsum
	movq	-64(%rbp), %rcx
	movslq	-12(%rbp), %rdx
	movq	(%rcx,%rdx,8), %rcx
	movslq	-16(%rbp), %rdx
	movl	%eax, (%rcx,%rdx,4)
	movq	-40(%rbp), %rax
	movl	-12(%rbp), %ecx
	subl	$1, %ecx
	movslq	%ecx, %rcx
	movq	(%rax,%rcx,8), %rax
	movslq	-16(%rbp), %rcx
	movl	(%rax,%rcx,4), %edi
	movq	-24(%rbp), %rax
	movq	312(%rax), %rax
	movq	8(%rax), %rax
	movslq	-16(%rbp), %rcx
	addl	(%rax,%rcx,4), %edi
	movq	-48(%rbp), %rax
	movl	-12(%rbp), %ecx
	subl	$1, %ecx
	movslq	%ecx, %rcx
	movq	(%rax,%rcx,8), %rax
	movslq	-16(%rbp), %rcx
	movl	(%rax,%rcx,4), %esi
	movq	-24(%rbp), %rax
	movq	312(%rax), %rax
	movq	32(%rax), %rax
	movslq	-16(%rbp), %rcx
	addl	(%rax,%rcx,4), %esi
	callq	ILogsum
	movq	-48(%rbp), %rcx
	movslq	-12(%rbp), %rdx
	movq	(%rcx,%rdx,8), %rcx
	movslq	-16(%rbp), %rdx
	movl	%eax, (%rcx,%rdx,4)
	movq	-24(%rbp), %rax
	movq	328(%rax), %rax
	movq	-72(%rbp), %rcx
	movslq	-12(%rbp), %rdx
	movsbl	(%rcx,%rdx), %ecx
	movslq	%ecx, %rcx
	movq	(%rax,%rcx,8), %rax
	movslq	-16(%rbp), %rcx
	movl	(%rax,%rcx,4), %eax
	movq	-48(%rbp), %rcx
	movslq	-12(%rbp), %rdx
	movq	(%rcx,%rdx,8), %rcx
	movslq	-16(%rbp), %rdx
	addl	(%rcx,%rdx,4), %eax
	movl	%eax, (%rcx,%rdx,4)
# %bb.9:                                #   in Loop: Header=BB52_7 Depth=2
	movl	-16(%rbp), %eax
	addl	$1, %eax
	movl	%eax, -16(%rbp)
	jmp	.LBB52_7
.LBB52_10:                              #   in Loop: Header=BB52_5 Depth=1
	movq	-40(%rbp), %rax
	movl	-12(%rbp), %ecx
	subl	$1, %ecx
	movslq	%ecx, %rcx
	movq	(%rax,%rcx,8), %rax
	movq	-24(%rbp), %rcx
	movl	136(%rcx), %ecx
	subl	$1, %ecx
	movslq	%ecx, %rcx
	movl	(%rax,%rcx,4), %edi
	movq	-24(%rbp), %rax
	movq	312(%rax), %rax
	movq	(%rax), %rax
	movq	-24(%rbp), %rcx
	movl	136(%rcx), %ecx
	subl	$1, %ecx
	movslq	%ecx, %rcx
	addl	(%rax,%rcx,4), %edi
	movq	-48(%rbp), %rax
	movl	-12(%rbp), %ecx
	subl	$1, %ecx
	movslq	%ecx, %rcx
	movq	(%rax,%rcx,8), %rax
	movq	-24(%rbp), %rcx
	movl	136(%rcx), %ecx
	subl	$1, %ecx
	movslq	%ecx, %rcx
	movl	(%rax,%rcx,4), %esi
	movq	-24(%rbp), %rax
	movq	312(%rax), %rax
	movq	24(%rax), %rax
	movq	-24(%rbp), %rcx
	movl	136(%rcx), %ecx
	subl	$1, %ecx
	movslq	%ecx, %rcx
	addl	(%rax,%rcx,4), %esi
	callq	ILogsum
	movl	%eax, %ebx
	movq	-32(%rbp), %rax
	movl	-12(%rbp), %ecx
	subl	$1, %ecx
	movslq	%ecx, %rcx
	movq	(%rax,%rcx,8), %rax
	movl	(%rax), %edi
	movq	-24(%rbp), %rax
	movq	368(%rax), %rax
	movq	-24(%rbp), %rcx
	movl	136(%rcx), %ecx
	subl	$1, %ecx
	movslq	%ecx, %rcx
	addl	(%rax,%rcx,4), %edi
	movq	-64(%rbp), %rax
	movl	-12(%rbp), %ecx
	subl	$1, %ecx
	movslq	%ecx, %rcx
	movq	(%rax,%rcx,8), %rax
	movq	-24(%rbp), %rcx
	movl	136(%rcx), %ecx
	subl	$1, %ecx
	movslq	%ecx, %rcx
	movl	(%rax,%rcx,4), %esi
	movq	-24(%rbp), %rax
	movq	312(%rax), %rax
	movq	40(%rax), %rax
	movq	-24(%rbp), %rcx
	movl	136(%rcx), %ecx
	subl	$1, %ecx
	movslq	%ecx, %rcx
	addl	(%rax,%rcx,4), %esi
	callq	ILogsum
	movl	%ebx, %edi
	movl	%eax, %esi
	callq	ILogsum
	movq	-40(%rbp), %rcx
	movslq	-12(%rbp), %rdx
	movq	(%rcx,%rdx,8), %rcx
	movq	-24(%rbp), %rdx
	movslq	136(%rdx), %rdx
	movl	%eax, (%rcx,%rdx,4)
	movq	-24(%rbp), %rax
	movq	320(%rax), %rax
	movq	-72(%rbp), %rcx
	movslq	-12(%rbp), %rdx
	movsbl	(%rcx,%rdx), %ecx
	movslq	%ecx, %rcx
	movq	(%rax,%rcx,8), %rax
	movq	-24(%rbp), %rcx
	movslq	136(%rcx), %rcx
	movl	(%rax,%rcx,4), %eax
	movq	-40(%rbp), %rcx
	movslq	-12(%rbp), %rdx
	movq	(%rcx,%rdx,8), %rcx
	movq	-24(%rbp), %rdx
	movslq	136(%rdx), %rdx
	addl	(%rcx,%rdx,4), %eax
	movl	%eax, (%rcx,%rdx,4)
	movq	-32(%rbp), %rax
	movl	-12(%rbp), %ecx
	subl	$1, %ecx
	movslq	%ecx, %rcx
	movq	(%rax,%rcx,8), %rax
	movl	16(%rax), %eax
	movq	-24(%rbp), %rcx
	addl	340(%rcx), %eax
	movq	-32(%rbp), %rcx
	movslq	-12(%rbp), %rdx
	movq	(%rcx,%rdx,8), %rcx
	movl	%eax, 16(%rcx)
	movq	-32(%rbp), %rax
	movslq	-12(%rbp), %rcx
	movq	(%rax,%rcx,8), %rax
	movl	$-987654321, 4(%rax)    # imm = 0xC521974F
	movl	$1, -16(%rbp)
.LBB52_11:                              #   Parent Loop BB52_5 Depth=1
                                        # =>  This Inner Loop Header: Depth=2
	movl	-16(%rbp), %eax
	movq	-24(%rbp), %rcx
	cmpl	136(%rcx), %eax
	jg	.LBB52_14
# %bb.12:                               #   in Loop: Header=BB52_11 Depth=2
	movq	-32(%rbp), %rax
	movslq	-12(%rbp), %rcx
	movq	(%rax,%rcx,8), %rax
	movl	4(%rax), %edi
	movq	-40(%rbp), %rax
	movslq	-12(%rbp), %rcx
	movq	(%rax,%rcx,8), %rax
	movslq	-16(%rbp), %rcx
	movl	(%rax,%rcx,4), %esi
	movq	-24(%rbp), %rax
	movq	376(%rax), %rax
	movslq	-16(%rbp), %rcx
	addl	(%rax,%rcx,4), %esi
	callq	ILogsum
	movq	-32(%rbp), %rcx
	movslq	-12(%rbp), %rdx
	movq	(%rcx,%rdx,8), %rcx
	movl	%eax, 4(%rcx)
# %bb.13:                               #   in Loop: Header=BB52_11 Depth=2
	movl	-16(%rbp), %eax
	addl	$1, %eax
	movl	%eax, -16(%rbp)
	jmp	.LBB52_11
.LBB52_14:                              #   in Loop: Header=BB52_5 Depth=1
	movq	-32(%rbp), %rax
	movl	-12(%rbp), %ecx
	subl	$1, %ecx
	movslq	%ecx, %rcx
	movq	(%rax,%rcx,8), %rax
	movl	12(%rax), %edi
	movq	-24(%rbp), %rax
	addl	364(%rax), %edi
	movq	-32(%rbp), %rax
	movslq	-12(%rbp), %rcx
	movq	(%rax,%rcx,8), %rax
	movl	4(%rax), %esi
	movq	-24(%rbp), %rax
	addl	348(%rax), %esi
	callq	ILogsum
	movq	-32(%rbp), %rcx
	movslq	-12(%rbp), %rdx
	movq	(%rcx,%rdx,8), %rcx
	movl	%eax, 12(%rcx)
	movq	-32(%rbp), %rax
	movslq	-12(%rbp), %rcx
	movq	(%rax,%rcx,8), %rax
	movl	16(%rax), %edi
	movq	-24(%rbp), %rax
	addl	336(%rax), %edi
	movq	-32(%rbp), %rax
	movslq	-12(%rbp), %rcx
	movq	(%rax,%rcx,8), %rax
	movl	12(%rax), %esi
	movq	-24(%rbp), %rax
	addl	360(%rax), %esi
	callq	ILogsum
	movq	-32(%rbp), %rcx
	movslq	-12(%rbp), %rdx
	movq	(%rcx,%rdx,8), %rcx
	movl	%eax, (%rcx)
	movq	-32(%rbp), %rax
	movl	-12(%rbp), %ecx
	subl	$1, %ecx
	movslq	%ecx, %rcx
	movq	(%rax,%rcx,8), %rax
	movl	8(%rax), %edi
	movq	-24(%rbp), %rax
	addl	356(%rax), %edi
	movq	-32(%rbp), %rax
	movslq	-12(%rbp), %rcx
	movq	(%rax,%rcx,8), %rax
	movl	4(%rax), %esi
	movq	-24(%rbp), %rax
	addl	344(%rax), %esi
	callq	ILogsum
	movq	-32(%rbp), %rcx
	movslq	-12(%rbp), %rdx
	movq	(%rcx,%rdx,8), %rcx
	movl	%eax, 8(%rcx)
# %bb.15:                               #   in Loop: Header=BB52_5 Depth=1
	movl	-12(%rbp), %eax
	addl	$1, %eax
	movl	%eax, -12(%rbp)
	jmp	.LBB52_5
.LBB52_16:
	movq	-32(%rbp), %rax
	movslq	-52(%rbp), %rcx
	movq	(%rax,%rcx,8), %rax
	movl	8(%rax), %eax
	movq	-24(%rbp), %rcx
	addl	352(%rcx), %eax
	movl	%eax, -76(%rbp)
	cmpq	$0, -96(%rbp)
	je	.LBB52_18
# %bb.17:
	movq	-88(%rbp), %rax
	movq	-96(%rbp), %rcx
	movq	%rax, (%rcx)
	jmp	.LBB52_19
.LBB52_18:
	movq	-88(%rbp), %rdi
	callq	FreePlan7Matrix
.LBB52_19:
	movl	-76(%rbp), %edi
	callq	Scorify
	addq	$88, %rsp
	popq	%rbx
	popq	%rbp
	retq
.Lfunc_end52:
	.size	P7Forward, .Lfunc_end52-P7Forward
	.cfi_endproc
                                        # -- End function
	.section	.rodata.cst8,"aM",@progbits,8
	.p2align	3               # -- Begin function P7ViterbiTrace
.LCPI53_0:
	.quad	4652007308841189376     # double 1000
	.section	.rodata.cst4,"aM",@progbits,4
	.p2align	2
.LCPI53_1:
	.long	1065353216              # float 1
	.text
	.globl	P7ViterbiTrace
	.p2align	4, 0x90
	.type	P7ViterbiTrace,@function
P7ViterbiTrace:                         # @P7ViterbiTrace
	.cfi_startproc
# %bb.0:
	pushq	%rbp
	.cfi_def_cfa_offset 16
	.cfi_offset %rbp, -16
	movq	%rsp, %rbp
	.cfi_def_cfa_register %rbp
	subq	$112, %rsp
	leaq	-24(%rbp), %rax
	movq	%rdi, -40(%rbp)
	movq	%rsi, -112(%rbp)
	movl	%edx, -56(%rbp)
	movq	%rcx, -96(%rbp)
	movq	%r8, -72(%rbp)
	movl	-56(%rbp), %ecx
	shll	$1, %ecx
	addl	$6, %ecx
	movl	%ecx, -28(%rbp)
	movl	-28(%rbp), %edi
	movq	%rax, %rsi
	callq	P7AllocTrace
	movq	-96(%rbp), %rax
	movq	(%rax), %rax
	movq	%rax, -48(%rbp)
	movq	-96(%rbp), %rax
	movq	8(%rax), %rax
	movq	%rax, -88(%rbp)
	movq	-96(%rbp), %rax
	movq	16(%rax), %rax
	movq	%rax, -104(%rbp)
	movq	-96(%rbp), %rax
	movq	24(%rax), %rax
	movq	%rax, -80(%rbp)
	movq	-24(%rbp), %rax
	movq	8(%rax), %rax
	movb	$9, (%rax)
	movq	-24(%rbp), %rax
	movq	16(%rax), %rax
	movl	$0, (%rax)
	movq	-24(%rbp), %rax
	movq	24(%rax), %rax
	movl	$0, (%rax)
	movq	-24(%rbp), %rax
	movq	8(%rax), %rax
	movb	$8, 1(%rax)
	movq	-24(%rbp), %rax
	movq	16(%rax), %rax
	movl	$0, 4(%rax)
	movq	-24(%rbp), %rax
	movq	24(%rax), %rax
	movl	$0, 4(%rax)
	movl	$2, -4(%rbp)
	movl	-56(%rbp), %eax
	movl	%eax, -8(%rbp)
.LBB53_1:                               # =>This Loop Header: Depth=1
                                        #     Child Loop BB53_69 Depth 2
                                        #     Child Loop BB53_73 Depth 2
                                        #     Child Loop BB53_9 Depth 2
	movq	-24(%rbp), %rax
	movq	8(%rax), %rax
	movl	-4(%rbp), %ecx
	subl	$1, %ecx
	movslq	%ecx, %rcx
	movsbl	(%rax,%rcx), %eax
	cmpl	$4, %eax
	je	.LBB53_110
# %bb.2:                                #   in Loop: Header=BB53_1 Depth=1
	movq	-24(%rbp), %rax
	movq	8(%rax), %rax
	movl	-4(%rbp), %ecx
	addl	$-1, %ecx
	movslq	%ecx, %rcx
	movsbl	(%rax,%rcx), %eax
	addl	$-1, %eax
	movl	%eax, %ecx
	subl	$9, %ecx
	ja	.LBB53_106
# %bb.3:                                #   in Loop: Header=BB53_1 Depth=1
	movq	.LJTI53_0(,%rax,8), %rax
	jmpq	*%rax
.LBB53_4:                               #   in Loop: Header=BB53_1 Depth=1
	movq	-88(%rbp), %rax
	movl	-8(%rbp), %ecx
	addl	$1, %ecx
	movslq	%ecx, %rcx
	movq	(%rax,%rcx,8), %rax
	movl	-12(%rbp), %ecx
	addl	$1, %ecx
	movslq	%ecx, %rcx
	movl	(%rax,%rcx,4), %eax
	movq	-40(%rbp), %rcx
	movq	320(%rcx), %rcx
	movq	-112(%rbp), %rdx
	movl	-8(%rbp), %esi
	addl	$1, %esi
	movslq	%esi, %rsi
	movsbl	(%rdx,%rsi), %edx
	movslq	%edx, %rdx
	movq	(%rcx,%rdx,8), %rcx
	movl	-12(%rbp), %edx
	addl	$1, %edx
	movslq	%edx, %rdx
	subl	(%rcx,%rdx,4), %eax
	movl	%eax, -52(%rbp)
	cmpl	$-987654321, -52(%rbp)  # imm = 0xC521974F
	jg	.LBB53_6
# %bb.5:
	movq	-24(%rbp), %rdi
	callq	P7FreeTrace
	movq	-72(%rbp), %rax
	movq	$0, (%rax)
	jmp	.LBB53_111
.LBB53_6:                               #   in Loop: Header=BB53_1 Depth=1
	movl	-52(%rbp), %eax
	movq	-48(%rbp), %rcx
	movslq	-8(%rbp), %rdx
	movq	(%rcx,%rdx,8), %rcx
	movl	(%rcx), %ecx
	movq	-40(%rbp), %rdx
	movq	368(%rdx), %rdx
	movl	-12(%rbp), %esi
	addl	$1, %esi
	movslq	%esi, %rsi
	addl	(%rdx,%rsi,4), %ecx
	cmpl	%ecx, %eax
	jne	.LBB53_15
# %bb.7:                                #   in Loop: Header=BB53_1 Depth=1
	movq	-40(%rbp), %rax
	movq	208(%rax), %rax
	movl	-12(%rbp), %ecx
	addl	$1, %ecx
	movslq	%ecx, %rcx
	movss	(%rax,%rcx,4), %xmm0    # xmm0 = mem[0],zero,zero,zero
	movq	-40(%rbp), %rax
	movss	304(%rax), %xmm1        # xmm1 = mem[0],zero,zero,zero
	callq	Prob2Score
	movsd	.LCPI53_0(%rip), %xmm0  # xmm0 = mem[0],zero
	cvtsi2sdl	%eax, %xmm1
	addsd	%xmm0, %xmm1
	movq	-40(%rbp), %rax
	movq	368(%rax), %rax
	movl	-12(%rbp), %ecx
	addl	$1, %ecx
	movslq	%ecx, %rcx
	movl	(%rax,%rcx,4), %eax
	cvtsi2sdl	%eax, %xmm0
	ucomisd	%xmm1, %xmm0
	jb	.LBB53_14
# %bb.8:                                #   in Loop: Header=BB53_1 Depth=1
	jmp	.LBB53_9
.LBB53_9:                               #   Parent Loop BB53_1 Depth=1
                                        # =>  This Inner Loop Header: Depth=2
	cmpl	$0, -12(%rbp)
	jle	.LBB53_13
# %bb.10:                               #   in Loop: Header=BB53_9 Depth=2
	movq	-24(%rbp), %rax
	movq	8(%rax), %rax
	movslq	-4(%rbp), %rcx
	movb	$2, (%rax,%rcx)
	movl	-12(%rbp), %eax
	movl	%eax, %ecx
	addl	$-1, %ecx
	movl	%ecx, -12(%rbp)
	movq	-24(%rbp), %rcx
	movq	16(%rcx), %rcx
	movslq	-4(%rbp), %rdx
	movl	%eax, (%rcx,%rdx,4)
	movq	-24(%rbp), %rax
	movq	24(%rax), %rax
	movslq	-4(%rbp), %rcx
	movl	$0, (%rax,%rcx,4)
	movl	-4(%rbp), %eax
	addl	$1, %eax
	movl	%eax, -4(%rbp)
	movl	-4(%rbp), %eax
	cmpl	-28(%rbp), %eax
	jne	.LBB53_12
# %bb.11:                               #   in Loop: Header=BB53_9 Depth=2
	movl	-56(%rbp), %eax
	addl	-28(%rbp), %eax
	movl	%eax, -28(%rbp)
	movq	-24(%rbp), %rdi
	movl	-28(%rbp), %esi
	callq	P7ReallocTrace
.LBB53_12:                              #   in Loop: Header=BB53_9 Depth=2
	jmp	.LBB53_9
.LBB53_13:                              #   in Loop: Header=BB53_1 Depth=1
	jmp	.LBB53_14
.LBB53_14:                              #   in Loop: Header=BB53_1 Depth=1
	movq	-24(%rbp), %rax
	movq	8(%rax), %rax
	movslq	-4(%rbp), %rcx
	movb	$6, (%rax,%rcx)
	movq	-24(%rbp), %rax
	movq	16(%rax), %rax
	movslq	-4(%rbp), %rcx
	movl	$0, (%rax,%rcx,4)
	movq	-24(%rbp), %rax
	movq	24(%rax), %rax
	movslq	-4(%rbp), %rcx
	movl	$0, (%rax,%rcx,4)
	jmp	.LBB53_25
.LBB53_15:                              #   in Loop: Header=BB53_1 Depth=1
	movl	-52(%rbp), %eax
	movq	-88(%rbp), %rcx
	movslq	-8(%rbp), %rdx
	movq	(%rcx,%rdx,8), %rcx
	movslq	-12(%rbp), %rdx
	movl	(%rcx,%rdx,4), %ecx
	movq	-40(%rbp), %rdx
	movq	312(%rdx), %rdx
	movq	(%rdx), %rdx
	movslq	-12(%rbp), %rsi
	addl	(%rdx,%rsi,4), %ecx
	cmpl	%ecx, %eax
	jne	.LBB53_17
# %bb.16:                               #   in Loop: Header=BB53_1 Depth=1
	movq	-24(%rbp), %rax
	movq	8(%rax), %rax
	movslq	-4(%rbp), %rcx
	movb	$1, (%rax,%rcx)
	movl	-12(%rbp), %eax
	movl	%eax, %ecx
	addl	$-1, %ecx
	movl	%ecx, -12(%rbp)
	movq	-24(%rbp), %rcx
	movq	16(%rcx), %rcx
	movslq	-4(%rbp), %rdx
	movl	%eax, (%rcx,%rdx,4)
	movl	-8(%rbp), %eax
	movl	%eax, %ecx
	addl	$-1, %ecx
	movl	%ecx, -8(%rbp)
	movq	-24(%rbp), %rcx
	movq	24(%rcx), %rcx
	movslq	-4(%rbp), %rdx
	movl	%eax, (%rcx,%rdx,4)
	jmp	.LBB53_24
.LBB53_17:                              #   in Loop: Header=BB53_1 Depth=1
	movl	-52(%rbp), %eax
	movq	-104(%rbp), %rcx
	movslq	-8(%rbp), %rdx
	movq	(%rcx,%rdx,8), %rcx
	movslq	-12(%rbp), %rdx
	movl	(%rcx,%rdx,4), %ecx
	movq	-40(%rbp), %rdx
	movq	312(%rdx), %rdx
	movq	24(%rdx), %rdx
	movslq	-12(%rbp), %rsi
	addl	(%rdx,%rsi,4), %ecx
	cmpl	%ecx, %eax
	jne	.LBB53_19
# %bb.18:                               #   in Loop: Header=BB53_1 Depth=1
	movq	-24(%rbp), %rax
	movq	8(%rax), %rax
	movslq	-4(%rbp), %rcx
	movb	$3, (%rax,%rcx)
	movl	-12(%rbp), %eax
	movq	-24(%rbp), %rcx
	movq	16(%rcx), %rcx
	movslq	-4(%rbp), %rdx
	movl	%eax, (%rcx,%rdx,4)
	movl	-8(%rbp), %eax
	movl	%eax, %ecx
	addl	$-1, %ecx
	movl	%ecx, -8(%rbp)
	movq	-24(%rbp), %rcx
	movq	24(%rcx), %rcx
	movslq	-4(%rbp), %rdx
	movl	%eax, (%rcx,%rdx,4)
	jmp	.LBB53_23
.LBB53_19:                              #   in Loop: Header=BB53_1 Depth=1
	movl	-52(%rbp), %eax
	movq	-80(%rbp), %rcx
	movslq	-8(%rbp), %rdx
	movq	(%rcx,%rdx,8), %rcx
	movslq	-12(%rbp), %rdx
	movl	(%rcx,%rdx,4), %ecx
	movq	-40(%rbp), %rdx
	movq	312(%rdx), %rdx
	movq	40(%rdx), %rdx
	movslq	-12(%rbp), %rsi
	addl	(%rdx,%rsi,4), %ecx
	cmpl	%ecx, %eax
	jne	.LBB53_21
# %bb.20:                               #   in Loop: Header=BB53_1 Depth=1
	movq	-24(%rbp), %rax
	movq	8(%rax), %rax
	movslq	-4(%rbp), %rcx
	movb	$2, (%rax,%rcx)
	movl	-12(%rbp), %eax
	movl	%eax, %ecx
	addl	$-1, %ecx
	movl	%ecx, -12(%rbp)
	movq	-24(%rbp), %rcx
	movq	16(%rcx), %rcx
	movslq	-4(%rbp), %rdx
	movl	%eax, (%rcx,%rdx,4)
	movq	-24(%rbp), %rax
	movq	24(%rax), %rax
	movslq	-4(%rbp), %rcx
	movl	$0, (%rax,%rcx,4)
	jmp	.LBB53_22
.LBB53_21:                              #   in Loop: Header=BB53_1 Depth=1
	movabsq	$.L.str.2.50, %rdi
	movb	$0, %al
	callq	Die
.LBB53_22:                              #   in Loop: Header=BB53_1 Depth=1
	jmp	.LBB53_23
.LBB53_23:                              #   in Loop: Header=BB53_1 Depth=1
	jmp	.LBB53_24
.LBB53_24:                              #   in Loop: Header=BB53_1 Depth=1
	jmp	.LBB53_25
.LBB53_25:                              #   in Loop: Header=BB53_1 Depth=1
	jmp	.LBB53_26
.LBB53_26:                              #   in Loop: Header=BB53_1 Depth=1
	jmp	.LBB53_107
.LBB53_27:                              #   in Loop: Header=BB53_1 Depth=1
	movq	-80(%rbp), %rax
	movslq	-8(%rbp), %rcx
	movq	(%rax,%rcx,8), %rax
	movl	-12(%rbp), %ecx
	addl	$1, %ecx
	movslq	%ecx, %rcx
	cmpl	$-987654321, (%rax,%rcx,4) # imm = 0xC521974F
	jg	.LBB53_29
# %bb.28:
	movq	-24(%rbp), %rdi
	callq	P7FreeTrace
	movq	-72(%rbp), %rax
	movq	$0, (%rax)
	jmp	.LBB53_111
.LBB53_29:                              #   in Loop: Header=BB53_1 Depth=1
	movq	-80(%rbp), %rax
	movslq	-8(%rbp), %rcx
	movq	(%rax,%rcx,8), %rax
	movl	-12(%rbp), %ecx
	addl	$1, %ecx
	movslq	%ecx, %rcx
	movl	(%rax,%rcx,4), %eax
	movq	-88(%rbp), %rcx
	movslq	-8(%rbp), %rdx
	movq	(%rcx,%rdx,8), %rcx
	movslq	-12(%rbp), %rdx
	movl	(%rcx,%rdx,4), %ecx
	movq	-40(%rbp), %rdx
	movq	312(%rdx), %rdx
	movq	16(%rdx), %rdx
	movslq	-12(%rbp), %rsi
	addl	(%rdx,%rsi,4), %ecx
	cmpl	%ecx, %eax
	jne	.LBB53_31
# %bb.30:                               #   in Loop: Header=BB53_1 Depth=1
	movq	-24(%rbp), %rax
	movq	8(%rax), %rax
	movslq	-4(%rbp), %rcx
	movb	$1, (%rax,%rcx)
	movl	-12(%rbp), %eax
	movl	%eax, %ecx
	addl	$-1, %ecx
	movl	%ecx, -12(%rbp)
	movq	-24(%rbp), %rcx
	movq	16(%rcx), %rcx
	movslq	-4(%rbp), %rdx
	movl	%eax, (%rcx,%rdx,4)
	movl	-8(%rbp), %eax
	movl	%eax, %ecx
	addl	$-1, %ecx
	movl	%ecx, -8(%rbp)
	movq	-24(%rbp), %rcx
	movq	24(%rcx), %rcx
	movslq	-4(%rbp), %rdx
	movl	%eax, (%rcx,%rdx,4)
	jmp	.LBB53_35
.LBB53_31:                              #   in Loop: Header=BB53_1 Depth=1
	movq	-80(%rbp), %rax
	movslq	-8(%rbp), %rcx
	movq	(%rax,%rcx,8), %rax
	movl	-12(%rbp), %ecx
	addl	$1, %ecx
	movslq	%ecx, %rcx
	movl	(%rax,%rcx,4), %eax
	movq	-80(%rbp), %rcx
	movslq	-8(%rbp), %rdx
	movq	(%rcx,%rdx,8), %rcx
	movslq	-12(%rbp), %rdx
	movl	(%rcx,%rdx,4), %ecx
	movq	-40(%rbp), %rdx
	movq	312(%rdx), %rdx
	movq	48(%rdx), %rdx
	movslq	-12(%rbp), %rsi
	addl	(%rdx,%rsi,4), %ecx
	cmpl	%ecx, %eax
	jne	.LBB53_33
# %bb.32:                               #   in Loop: Header=BB53_1 Depth=1
	movq	-24(%rbp), %rax
	movq	8(%rax), %rax
	movslq	-4(%rbp), %rcx
	movb	$2, (%rax,%rcx)
	movl	-12(%rbp), %eax
	movl	%eax, %ecx
	addl	$-1, %ecx
	movl	%ecx, -12(%rbp)
	movq	-24(%rbp), %rcx
	movq	16(%rcx), %rcx
	movslq	-4(%rbp), %rdx
	movl	%eax, (%rcx,%rdx,4)
	movq	-24(%rbp), %rax
	movq	24(%rax), %rax
	movslq	-4(%rbp), %rcx
	movl	$0, (%rax,%rcx,4)
	jmp	.LBB53_34
.LBB53_33:                              #   in Loop: Header=BB53_1 Depth=1
	movabsq	$.L.str.2.50, %rdi
	movb	$0, %al
	callq	Die
.LBB53_34:                              #   in Loop: Header=BB53_1 Depth=1
	jmp	.LBB53_35
.LBB53_35:                              #   in Loop: Header=BB53_1 Depth=1
	jmp	.LBB53_36
.LBB53_36:                              #   in Loop: Header=BB53_1 Depth=1
	jmp	.LBB53_107
.LBB53_37:                              #   in Loop: Header=BB53_1 Depth=1
	movq	-104(%rbp), %rax
	movl	-8(%rbp), %ecx
	addl	$1, %ecx
	movslq	%ecx, %rcx
	movq	(%rax,%rcx,8), %rax
	movslq	-12(%rbp), %rcx
	movl	(%rax,%rcx,4), %eax
	movq	-40(%rbp), %rcx
	movq	328(%rcx), %rcx
	movq	-112(%rbp), %rdx
	movl	-8(%rbp), %esi
	addl	$1, %esi
	movslq	%esi, %rsi
	movsbl	(%rdx,%rsi), %edx
	movslq	%edx, %rdx
	movq	(%rcx,%rdx,8), %rcx
	movslq	-12(%rbp), %rdx
	subl	(%rcx,%rdx,4), %eax
	movl	%eax, -52(%rbp)
	cmpl	$-987654321, -52(%rbp)  # imm = 0xC521974F
	jg	.LBB53_39
# %bb.38:
	movq	-24(%rbp), %rdi
	callq	P7FreeTrace
	movq	-72(%rbp), %rax
	movq	$0, (%rax)
	jmp	.LBB53_111
.LBB53_39:                              #   in Loop: Header=BB53_1 Depth=1
	movl	-52(%rbp), %eax
	movq	-88(%rbp), %rcx
	movslq	-8(%rbp), %rdx
	movq	(%rcx,%rdx,8), %rcx
	movslq	-12(%rbp), %rdx
	movl	(%rcx,%rdx,4), %ecx
	movq	-40(%rbp), %rdx
	movq	312(%rdx), %rdx
	movq	8(%rdx), %rdx
	movslq	-12(%rbp), %rsi
	addl	(%rdx,%rsi,4), %ecx
	cmpl	%ecx, %eax
	jne	.LBB53_41
# %bb.40:                               #   in Loop: Header=BB53_1 Depth=1
	movq	-24(%rbp), %rax
	movq	8(%rax), %rax
	movslq	-4(%rbp), %rcx
	movb	$1, (%rax,%rcx)
	movl	-12(%rbp), %eax
	movl	%eax, %ecx
	addl	$-1, %ecx
	movl	%ecx, -12(%rbp)
	movq	-24(%rbp), %rcx
	movq	16(%rcx), %rcx
	movslq	-4(%rbp), %rdx
	movl	%eax, (%rcx,%rdx,4)
	movl	-8(%rbp), %eax
	movl	%eax, %ecx
	addl	$-1, %ecx
	movl	%ecx, -8(%rbp)
	movq	-24(%rbp), %rcx
	movq	24(%rcx), %rcx
	movslq	-4(%rbp), %rdx
	movl	%eax, (%rcx,%rdx,4)
	jmp	.LBB53_45
.LBB53_41:                              #   in Loop: Header=BB53_1 Depth=1
	movl	-52(%rbp), %eax
	movq	-104(%rbp), %rcx
	movslq	-8(%rbp), %rdx
	movq	(%rcx,%rdx,8), %rcx
	movslq	-12(%rbp), %rdx
	movl	(%rcx,%rdx,4), %ecx
	movq	-40(%rbp), %rdx
	movq	312(%rdx), %rdx
	movq	32(%rdx), %rdx
	movslq	-12(%rbp), %rsi
	addl	(%rdx,%rsi,4), %ecx
	cmpl	%ecx, %eax
	jne	.LBB53_43
# %bb.42:                               #   in Loop: Header=BB53_1 Depth=1
	movq	-24(%rbp), %rax
	movq	8(%rax), %rax
	movslq	-4(%rbp), %rcx
	movb	$3, (%rax,%rcx)
	movl	-12(%rbp), %eax
	movq	-24(%rbp), %rcx
	movq	16(%rcx), %rcx
	movslq	-4(%rbp), %rdx
	movl	%eax, (%rcx,%rdx,4)
	movl	-8(%rbp), %eax
	movl	%eax, %ecx
	addl	$-1, %ecx
	movl	%ecx, -8(%rbp)
	movq	-24(%rbp), %rcx
	movq	24(%rcx), %rcx
	movslq	-4(%rbp), %rdx
	movl	%eax, (%rcx,%rdx,4)
	jmp	.LBB53_44
.LBB53_43:                              #   in Loop: Header=BB53_1 Depth=1
	movabsq	$.L.str.2.50, %rdi
	movb	$0, %al
	callq	Die
.LBB53_44:                              #   in Loop: Header=BB53_1 Depth=1
	jmp	.LBB53_45
.LBB53_45:                              #   in Loop: Header=BB53_1 Depth=1
	jmp	.LBB53_46
.LBB53_46:                              #   in Loop: Header=BB53_1 Depth=1
	jmp	.LBB53_107
.LBB53_47:                              #   in Loop: Header=BB53_1 Depth=1
	cmpl	$0, -8(%rbp)
	jne	.LBB53_50
# %bb.48:                               #   in Loop: Header=BB53_1 Depth=1
	movq	-48(%rbp), %rax
	movslq	-8(%rbp), %rcx
	movq	(%rax,%rcx,8), %rax
	cmpl	$0, 16(%rax)
	jne	.LBB53_50
# %bb.49:                               #   in Loop: Header=BB53_1 Depth=1
	movq	-24(%rbp), %rax
	movq	8(%rax), %rax
	movslq	-4(%rbp), %rcx
	movb	$4, (%rax,%rcx)
	movq	-24(%rbp), %rax
	movq	16(%rax), %rax
	movslq	-4(%rbp), %rcx
	movl	$0, (%rax,%rcx,4)
	movq	-24(%rbp), %rax
	movq	24(%rax), %rax
	movslq	-4(%rbp), %rcx
	movl	$0, (%rax,%rcx,4)
	jmp	.LBB53_55
.LBB53_50:                              #   in Loop: Header=BB53_1 Depth=1
	cmpl	$0, -8(%rbp)
	jle	.LBB53_53
# %bb.51:                               #   in Loop: Header=BB53_1 Depth=1
	movq	-48(%rbp), %rax
	movl	-8(%rbp), %ecx
	addl	$1, %ecx
	movslq	%ecx, %rcx
	movq	(%rax,%rcx,8), %rax
	movl	16(%rax), %eax
	movq	-48(%rbp), %rcx
	movslq	-8(%rbp), %rdx
	movq	(%rcx,%rdx,8), %rcx
	movl	16(%rcx), %ecx
	movq	-40(%rbp), %rdx
	addl	340(%rdx), %ecx
	cmpl	%ecx, %eax
	jne	.LBB53_53
# %bb.52:                               #   in Loop: Header=BB53_1 Depth=1
	movq	-24(%rbp), %rax
	movq	8(%rax), %rax
	movslq	-4(%rbp), %rcx
	movb	$5, (%rax,%rcx)
	movq	-24(%rbp), %rax
	movq	16(%rax), %rax
	movslq	-4(%rbp), %rcx
	movl	$0, (%rax,%rcx,4)
	movq	-24(%rbp), %rax
	movq	24(%rax), %rax
	movslq	-4(%rbp), %rcx
	movl	$0, (%rax,%rcx,4)
	movl	-8(%rbp), %eax
	movl	%eax, %ecx
	addl	$-1, %ecx
	movl	%ecx, -8(%rbp)
	movq	-24(%rbp), %rcx
	movq	24(%rcx), %rcx
	movl	-4(%rbp), %edx
	subl	$1, %edx
	movslq	%edx, %rdx
	movl	%eax, (%rcx,%rdx,4)
	jmp	.LBB53_54
.LBB53_53:                              #   in Loop: Header=BB53_1 Depth=1
	movabsq	$.L.str.2.50, %rdi
	movb	$0, %al
	callq	Die
.LBB53_54:                              #   in Loop: Header=BB53_1 Depth=1
	jmp	.LBB53_55
.LBB53_55:                              #   in Loop: Header=BB53_1 Depth=1
	jmp	.LBB53_107
.LBB53_56:                              #   in Loop: Header=BB53_1 Depth=1
	movq	-48(%rbp), %rax
	movslq	-8(%rbp), %rcx
	movq	(%rax,%rcx,8), %rax
	cmpl	$-987654321, (%rax)     # imm = 0xC521974F
	jg	.LBB53_58
# %bb.57:
	movq	-24(%rbp), %rdi
	callq	P7FreeTrace
	movq	-72(%rbp), %rax
	movq	$0, (%rax)
	jmp	.LBB53_111
.LBB53_58:                              #   in Loop: Header=BB53_1 Depth=1
	movq	-48(%rbp), %rax
	movslq	-8(%rbp), %rcx
	movq	(%rax,%rcx,8), %rax
	movl	(%rax), %eax
	movq	-48(%rbp), %rcx
	movslq	-8(%rbp), %rdx
	movq	(%rcx,%rdx,8), %rcx
	movl	16(%rcx), %ecx
	movq	-40(%rbp), %rdx
	addl	336(%rdx), %ecx
	cmpl	%ecx, %eax
	jne	.LBB53_60
# %bb.59:                               #   in Loop: Header=BB53_1 Depth=1
	movq	-24(%rbp), %rax
	movq	8(%rax), %rax
	movslq	-4(%rbp), %rcx
	movb	$5, (%rax,%rcx)
	movq	-24(%rbp), %rax
	movq	16(%rax), %rax
	movslq	-4(%rbp), %rcx
	movl	$0, (%rax,%rcx,4)
	movq	-24(%rbp), %rax
	movq	24(%rax), %rax
	movslq	-4(%rbp), %rcx
	movl	$0, (%rax,%rcx,4)
	jmp	.LBB53_64
.LBB53_60:                              #   in Loop: Header=BB53_1 Depth=1
	movq	-48(%rbp), %rax
	movslq	-8(%rbp), %rcx
	movq	(%rax,%rcx,8), %rax
	movl	(%rax), %eax
	movq	-48(%rbp), %rcx
	movslq	-8(%rbp), %rdx
	movq	(%rcx,%rdx,8), %rcx
	movl	12(%rcx), %ecx
	movq	-40(%rbp), %rdx
	addl	360(%rdx), %ecx
	cmpl	%ecx, %eax
	jne	.LBB53_62
# %bb.61:                               #   in Loop: Header=BB53_1 Depth=1
	movq	-24(%rbp), %rax
	movq	8(%rax), %rax
	movslq	-4(%rbp), %rcx
	movb	$10, (%rax,%rcx)
	movq	-24(%rbp), %rax
	movq	16(%rax), %rax
	movslq	-4(%rbp), %rcx
	movl	$0, (%rax,%rcx,4)
	movq	-24(%rbp), %rax
	movq	24(%rax), %rax
	movslq	-4(%rbp), %rcx
	movl	$0, (%rax,%rcx,4)
	jmp	.LBB53_63
.LBB53_62:                              #   in Loop: Header=BB53_1 Depth=1
	movabsq	$.L.str.2.50, %rdi
	movb	$0, %al
	callq	Die
.LBB53_63:                              #   in Loop: Header=BB53_1 Depth=1
	jmp	.LBB53_64
.LBB53_64:                              #   in Loop: Header=BB53_1 Depth=1
	jmp	.LBB53_65
.LBB53_65:                              #   in Loop: Header=BB53_1 Depth=1
	jmp	.LBB53_107
.LBB53_66:                              #   in Loop: Header=BB53_1 Depth=1
	movq	-48(%rbp), %rax
	movslq	-8(%rbp), %rcx
	movq	(%rax,%rcx,8), %rax
	cmpl	$-987654321, 4(%rax)    # imm = 0xC521974F
	jg	.LBB53_68
# %bb.67:
	movq	-24(%rbp), %rdi
	callq	P7FreeTrace
	movq	-72(%rbp), %rax
	movq	$0, (%rax)
	jmp	.LBB53_111
.LBB53_68:                              #   in Loop: Header=BB53_1 Depth=1
	movq	-40(%rbp), %rax
	movl	136(%rax), %eax
	movl	%eax, -12(%rbp)
.LBB53_69:                              #   Parent Loop BB53_1 Depth=1
                                        # =>  This Inner Loop Header: Depth=2
	cmpl	$1, -12(%rbp)
	jl	.LBB53_82
# %bb.70:                               #   in Loop: Header=BB53_69 Depth=2
	movq	-48(%rbp), %rax
	movslq	-8(%rbp), %rcx
	movq	(%rax,%rcx,8), %rax
	movl	4(%rax), %eax
	movq	-88(%rbp), %rcx
	movslq	-8(%rbp), %rdx
	movq	(%rcx,%rdx,8), %rcx
	movslq	-12(%rbp), %rdx
	movl	(%rcx,%rdx,4), %ecx
	movq	-40(%rbp), %rdx
	movq	376(%rdx), %rdx
	movslq	-12(%rbp), %rsi
	addl	(%rdx,%rsi,4), %ecx
	cmpl	%ecx, %eax
	jne	.LBB53_80
# %bb.71:                               #   in Loop: Header=BB53_1 Depth=1
	movss	.LCPI53_1(%rip), %xmm1  # xmm1 = mem[0],zero,zero,zero
	movq	-40(%rbp), %rax
	movq	216(%rax), %rax
	movslq	-12(%rbp), %rcx
	movss	(%rax,%rcx,4), %xmm0    # xmm0 = mem[0],zero,zero,zero
	callq	Prob2Score
	movsd	.LCPI53_0(%rip), %xmm0  # xmm0 = mem[0],zero
	cvtsi2sdl	%eax, %xmm1
	addsd	%xmm0, %xmm1
	movq	-40(%rbp), %rax
	movq	376(%rax), %rax
	movslq	-12(%rbp), %rcx
	movl	(%rax,%rcx,4), %eax
	cvtsi2sdl	%eax, %xmm0
	ucomisd	%xmm1, %xmm0
	jb	.LBB53_79
# %bb.72:                               #   in Loop: Header=BB53_1 Depth=1
	movq	-40(%rbp), %rax
	movl	136(%rax), %eax
	movl	%eax, -60(%rbp)
.LBB53_73:                              #   Parent Loop BB53_1 Depth=1
                                        # =>  This Inner Loop Header: Depth=2
	movl	-60(%rbp), %eax
	cmpl	-12(%rbp), %eax
	jle	.LBB53_78
# %bb.74:                               #   in Loop: Header=BB53_73 Depth=2
	movq	-24(%rbp), %rax
	movq	8(%rax), %rax
	movslq	-4(%rbp), %rcx
	movb	$2, (%rax,%rcx)
	movl	-60(%rbp), %eax
	movq	-24(%rbp), %rcx
	movq	16(%rcx), %rcx
	movslq	-4(%rbp), %rdx
	movl	%eax, (%rcx,%rdx,4)
	movq	-24(%rbp), %rax
	movq	24(%rax), %rax
	movslq	-4(%rbp), %rcx
	movl	$0, (%rax,%rcx,4)
	movl	-4(%rbp), %eax
	addl	$1, %eax
	movl	%eax, -4(%rbp)
	movl	-4(%rbp), %eax
	cmpl	-28(%rbp), %eax
	jne	.LBB53_76
# %bb.75:                               #   in Loop: Header=BB53_73 Depth=2
	movl	-56(%rbp), %eax
	addl	-28(%rbp), %eax
	movl	%eax, -28(%rbp)
	movq	-24(%rbp), %rdi
	movl	-28(%rbp), %esi
	callq	P7ReallocTrace
.LBB53_76:                              #   in Loop: Header=BB53_73 Depth=2
	jmp	.LBB53_77
.LBB53_77:                              #   in Loop: Header=BB53_73 Depth=2
	movl	-60(%rbp), %eax
	addl	$-1, %eax
	movl	%eax, -60(%rbp)
	jmp	.LBB53_73
.LBB53_78:                              #   in Loop: Header=BB53_1 Depth=1
	jmp	.LBB53_79
.LBB53_79:                              #   in Loop: Header=BB53_1 Depth=1
	movq	-24(%rbp), %rax
	movq	8(%rax), %rax
	movslq	-4(%rbp), %rcx
	movb	$1, (%rax,%rcx)
	movl	-12(%rbp), %eax
	movl	%eax, %ecx
	addl	$-1, %ecx
	movl	%ecx, -12(%rbp)
	movq	-24(%rbp), %rcx
	movq	16(%rcx), %rcx
	movslq	-4(%rbp), %rdx
	movl	%eax, (%rcx,%rdx,4)
	movl	-8(%rbp), %eax
	movl	%eax, %ecx
	addl	$-1, %ecx
	movl	%ecx, -8(%rbp)
	movq	-24(%rbp), %rcx
	movq	24(%rcx), %rcx
	movslq	-4(%rbp), %rdx
	movl	%eax, (%rcx,%rdx,4)
	jmp	.LBB53_83
.LBB53_80:                              #   in Loop: Header=BB53_69 Depth=2
	jmp	.LBB53_81
.LBB53_81:                              #   in Loop: Header=BB53_69 Depth=2
	movl	-12(%rbp), %eax
	addl	$-1, %eax
	movl	%eax, -12(%rbp)
	jmp	.LBB53_69
.LBB53_82:                              # %.loopexit
                                        #   in Loop: Header=BB53_1 Depth=1
	jmp	.LBB53_83
.LBB53_83:                              #   in Loop: Header=BB53_1 Depth=1
	cmpl	$0, -12(%rbp)
	jge	.LBB53_85
# %bb.84:                               #   in Loop: Header=BB53_1 Depth=1
	movabsq	$.L.str.2.50, %rdi
	movb	$0, %al
	callq	Die
.LBB53_85:                              #   in Loop: Header=BB53_1 Depth=1
	jmp	.LBB53_107
.LBB53_86:                              #   in Loop: Header=BB53_1 Depth=1
	movq	-48(%rbp), %rax
	movslq	-8(%rbp), %rcx
	movq	(%rax,%rcx,8), %rax
	cmpl	$-987654321, 8(%rax)    # imm = 0xC521974F
	jg	.LBB53_88
# %bb.87:
	movq	-24(%rbp), %rdi
	callq	P7FreeTrace
	movq	-72(%rbp), %rax
	movq	$0, (%rax)
	jmp	.LBB53_111
.LBB53_88:                              #   in Loop: Header=BB53_1 Depth=1
	movq	-48(%rbp), %rax
	movslq	-8(%rbp), %rcx
	movq	(%rax,%rcx,8), %rax
	movl	8(%rax), %eax
	movq	-48(%rbp), %rcx
	movl	-8(%rbp), %edx
	subl	$1, %edx
	movslq	%edx, %rdx
	movq	(%rcx,%rdx,8), %rcx
	movl	8(%rcx), %ecx
	movq	-40(%rbp), %rdx
	addl	356(%rdx), %ecx
	cmpl	%ecx, %eax
	jne	.LBB53_90
# %bb.89:                               #   in Loop: Header=BB53_1 Depth=1
	movq	-24(%rbp), %rax
	movq	8(%rax), %rax
	movslq	-4(%rbp), %rcx
	movb	$8, (%rax,%rcx)
	movq	-24(%rbp), %rax
	movq	16(%rax), %rax
	movslq	-4(%rbp), %rcx
	movl	$0, (%rax,%rcx,4)
	movq	-24(%rbp), %rax
	movq	24(%rax), %rax
	movslq	-4(%rbp), %rcx
	movl	$0, (%rax,%rcx,4)
	movl	-8(%rbp), %eax
	movl	%eax, %ecx
	addl	$-1, %ecx
	movl	%ecx, -8(%rbp)
	movq	-24(%rbp), %rcx
	movq	24(%rcx), %rcx
	movl	-4(%rbp), %edx
	subl	$1, %edx
	movslq	%edx, %rdx
	movl	%eax, (%rcx,%rdx,4)
	jmp	.LBB53_94
.LBB53_90:                              #   in Loop: Header=BB53_1 Depth=1
	movq	-48(%rbp), %rax
	movslq	-8(%rbp), %rcx
	movq	(%rax,%rcx,8), %rax
	movl	8(%rax), %eax
	movq	-48(%rbp), %rcx
	movslq	-8(%rbp), %rdx
	movq	(%rcx,%rdx,8), %rcx
	movl	4(%rcx), %ecx
	movq	-40(%rbp), %rdx
	addl	344(%rdx), %ecx
	cmpl	%ecx, %eax
	jne	.LBB53_92
# %bb.91:                               #   in Loop: Header=BB53_1 Depth=1
	movq	-24(%rbp), %rax
	movq	8(%rax), %rax
	movslq	-4(%rbp), %rcx
	movb	$7, (%rax,%rcx)
	movq	-24(%rbp), %rax
	movq	16(%rax), %rax
	movslq	-4(%rbp), %rcx
	movl	$0, (%rax,%rcx,4)
	movq	-24(%rbp), %rax
	movq	24(%rax), %rax
	movslq	-4(%rbp), %rcx
	movl	$0, (%rax,%rcx,4)
	jmp	.LBB53_93
.LBB53_92:                              #   in Loop: Header=BB53_1 Depth=1
	movabsq	$.L.str.3.51, %rdi
	movb	$0, %al
	callq	Die
.LBB53_93:                              #   in Loop: Header=BB53_1 Depth=1
	jmp	.LBB53_94
.LBB53_94:                              #   in Loop: Header=BB53_1 Depth=1
	jmp	.LBB53_95
.LBB53_95:                              #   in Loop: Header=BB53_1 Depth=1
	jmp	.LBB53_107
.LBB53_96:                              #   in Loop: Header=BB53_1 Depth=1
	movq	-48(%rbp), %rax
	movslq	-8(%rbp), %rcx
	movq	(%rax,%rcx,8), %rax
	cmpl	$-987654321, 12(%rax)   # imm = 0xC521974F
	jg	.LBB53_98
# %bb.97:
	movq	-24(%rbp), %rdi
	callq	P7FreeTrace
	movq	-72(%rbp), %rax
	movq	$0, (%rax)
	jmp	.LBB53_111
.LBB53_98:                              #   in Loop: Header=BB53_1 Depth=1
	movq	-48(%rbp), %rax
	movslq	-8(%rbp), %rcx
	movq	(%rax,%rcx,8), %rax
	movl	12(%rax), %eax
	movq	-48(%rbp), %rcx
	movl	-8(%rbp), %edx
	subl	$1, %edx
	movslq	%edx, %rdx
	movq	(%rcx,%rdx,8), %rcx
	movl	12(%rcx), %ecx
	movq	-40(%rbp), %rdx
	addl	364(%rdx), %ecx
	cmpl	%ecx, %eax
	jne	.LBB53_100
# %bb.99:                               #   in Loop: Header=BB53_1 Depth=1
	movq	-24(%rbp), %rax
	movq	8(%rax), %rax
	movslq	-4(%rbp), %rcx
	movb	$10, (%rax,%rcx)
	movq	-24(%rbp), %rax
	movq	16(%rax), %rax
	movslq	-4(%rbp), %rcx
	movl	$0, (%rax,%rcx,4)
	movq	-24(%rbp), %rax
	movq	24(%rax), %rax
	movslq	-4(%rbp), %rcx
	movl	$0, (%rax,%rcx,4)
	movl	-8(%rbp), %eax
	movl	%eax, %ecx
	addl	$-1, %ecx
	movl	%ecx, -8(%rbp)
	movq	-24(%rbp), %rcx
	movq	24(%rcx), %rcx
	movl	-4(%rbp), %edx
	subl	$1, %edx
	movslq	%edx, %rdx
	movl	%eax, (%rcx,%rdx,4)
	jmp	.LBB53_104
.LBB53_100:                             #   in Loop: Header=BB53_1 Depth=1
	movq	-48(%rbp), %rax
	movslq	-8(%rbp), %rcx
	movq	(%rax,%rcx,8), %rax
	movl	12(%rax), %eax
	movq	-48(%rbp), %rcx
	movslq	-8(%rbp), %rdx
	movq	(%rcx,%rdx,8), %rcx
	movl	4(%rcx), %ecx
	movq	-40(%rbp), %rdx
	addl	348(%rdx), %ecx
	cmpl	%ecx, %eax
	jne	.LBB53_102
# %bb.101:                              #   in Loop: Header=BB53_1 Depth=1
	movq	-24(%rbp), %rax
	movq	8(%rax), %rax
	movslq	-4(%rbp), %rcx
	movb	$7, (%rax,%rcx)
	movq	-24(%rbp), %rax
	movq	16(%rax), %rax
	movslq	-4(%rbp), %rcx
	movl	$0, (%rax,%rcx,4)
	movq	-24(%rbp), %rax
	movq	24(%rax), %rax
	movslq	-4(%rbp), %rcx
	movl	$0, (%rax,%rcx,4)
	jmp	.LBB53_103
.LBB53_102:                             #   in Loop: Header=BB53_1 Depth=1
	movabsq	$.L.str.3.51, %rdi
	movb	$0, %al
	callq	Die
.LBB53_103:                             #   in Loop: Header=BB53_1 Depth=1
	jmp	.LBB53_104
.LBB53_104:                             #   in Loop: Header=BB53_1 Depth=1
	jmp	.LBB53_105
.LBB53_105:                             #   in Loop: Header=BB53_1 Depth=1
	jmp	.LBB53_107
.LBB53_106:                             #   in Loop: Header=BB53_1 Depth=1
	movabsq	$.L.str.2.50, %rdi
	movb	$0, %al
	callq	Die
.LBB53_107:                             #   in Loop: Header=BB53_1 Depth=1
	movl	-4(%rbp), %eax
	addl	$1, %eax
	movl	%eax, -4(%rbp)
	movl	-4(%rbp), %eax
	cmpl	-28(%rbp), %eax
	jne	.LBB53_109
# %bb.108:                              #   in Loop: Header=BB53_1 Depth=1
	movl	-56(%rbp), %eax
	addl	-28(%rbp), %eax
	movl	%eax, -28(%rbp)
	movq	-24(%rbp), %rdi
	movl	-28(%rbp), %esi
	callq	P7ReallocTrace
.LBB53_109:                             #   in Loop: Header=BB53_1 Depth=1
	jmp	.LBB53_1
.LBB53_110:
	movl	-4(%rbp), %eax
	movq	-24(%rbp), %rcx
	movl	%eax, (%rcx)
	movq	-24(%rbp), %rdi
	callq	P7ReverseTrace
	movq	-24(%rbp), %rax
	movq	-72(%rbp), %rcx
	movq	%rax, (%rcx)
.LBB53_111:
	addq	$112, %rsp
	popq	%rbp
	retq
.Lfunc_end53:
	.size	P7ViterbiTrace, .Lfunc_end53-P7ViterbiTrace
	.cfi_endproc
	.section	.rodata,"a",@progbits
	.p2align	3
.LJTI53_0:
	.quad	.LBB53_4
	.quad	.LBB53_27
	.quad	.LBB53_37
	.quad	.LBB53_106
	.quad	.LBB53_47
	.quad	.LBB53_56
	.quad	.LBB53_66
	.quad	.LBB53_86
	.quad	.LBB53_106
	.quad	.LBB53_96
                                        # -- End function
	.text
	.globl	P7SmallViterbi          # -- Begin function P7SmallViterbi
	.p2align	4, 0x90
	.type	P7SmallViterbi,@function
P7SmallViterbi:                         # @P7SmallViterbi
	.cfi_startproc
# %bb.0:
	pushq	%rbp
	.cfi_def_cfa_offset 16
	.cfi_offset %rbp, -16
	movq	%rsp, %rbp
	.cfi_def_cfa_register %rbp
	subq	$112, %rsp
	leaq	-40(%rbp), %rax
	movq	%rdi, -96(%rbp)
	movl	%esi, -68(%rbp)
	movq	%rdx, -88(%rbp)
	movq	%rcx, -112(%rbp)
	movq	%r8, -104(%rbp)
	movq	-96(%rbp), %rdi
	movl	-68(%rbp), %esi
	movq	-88(%rbp), %rdx
	movq	%rax, %rcx
	callq	P7ParsingViterbi
	movss	%xmm0, -72(%rbp)
	cmpq	$0, -40(%rbp)
	je	.LBB54_2
# %bb.1:
	cmpq	$0, -104(%rbp)
	jne	.LBB54_3
.LBB54_2:
	movq	-40(%rbp), %rdi
	callq	P7FreeTrace
	movss	-72(%rbp), %xmm0        # xmm0 = mem[0],zero,zero,zero
	movss	%xmm0, -76(%rbp)
	jmp	.LBB54_40
.LBB54_3:
	movabsq	$.L.str.48, %rdi
	movl	$2, %ecx
	movq	-40(%rbp), %rax
	movl	(%rax), %eax
	cltd
	idivl	%ecx
	subl	$1, %eax
	movl	%eax, -28(%rbp)
	movslq	-28(%rbp), %rdx
	shlq	$3, %rdx
	movl	$930, %esi              # imm = 0x3A2
	callq	sre_malloc
	movq	%rax, -56(%rbp)
	movl	$0, -64(%rbp)
	movl	$0, -44(%rbp)
	movl	$0, -8(%rbp)
.LBB54_4:                               # =>This Inner Loop Header: Depth=1
	movl	-8(%rbp), %eax
	cmpl	-28(%rbp), %eax
	jge	.LBB54_10
# %bb.5:                                #   in Loop: Header=BB54_4 Depth=1
	movq	-40(%rbp), %rax
	movq	24(%rax), %rax
	movl	-8(%rbp), %ecx
	shll	$1, %ecx
	addl	$2, %ecx
	movslq	%ecx, %rcx
	movl	(%rax,%rcx,4), %eax
	movq	-40(%rbp), %rcx
	movq	24(%rcx), %rcx
	movl	-8(%rbp), %edx
	shll	$1, %edx
	addl	$1, %edx
	movslq	%edx, %rdx
	subl	(%rcx,%rdx,4), %eax
	movl	%eax, -60(%rbp)
	movl	-60(%rbp), %edi
	movq	-88(%rbp), %rax
	movl	136(%rax), %esi
	callq	P7ViterbiSize
	cmpl	$1000, %eax             # imm = 0x3E8
	jle	.LBB54_7
# %bb.6:                                #   in Loop: Header=BB54_4 Depth=1
	movq	-96(%rbp), %rdi
	movq	-40(%rbp), %rax
	movq	24(%rax), %rax
	movl	-8(%rbp), %ecx
	shll	$1, %ecx
	addl	$1, %ecx
	movslq	%ecx, %rcx
	movslq	(%rax,%rcx,4), %rax
	addq	%rax, %rdi
	movl	-60(%rbp), %esi
	movq	-88(%rbp), %rdx
	movq	-56(%rbp), %rcx
	movslq	-8(%rbp), %rax
	shlq	$3, %rax
	addq	%rax, %rcx
	callq	P7WeeViterbi
	jmp	.LBB54_8
.LBB54_7:                               #   in Loop: Header=BB54_4 Depth=1
	movq	-96(%rbp), %rdi
	movq	-40(%rbp), %rax
	movq	24(%rax), %rax
	movl	-8(%rbp), %ecx
	shll	$1, %ecx
	addl	$1, %ecx
	movslq	%ecx, %rcx
	movslq	(%rax,%rcx,4), %rax
	addq	%rax, %rdi
	movl	-60(%rbp), %esi
	movq	-88(%rbp), %rdx
	movq	-112(%rbp), %rcx
	movq	-56(%rbp), %r8
	movslq	-8(%rbp), %rax
	shlq	$3, %rax
	addq	%rax, %r8
	callq	P7Viterbi
.LBB54_8:                               #   in Loop: Header=BB54_4 Depth=1
	movq	-56(%rbp), %rax
	movslq	-8(%rbp), %rcx
	movq	(%rax,%rcx,8), %rax
	movl	(%rax), %eax
	subl	$4, %eax
	addl	-44(%rbp), %eax
	movl	%eax, -44(%rbp)
	movl	-60(%rbp), %eax
	addl	-64(%rbp), %eax
	movl	%eax, -64(%rbp)
# %bb.9:                                #   in Loop: Header=BB54_4 Depth=1
	movl	-8(%rbp), %eax
	addl	$1, %eax
	movl	%eax, -8(%rbp)
	jmp	.LBB54_4
.LBB54_10:
	leaq	-24(%rbp), %rsi
	movl	-28(%rbp), %eax
	subl	$1, %eax
	addl	$4, %eax
	movl	-68(%rbp), %ecx
	subl	-64(%rbp), %ecx
	addl	%ecx, %eax
	addl	-44(%rbp), %eax
	movl	%eax, -44(%rbp)
	movl	-44(%rbp), %edi
	callq	P7AllocTrace
	movl	-44(%rbp), %eax
	movq	-24(%rbp), %rcx
	movl	%eax, (%rcx)
	movq	-24(%rbp), %rax
	movq	8(%rax), %rax
	movb	$4, (%rax)
	movq	-24(%rbp), %rax
	movq	16(%rax), %rax
	movl	$0, (%rax)
	movq	-24(%rbp), %rax
	movq	24(%rax), %rax
	movl	$0, (%rax)
	movq	-24(%rbp), %rax
	movq	8(%rax), %rax
	movb	$5, 1(%rax)
	movq	-24(%rbp), %rax
	movq	16(%rax), %rax
	movl	$0, 4(%rax)
	movq	-24(%rbp), %rax
	movq	24(%rax), %rax
	movl	$0, 4(%rax)
	movl	$2, -4(%rbp)
	movl	$1, -12(%rbp)
.LBB54_11:                              # =>This Inner Loop Header: Depth=1
	movl	-12(%rbp), %eax
	movq	-40(%rbp), %rcx
	movq	24(%rcx), %rcx
	cmpl	4(%rcx), %eax
	jg	.LBB54_14
# %bb.12:                               #   in Loop: Header=BB54_11 Depth=1
	movq	-24(%rbp), %rax
	movq	8(%rax), %rax
	movslq	-4(%rbp), %rcx
	movb	$5, (%rax,%rcx)
	movq	-24(%rbp), %rax
	movq	16(%rax), %rax
	movslq	-4(%rbp), %rcx
	movl	$0, (%rax,%rcx,4)
	movl	-12(%rbp), %eax
	movq	-24(%rbp), %rcx
	movq	24(%rcx), %rcx
	movslq	-4(%rbp), %rdx
	movl	%eax, (%rcx,%rdx,4)
	movl	-4(%rbp), %eax
	addl	$1, %eax
	movl	%eax, -4(%rbp)
# %bb.13:                               #   in Loop: Header=BB54_11 Depth=1
	movl	-12(%rbp), %eax
	addl	$1, %eax
	movl	%eax, -12(%rbp)
	jmp	.LBB54_11
.LBB54_14:
	movl	$0, -8(%rbp)
.LBB54_15:                              # =>This Loop Header: Depth=1
                                        #     Child Loop BB54_17 Depth 2
                                        #     Child Loop BB54_25 Depth 2
	movl	-8(%rbp), %eax
	cmpl	-28(%rbp), %eax
	jge	.LBB54_31
# %bb.16:                               #   in Loop: Header=BB54_15 Depth=1
	movl	$2, -32(%rbp)
.LBB54_17:                              #   Parent Loop BB54_15 Depth=1
                                        # =>  This Inner Loop Header: Depth=2
	movl	-32(%rbp), %eax
	movq	-56(%rbp), %rcx
	movslq	-8(%rbp), %rdx
	movq	(%rcx,%rdx,8), %rcx
	movl	(%rcx), %ecx
	subl	$2, %ecx
	cmpl	%ecx, %eax
	jge	.LBB54_23
# %bb.18:                               #   in Loop: Header=BB54_17 Depth=2
	movq	-56(%rbp), %rax
	movslq	-8(%rbp), %rcx
	movq	(%rax,%rcx,8), %rax
	movq	8(%rax), %rax
	movslq	-32(%rbp), %rcx
	movb	(%rax,%rcx), %al
	movq	-24(%rbp), %rcx
	movq	8(%rcx), %rcx
	movslq	-4(%rbp), %rdx
	movb	%al, (%rcx,%rdx)
	movq	-56(%rbp), %rax
	movslq	-8(%rbp), %rcx
	movq	(%rax,%rcx,8), %rax
	movq	16(%rax), %rax
	movslq	-32(%rbp), %rcx
	movl	(%rax,%rcx,4), %eax
	movq	-24(%rbp), %rcx
	movq	16(%rcx), %rcx
	movslq	-4(%rbp), %rdx
	movl	%eax, (%rcx,%rdx,4)
	movq	-56(%rbp), %rax
	movslq	-8(%rbp), %rcx
	movq	(%rax,%rcx,8), %rax
	movq	24(%rax), %rax
	movslq	-32(%rbp), %rcx
	cmpl	$0, (%rax,%rcx,4)
	jle	.LBB54_20
# %bb.19:                               #   in Loop: Header=BB54_17 Depth=2
