	.text
	.file	"llvm-link"
	.globl	calc_attackers          # -- Begin function calc_attackers
	.p2align	4, 0x90
	.type	calc_attackers,@function
calc_attackers:                         # @calc_attackers
	.cfi_startproc
# %bb.0:
	pushq	%rbp
	.cfi_def_cfa_offset 16
	.cfi_offset %rbp, -16
	movq	%rsp, %rbp
	.cfi_def_cfa_register %rbp
	movw	BasicBlockSignatureTracker, %ax
	movw	RunTimeSignatureAdjuster, %cx
	xorw	$-18666, %ax            # imm = 0xB716
	xorw	%cx, %ax
	cmpw	$2, %ax
	jne	.LBB0_217
# %bb.1:                                # %calc_attackers.split586
	movw	BasicBlockSignatureTracker, %ax
	movw	RunTimeSignatureAdjuster, %cx
	xorw	$-18666, %ax            # imm = 0xB716
	xorw	%cx, %ax
	cmpw	$2, %ax
	jne	.LBB0_217
# %bb.2:                                # %calc_attackers.split584
	movw	BasicBlockSignatureTracker, %ax
	movw	RunTimeSignatureAdjuster, %cx
	xorw	$-18666, %ax            # imm = 0xB716
	xorw	%cx, %ax
	cmpw	$2, %ax
	jne	.LBB0_217
# %bb.3:                                # %calc_attackers.split582
	movw	BasicBlockSignatureTracker, %ax
	movw	RunTimeSignatureAdjuster, %cx
	xorw	$-18666, %ax            # imm = 0xB716
	xorw	%cx, %ax
	cmpw	$2, %ax
	jne	.LBB0_217
# %bb.4:                                # %calc_attackers.split580
	movw	BasicBlockSignatureTracker, %ax
	movw	RunTimeSignatureAdjuster, %cx
	xorw	$-18666, %ax            # imm = 0xB716
	xorw	%cx, %ax
	cmpw	$2, %ax
	jne	.LBB0_217
# %bb.5:                                # %calc_attackers.split578
	movw	BasicBlockSignatureTracker, %ax
	movw	RunTimeSignatureAdjuster, %cx
	xorw	$-18666, %ax            # imm = 0xB716
	xorw	%cx, %ax
	cmpw	$2, %ax
	jne	.LBB0_217
# %bb.6:                                # %calc_attackers.split576
	movw	BasicBlockSignatureTracker, %ax
	movw	RunTimeSignatureAdjuster, %cx
	xorw	$-18666, %ax            # imm = 0xB716
	xorw	%cx, %ax
	cmpw	$2, %ax
	jne	.LBB0_217
# %bb.7:                                # %calc_attackers.split574
	movw	BasicBlockSignatureTracker, %ax
	movw	RunTimeSignatureAdjuster, %cx
	xorw	$-18666, %ax            # imm = 0xB716
	xorw	%cx, %ax
	cmpw	$2, %ax
	jne	.LBB0_217
# %bb.8:                                # %calc_attackers.split572
	movq	%rsp, %r8
	addq	$-16, %r8
	movq	%r8, %rsp
	movq	%rsp, %rcx
	addq	$-16, %rcx
	movq	%rcx, %rsp
	movq	%rsp, %rax
	addq	$-16, %rax
	movq	%rax, %rsp
	movq	%rsp, %r10
	addq	$-16, %r10
	movq	%r10, %rsp
	movq	%rsp, %r11
	addq	$-16, %r11
	movq	%r11, %rsp
	movq	%rsp, %r9
	addq	$-16, %r9
	movq	%r9, %rsp
	movl	%edi, (%rcx)
	movl	%esi, (%rax)
	movl	$0, (%r9)
	movslq	(%rcx), %rdx
	movl	board(,%rdx,4), %edx
	movw	$2, BasicBlockSignatureTracker
	movw	$0, RunTimeSignatureAdjuster
	cmpl	$0, %edx
	jne	.LBB0_11
# %bb.9:
	movw	BasicBlockSignatureTracker, %ax
	xorw	$18, %ax
	cmpw	$16, %ax
	jne	.LBB0_217
# %bb.10:                               # %calc_attackers.split
	movl	$0, (%r8)
	movw	$16, BasicBlockSignatureTracker
	movw	$0, RunTimeSignatureAdjuster
	jmp	.LBB0_205
.LBB0_11:
	movw	BasicBlockSignatureTracker, %dx
	xorw	$37, %dx
	cmpw	$39, %dx
	jne	.LBB0_217
# %bb.12:                               # %calc_attackers.split396
	movl	$2, %esi
	movl	(%rax), %eax
	cltd
	idivl	%esi
	movw	$39, BasicBlockSignatureTracker
	movw	$0, RunTimeSignatureAdjuster
	cmpl	$0, %edx
	je	.LBB0_109
# %bb.13:
	movw	BasicBlockSignatureTracker, %ax
	xorw	$102, %ax
	cmpw	$65, %ax
	jne	.LBB0_217
# %bb.14:                               # %calc_attackers.split400
	movl	$0, (%r11)
	movw	$65, BasicBlockSignatureTracker
	movw	$0, RunTimeSignatureAdjuster
.LBB0_15:                               # =>This Loop Header: Depth=1
                                        #     Child Loop BB0_23 Depth 2
	movw	BasicBlockSignatureTracker, %ax
	movw	RunTimeSignatureAdjuster, %dx
	xorw	$7, %ax
	xorw	%dx, %ax
	cmpw	$70, %ax
	jne	.LBB0_211
# %bb.16:                               # %calc_attackers.split404
                                        #   in Loop: Header=BB0_15 Depth=1
	movl	(%r11), %eax
	movw	$70, BasicBlockSignatureTracker
	movw	$0, RunTimeSignatureAdjuster
	cmpl	$4, %eax
	jge	.LBB0_48
# %bb.17:                               #   in Loop: Header=BB0_15 Depth=1
	movw	BasicBlockSignatureTracker, %ax
	xorw	$21, %ax
	cmpw	$83, %ax
	jne	.LBB0_211
# %bb.18:                               # %calc_attackers.split406
                                        #   in Loop: Header=BB0_15 Depth=1
	movl	(%rcx), %eax
	movslq	(%r11), %rdx
	addl	calc_attackers.rook_o(,%rdx,4), %eax
	movl	%eax, (%r10)
	movslq	(%r10), %rax
	movl	board(,%rax,4), %eax
	movw	$83, BasicBlockSignatureTracker
	movw	$0, RunTimeSignatureAdjuster
	cmpl	$5, %eax
	jne	.LBB0_21
# %bb.19:
	movw	BasicBlockSignatureTracker, %ax
	xorw	$13, %ax
	cmpw	$94, %ax
	jne	.LBB0_217
# %bb.20:                               # %calc_attackers.split410
	movl	(%r9), %eax
	addl	$1, %eax
	movl	%eax, (%r9)
	movw	$94, BasicBlockSignatureTracker
	movw	$24, RunTimeSignatureAdjuster
	jmp	.LBB0_49
.LBB0_21:                               #   in Loop: Header=BB0_15 Depth=1
	movw	BasicBlockSignatureTracker, %ax
	xorw	$50, %ax
	cmpw	$97, %ax
	jne	.LBB0_211
# %bb.22:                               # %calc_attackers.split412
                                        #   in Loop: Header=BB0_15 Depth=1
	movw	$97, BasicBlockSignatureTracker
	movw	$0, RunTimeSignatureAdjuster
.LBB0_23:                               #   Parent Loop BB0_15 Depth=1
                                        # =>  This Inner Loop Header: Depth=2
	movw	BasicBlockSignatureTracker, %ax
	movw	RunTimeSignatureAdjuster, %dx
	xorw	$9, %ax
	xorw	%dx, %ax
	cmpw	$104, %ax
	jne	.LBB0_210
# %bb.24:                               # %calc_attackers.split414
                                        #   in Loop: Header=BB0_23 Depth=2
	movslq	(%r10), %rax
	movl	board(,%rax,4), %eax
	movw	$104, BasicBlockSignatureTracker
	movw	$0, RunTimeSignatureAdjuster
	cmpl	$0, %eax
	je	.LBB0_41
# %bb.25:                               #   in Loop: Header=BB0_23 Depth=2
	movw	BasicBlockSignatureTracker, %ax
	xorw	$20, %ax
	cmpw	$124, %ax
	jne	.LBB0_210
# %bb.26:                               # %calc_attackers.split416
                                        #   in Loop: Header=BB0_23 Depth=2
	movslq	(%r10), %rax
	movl	board(,%rax,4), %eax
	movw	$124, BasicBlockSignatureTracker
	movw	$0, RunTimeSignatureAdjuster
	cmpl	$7, %eax
	je	.LBB0_29
# %bb.27:                               #   in Loop: Header=BB0_23 Depth=2
	movw	BasicBlockSignatureTracker, %ax
	xorw	$251, %ax
	cmpw	$135, %ax
	jne	.LBB0_210
# %bb.28:                               # %calc_attackers.split422
                                        #   in Loop: Header=BB0_23 Depth=2
	movslq	(%r10), %rax
	movl	board(,%rax,4), %eax
	movw	$135, BasicBlockSignatureTracker
	movw	$251, RunTimeSignatureAdjuster
	cmpl	$9, %eax
	jne	.LBB0_31
.LBB0_29:                               #   in Loop: Header=BB0_15 Depth=1
	movw	BasicBlockSignatureTracker, %ax
	movw	RunTimeSignatureAdjuster, %dx
	xorw	$247, %ax
	xorw	%dx, %ax
	cmpw	$139, %ax
	jne	.LBB0_211
# %bb.30:                               # %calc_attackers.split420
                                        #   in Loop: Header=BB0_15 Depth=1
	movl	(%r9), %eax
	addl	$1, %eax
	movl	%eax, (%r9)
	movw	$139, BasicBlockSignatureTracker
	movw	$227, RunTimeSignatureAdjuster
	jmp	.LBB0_42
.LBB0_31:                               # %Buffer__
                                        #   in Loop: Header=BB0_23 Depth=2
	movw	BasicBlockSignatureTracker, %ax
	xorw	$28205, %ax             # imm = 0x6E2D
	cmpw	$28330, %ax             # imm = 0x6EAA
	jne	.LBB0_210
# %bb.32:                               # %calc_attackers.split424
                                        #   in Loop: Header=BB0_23 Depth=2
	movw	$28330, BasicBlockSignatureTracker # imm = 0x6EAA
	movw	$28205, RunTimeSignatureAdjuster # imm = 0x6E2D
# %bb.33:                               #   in Loop: Header=BB0_23 Depth=2
	movw	BasicBlockSignatureTracker, %ax
	movw	RunTimeSignatureAdjuster, %dx
	xorw	$25, %ax
	xorw	%dx, %ax
	cmpw	$158, %ax
	jne	.LBB0_210
# %bb.34:                               # %calc_attackers.split588
                                        #   in Loop: Header=BB0_23 Depth=2
	movslq	(%r10), %rax
	movl	board(,%rax,4), %eax
	movw	$158, BasicBlockSignatureTracker
	movw	$0, RunTimeSignatureAdjuster
	cmpl	$13, %eax
	je	.LBB0_37
# %bb.35:                               #   in Loop: Header=BB0_15 Depth=1
	movw	BasicBlockSignatureTracker, %ax
	xorw	$34, %ax
	cmpw	$188, %ax
	jne	.LBB0_211
# %bb.36:                               # %calc_attackers.split426
                                        #   in Loop: Header=BB0_15 Depth=1
	movw	$188, BasicBlockSignatureTracker
	movw	$212, RunTimeSignatureAdjuster
	jmp	.LBB0_42
.LBB0_37:                               #   in Loop: Header=BB0_23 Depth=2
	movw	BasicBlockSignatureTracker, %ax
	xorw	$33, %ax
	cmpw	$191, %ax
	jne	.LBB0_210
# %bb.38:                               # %calc_attackers.split428
                                        #   in Loop: Header=BB0_23 Depth=2
	movw	$191, BasicBlockSignatureTracker
	movw	$0, RunTimeSignatureAdjuster
# %bb.39:                               #   in Loop: Header=BB0_23 Depth=2
	movw	BasicBlockSignatureTracker, %ax
	xorw	$123, %ax
	cmpw	$196, %ax
	jne	.LBB0_210
# %bb.40:                               # %calc_attackers.split430
                                        #   in Loop: Header=BB0_23 Depth=2
	movslq	(%r11), %rax
	movl	calc_attackers.rook_o(,%rax,4), %eax
	addl	(%r10), %eax
	movl	%eax, (%r10)
	movw	$196, BasicBlockSignatureTracker
	movw	$165, RunTimeSignatureAdjuster
	jmp	.LBB0_23
.LBB0_41:                               # %.loopexit5
                                        #   in Loop: Header=BB0_15 Depth=1
	jmp	.LBB0_42
.LBB0_42:                               #   in Loop: Header=BB0_15 Depth=1
	movw	BasicBlockSignatureTracker, %ax
	movw	RunTimeSignatureAdjuster, %dx
	xorw	$173, %ax
	xorw	%dx, %ax
	cmpw	$197, %ax
	jne	.LBB0_211
# %bb.43:                               # %calc_attackers.split418
                                        #   in Loop: Header=BB0_15 Depth=1
	movw	$197, BasicBlockSignatureTracker
	movw	$0, RunTimeSignatureAdjuster
# %bb.44:                               #   in Loop: Header=BB0_15 Depth=1
	movw	BasicBlockSignatureTracker, %ax
	xorw	$18, %ax
	cmpw	$215, %ax
	jne	.LBB0_211
# %bb.45:                               # %calc_attackers.split432
                                        #   in Loop: Header=BB0_15 Depth=1
	movw	$215, BasicBlockSignatureTracker
	movw	$0, RunTimeSignatureAdjuster
# %bb.46:                               #   in Loop: Header=BB0_15 Depth=1
	movw	BasicBlockSignatureTracker, %ax
	xorw	$14, %ax
	cmpw	$217, %ax
	jne	.LBB0_211
# %bb.47:                               # %calc_attackers.split434
                                        #   in Loop: Header=BB0_15 Depth=1
	movl	(%r11), %eax
	addl	$1, %eax
	movl	%eax, (%r11)
	movw	$217, BasicBlockSignatureTracker
	movw	$152, RunTimeSignatureAdjuster
	jmp	.LBB0_15
.LBB0_48:                               # %.loopexit7
	jmp	.LBB0_49
.LBB0_49:
	movw	BasicBlockSignatureTracker, %ax
	movw	RunTimeSignatureAdjuster, %dx
	xorw	$160, %ax
	xorw	%dx, %ax
	cmpw	$230, %ax
	jne	.LBB0_217
# %bb.50:                               # %calc_attackers.split408
	movl	$0, (%r11)
	movw	$230, BasicBlockSignatureTracker
	movw	$0, RunTimeSignatureAdjuster
.LBB0_51:                               # =>This Loop Header: Depth=1
                                        #     Child Loop BB0_67 Depth 2
	movw	BasicBlockSignatureTracker, %ax
	movw	RunTimeSignatureAdjuster, %dx
	xorw	$11, %ax
	xorw	%dx, %ax
	cmpw	$237, %ax
	jne	.LBB0_209
# %bb.52:                               # %calc_attackers.split436
                                        #   in Loop: Header=BB0_51 Depth=1
	movl	(%r11), %eax
	movw	$237, BasicBlockSignatureTracker
	movw	$0, RunTimeSignatureAdjuster
	cmpl	$4, %eax
	jge	.LBB0_94
# %bb.53:                               #   in Loop: Header=BB0_51 Depth=1
	movw	BasicBlockSignatureTracker, %ax
	xorw	$2, %ax
	cmpw	$239, %ax
	jne	.LBB0_209
# %bb.54:                               # %calc_attackers.split438
                                        #   in Loop: Header=BB0_51 Depth=1
	movl	(%rcx), %eax
	movslq	(%r11), %rdx
	addl	calc_attackers.bishop_o(,%rdx,4), %eax
	movl	%eax, (%r10)
	movslq	(%r10), %rax
	movl	board(,%rax,4), %eax
	movw	$239, BasicBlockSignatureTracker
	movw	$0, RunTimeSignatureAdjuster
	cmpl	$1, %eax
	jne	.LBB0_61
# %bb.55:                               #   in Loop: Header=BB0_51 Depth=1
	movw	BasicBlockSignatureTracker, %ax
	xorw	$29, %ax
	cmpw	$242, %ax
	jne	.LBB0_209
# %bb.56:                               # %calc_attackers.split442
                                        #   in Loop: Header=BB0_51 Depth=1
	movl	$2, %esi
	movl	(%r11), %eax
	cltd
	idivl	%esi
	movw	$242, BasicBlockSignatureTracker
	movw	$29, RunTimeSignatureAdjuster
	cmpl	$0, %edx
	je	.LBB0_61
# %bb.57:                               # %Buffer__1
	movw	BasicBlockSignatureTracker, %ax
	xorw	$19314, %ax             # imm = 0x4B72
	cmpw	$19328, %ax             # imm = 0x4B80
	jne	.LBB0_217
# %bb.58:                               # %calc_attackers.split446
	movw	$19328, BasicBlockSignatureTracker # imm = 0x4B80
	movw	$19314, RunTimeSignatureAdjuster # imm = 0x4B72
# %bb.59:
	movw	BasicBlockSignatureTracker, %ax
	movw	RunTimeSignatureAdjuster, %dx
	xorw	$483, %ax               # imm = 0x1E3
	xorw	%dx, %ax
	cmpw	$273, %ax               # imm = 0x111
	jne	.LBB0_217
# %bb.60:                               # %calc_attackers.split590
	movl	(%r9), %eax
	addl	$1, %eax
	movl	%eax, (%r9)
	movw	$273, BasicBlockSignatureTracker # imm = 0x111
	movw	$508, RunTimeSignatureAdjuster # imm = 0x1FC
	jmp	.LBB0_95
.LBB0_61:                               #   in Loop: Header=BB0_51 Depth=1
	movw	BasicBlockSignatureTracker, %ax
	movw	RunTimeSignatureAdjuster, %dx
	xorw	$507, %ax               # imm = 0x1FB
	xorw	%dx, %ax
	cmpw	$276, %ax               # imm = 0x114
	jne	.LBB0_209
# %bb.62:                               # %calc_attackers.split444
                                        #   in Loop: Header=BB0_51 Depth=1
	movslq	(%r10), %rax
	movl	board(,%rax,4), %eax
	movw	$276, BasicBlockSignatureTracker # imm = 0x114
	movw	$0, RunTimeSignatureAdjuster
	cmpl	$5, %eax
	jne	.LBB0_65
# %bb.63:
	movw	BasicBlockSignatureTracker, %ax
	xorw	$13, %ax
	cmpw	$281, %ax               # imm = 0x119
	jne	.LBB0_217
# %bb.64:                               # %calc_attackers.split448
	movl	(%r9), %eax
	addl	$1, %eax
	movl	%eax, (%r9)
	movw	$281, BasicBlockSignatureTracker # imm = 0x119
	movw	$500, RunTimeSignatureAdjuster # imm = 0x1F4
	jmp	.LBB0_95
.LBB0_65:                               #   in Loop: Header=BB0_51 Depth=1
	movw	BasicBlockSignatureTracker, %ax
	xorw	$8, %ax
	cmpw	$284, %ax               # imm = 0x11C
	jne	.LBB0_209
# %bb.66:                               # %calc_attackers.split450
                                        #   in Loop: Header=BB0_51 Depth=1
	movw	$284, BasicBlockSignatureTracker # imm = 0x11C
	movw	$0, RunTimeSignatureAdjuster
.LBB0_67:                               #   Parent Loop BB0_51 Depth=1
                                        # =>  This Inner Loop Header: Depth=2
	movw	BasicBlockSignatureTracker, %ax
	movw	RunTimeSignatureAdjuster, %dx
	xorw	$3, %ax
	xorw	%dx, %ax
	cmpw	$287, %ax               # imm = 0x11F
	jne	.LBB0_208
# %bb.68:                               # %calc_attackers.split452
                                        #   in Loop: Header=BB0_67 Depth=2
	movslq	(%r10), %rax
	movl	board(,%rax,4), %eax
	movw	$287, BasicBlockSignatureTracker # imm = 0x11F
	movw	$0, RunTimeSignatureAdjuster
	cmpl	$0, %eax
	je	.LBB0_85
# %bb.69:                               #   in Loop: Header=BB0_67 Depth=2
	movw	BasicBlockSignatureTracker, %ax
	xorw	$63, %ax
	cmpw	$288, %ax               # imm = 0x120
	jne	.LBB0_208
# %bb.70:                               # %calc_attackers.split454
                                        #   in Loop: Header=BB0_67 Depth=2
	movslq	(%r10), %rax
	movl	board(,%rax,4), %eax
	movw	$288, BasicBlockSignatureTracker # imm = 0x120
	movw	$0, RunTimeSignatureAdjuster
	cmpl	$11, %eax
	je	.LBB0_73
# %bb.71:                               #   in Loop: Header=BB0_67 Depth=2
	movw	BasicBlockSignatureTracker, %ax
	xorw	$2, %ax
	cmpw	$290, %ax               # imm = 0x122
	jne	.LBB0_208
# %bb.72:                               # %calc_attackers.split460
                                        #   in Loop: Header=BB0_67 Depth=2
	movslq	(%r10), %rax
	movl	board(,%rax,4), %eax
	movw	$290, BasicBlockSignatureTracker # imm = 0x122
	movw	$2, RunTimeSignatureAdjuster
	cmpl	$9, %eax
	jne	.LBB0_75
.LBB0_73:                               #   in Loop: Header=BB0_51 Depth=1
	movw	BasicBlockSignatureTracker, %ax
	movw	RunTimeSignatureAdjuster, %dx
	xorw	$6, %ax
	xorw	%dx, %ax
	cmpw	$294, %ax               # imm = 0x126
	jne	.LBB0_209
# %bb.74:                               # %calc_attackers.split458
                                        #   in Loop: Header=BB0_51 Depth=1
	movl	(%r9), %eax
	addl	$1, %eax
	movl	%eax, (%r9)
	movw	$294, BasicBlockSignatureTracker # imm = 0x126
	movw	$57, RunTimeSignatureAdjuster
	jmp	.LBB0_86
.LBB0_75:                               # %Buffer__2
                                        #   in Loop: Header=BB0_67 Depth=2
	movw	BasicBlockSignatureTracker, %ax
	xorw	$11042, %ax             # imm = 0x2B22
	cmpw	$10752, %ax             # imm = 0x2A00
	jne	.LBB0_208
# %bb.76:                               # %calc_attackers.split462
                                        #   in Loop: Header=BB0_67 Depth=2
	movw	$10752, BasicBlockSignatureTracker # imm = 0x2A00
	movw	$11042, RunTimeSignatureAdjuster # imm = 0x2B22
# %bb.77:                               #   in Loop: Header=BB0_67 Depth=2
	movw	BasicBlockSignatureTracker, %ax
	movw	RunTimeSignatureAdjuster, %dx
	xorw	$10, %ax
	xorw	%dx, %ax
	cmpw	$296, %ax               # imm = 0x128
	jne	.LBB0_208
# %bb.78:                               # %calc_attackers.split592
                                        #   in Loop: Header=BB0_67 Depth=2
	movslq	(%r10), %rax
	movl	board(,%rax,4), %eax
	movw	$296, BasicBlockSignatureTracker # imm = 0x128
	movw	$0, RunTimeSignatureAdjuster
	cmpl	$13, %eax
	je	.LBB0_81
# %bb.79:                               #   in Loop: Header=BB0_51 Depth=1
	movw	BasicBlockSignatureTracker, %ax
	xorw	$18, %ax
	cmpw	$314, %ax               # imm = 0x13A
	jne	.LBB0_209
# %bb.80:                               # %calc_attackers.split464
                                        #   in Loop: Header=BB0_51 Depth=1
	movw	$314, BasicBlockSignatureTracker # imm = 0x13A
	movw	$37, RunTimeSignatureAdjuster
	jmp	.LBB0_86
.LBB0_81:                               #   in Loop: Header=BB0_67 Depth=2
	movw	BasicBlockSignatureTracker, %ax
	xorw	$116, %ax
	cmpw	$348, %ax               # imm = 0x15C
	jne	.LBB0_208
# %bb.82:                               # %calc_attackers.split466
                                        #   in Loop: Header=BB0_67 Depth=2
	movw	$348, BasicBlockSignatureTracker # imm = 0x15C
	movw	$0, RunTimeSignatureAdjuster
# %bb.83:                               #   in Loop: Header=BB0_67 Depth=2
	movw	BasicBlockSignatureTracker, %ax
	xorw	$1, %ax
	cmpw	$349, %ax               # imm = 0x15D
	jne	.LBB0_208
# %bb.84:                               # %calc_attackers.split468
                                        #   in Loop: Header=BB0_67 Depth=2
	movslq	(%r11), %rax
	movl	calc_attackers.bishop_o(,%rax,4), %eax
	addl	(%r10), %eax
	movl	%eax, (%r10)
	movw	$349, BasicBlockSignatureTracker # imm = 0x15D
	movw	$65, RunTimeSignatureAdjuster
	jmp	.LBB0_67
.LBB0_85:                               # %.loopexit
                                        #   in Loop: Header=BB0_51 Depth=1
	jmp	.LBB0_86
.LBB0_86:                               #   in Loop: Header=BB0_51 Depth=1
	movw	BasicBlockSignatureTracker, %ax
	movw	RunTimeSignatureAdjuster, %dx
	xorw	$112, %ax
	xorw	%dx, %ax
	cmpw	$367, %ax               # imm = 0x16F
	jne	.LBB0_209
# %bb.87:                               # %calc_attackers.split456
                                        #   in Loop: Header=BB0_51 Depth=1
	movw	$367, BasicBlockSignatureTracker # imm = 0x16F
	movw	$0, RunTimeSignatureAdjuster
# %bb.88:                               #   in Loop: Header=BB0_51 Depth=1
	movw	BasicBlockSignatureTracker, %ax
	xorw	$232, %ax
	cmpw	$391, %ax               # imm = 0x187
	jne	.LBB0_209
# %bb.89:                               # %calc_attackers.split470
                                        #   in Loop: Header=BB0_51 Depth=1
	movw	$391, BasicBlockSignatureTracker # imm = 0x187
	movw	$0, RunTimeSignatureAdjuster
# %bb.90:                               #   in Loop: Header=BB0_51 Depth=1
	movw	BasicBlockSignatureTracker, %ax
	xorw	$26, %ax
	cmpw	$413, %ax               # imm = 0x19D
	jne	.LBB0_209
# %bb.91:                               # %calc_attackers.split472
                                        #   in Loop: Header=BB0_51 Depth=1
	movw	$413, BasicBlockSignatureTracker # imm = 0x19D
	movw	$0, RunTimeSignatureAdjuster
# %bb.92:                               #   in Loop: Header=BB0_51 Depth=1
	movw	BasicBlockSignatureTracker, %ax
	xorw	$60, %ax
	cmpw	$417, %ax               # imm = 0x1A1
	jne	.LBB0_209
# %bb.93:                               # %calc_attackers.split474
                                        #   in Loop: Header=BB0_51 Depth=1
	movl	(%r11), %eax
	addl	$1, %eax
	movl	%eax, (%r11)
	movw	$417, BasicBlockSignatureTracker # imm = 0x1A1
	movw	$327, RunTimeSignatureAdjuster # imm = 0x147
	jmp	.LBB0_51
.LBB0_94:                               # %.loopexit3
	jmp	.LBB0_95
.LBB0_95:
	movw	BasicBlockSignatureTracker, %ax
	movw	RunTimeSignatureAdjuster, %dx
	xorw	$322, %ax               # imm = 0x142
	xorw	%dx, %ax
	cmpw	$431, %ax               # imm = 0x1AF
	jne	.LBB0_217
# %bb.96:                               # %calc_attackers.split440
	movl	$0, (%r11)
	movw	$431, BasicBlockSignatureTracker # imm = 0x1AF
	movw	$0, RunTimeSignatureAdjuster
.LBB0_97:                               # =>This Inner Loop Header: Depth=1
	movw	BasicBlockSignatureTracker, %ax
	movw	RunTimeSignatureAdjuster, %dx
	xorw	$22, %ax
	xorw	%dx, %ax
	cmpw	$441, %ax               # imm = 0x1B9
	jne	.LBB0_207
# %bb.98:                               # %calc_attackers.split476
                                        #   in Loop: Header=BB0_97 Depth=1
	movl	(%r11), %eax
	movw	$441, BasicBlockSignatureTracker # imm = 0x1B9
	movw	$0, RunTimeSignatureAdjuster
	cmpl	$8, %eax
	jge	.LBB0_107
# %bb.99:                               #   in Loop: Header=BB0_97 Depth=1
	movw	BasicBlockSignatureTracker, %ax
	xorw	$126, %ax
	cmpw	$455, %ax               # imm = 0x1C7
	jne	.LBB0_207
# %bb.100:                              # %calc_attackers.split478
                                        #   in Loop: Header=BB0_97 Depth=1
	movl	(%rcx), %eax
	movslq	(%r11), %rdx
	addl	calc_attackers.knight_o(,%rdx,4), %eax
	movl	%eax, (%r10)
	movslq	(%r10), %rax
	movl	board(,%rax,4), %eax
	movw	$455, BasicBlockSignatureTracker # imm = 0x1C7
	movw	$0, RunTimeSignatureAdjuster
	cmpl	$3, %eax
	jne	.LBB0_103
# %bb.101:                              #   in Loop: Header=BB0_97 Depth=1
	movw	BasicBlockSignatureTracker, %ax
	xorw	$20, %ax
	cmpw	$467, %ax               # imm = 0x1D3
	jne	.LBB0_207
# %bb.102:                              # %calc_attackers.split482
                                        #   in Loop: Header=BB0_97 Depth=1
	movl	(%r9), %eax
	addl	$1, %eax
	movl	%eax, (%r9)
	movw	$467, BasicBlockSignatureTracker # imm = 0x1D3
	movw	$20, RunTimeSignatureAdjuster
.LBB0_103:                              #   in Loop: Header=BB0_97 Depth=1
	movw	BasicBlockSignatureTracker, %ax
	movw	RunTimeSignatureAdjuster, %dx
	xorw	$36, %ax
	xorw	%dx, %ax
	cmpw	$483, %ax               # imm = 0x1E3
	jne	.LBB0_207
# %bb.104:                              # %calc_attackers.split484
                                        #   in Loop: Header=BB0_97 Depth=1
	movw	$483, BasicBlockSignatureTracker # imm = 0x1E3
	movw	$0, RunTimeSignatureAdjuster
# %bb.105:                              #   in Loop: Header=BB0_97 Depth=1
	movw	BasicBlockSignatureTracker, %ax
	xorw	$11, %ax
	cmpw	$488, %ax               # imm = 0x1E8
	jne	.LBB0_207
# %bb.106:                              # %calc_attackers.split486
                                        #   in Loop: Header=BB0_97 Depth=1
	movl	(%r11), %eax
	addl	$1, %eax
	movl	%eax, (%r11)
	movw	$488, BasicBlockSignatureTracker # imm = 0x1E8
	movw	$71, RunTimeSignatureAdjuster
	jmp	.LBB0_97
.LBB0_107:
	movw	BasicBlockSignatureTracker, %ax
	xorw	$77, %ax
	cmpw	$500, %ax               # imm = 0x1F4
	jne	.LBB0_217
# %bb.108:                              # %calc_attackers.split480
	movw	$500, BasicBlockSignatureTracker # imm = 0x1F4
	movw	$0, RunTimeSignatureAdjuster
	jmp	.LBB0_203
.LBB0_109:
	movw	BasicBlockSignatureTracker, %ax
	xorw	$473, %ax               # imm = 0x1D9
	cmpw	$510, %ax               # imm = 0x1FE
	jne	.LBB0_217
# %bb.110:                              # %calc_attackers.split402
	movl	$0, (%r11)
	movw	$510, BasicBlockSignatureTracker # imm = 0x1FE
	movw	$0, RunTimeSignatureAdjuster
.LBB0_111:                              # =>This Loop Header: Depth=1
                                        #     Child Loop BB0_119 Depth 2
	movw	BasicBlockSignatureTracker, %ax
	movw	RunTimeSignatureAdjuster, %dx
	xorw	$1, %ax
	xorw	%dx, %ax
	cmpw	$511, %ax               # imm = 0x1FF
	jne	.LBB0_216
# %bb.112:                              # %calc_attackers.split490
                                        #   in Loop: Header=BB0_111 Depth=1
	movl	(%r11), %eax
	movw	$511, BasicBlockSignatureTracker # imm = 0x1FF
	movw	$0, RunTimeSignatureAdjuster
	cmpl	$4, %eax
	jge	.LBB0_142
# %bb.113:                              #   in Loop: Header=BB0_111 Depth=1
	movw	BasicBlockSignatureTracker, %ax
	xorw	$1017, %ax              # imm = 0x3F9
	cmpw	$518, %ax               # imm = 0x206
	jne	.LBB0_216
# %bb.114:                              # %calc_attackers.split492
                                        #   in Loop: Header=BB0_111 Depth=1
	movl	(%rcx), %eax
	movslq	(%r11), %rdx
	addl	calc_attackers.rook_o(,%rdx,4), %eax
	movl	%eax, (%r10)
	movslq	(%r10), %rax
	movl	board(,%rax,4), %eax
	movw	$518, BasicBlockSignatureTracker # imm = 0x206
	movw	$0, RunTimeSignatureAdjuster
	cmpl	$6, %eax
	jne	.LBB0_117
# %bb.115:
	movw	BasicBlockSignatureTracker, %ax
	xorw	$8, %ax
	cmpw	$526, %ax               # imm = 0x20E
	jne	.LBB0_217
# %bb.116:                              # %calc_attackers.split496
	movl	(%r9), %eax
	addl	$1, %eax
	movl	%eax, (%r9)
	movw	$526, BasicBlockSignatureTracker # imm = 0x20E
	movw	$1009, RunTimeSignatureAdjuster # imm = 0x3F1
	jmp	.LBB0_143
.LBB0_117:                              #   in Loop: Header=BB0_111 Depth=1
	movw	BasicBlockSignatureTracker, %ax
	xorw	$27, %ax
	cmpw	$541, %ax               # imm = 0x21D
	jne	.LBB0_216
# %bb.118:                              # %calc_attackers.split498
                                        #   in Loop: Header=BB0_111 Depth=1
	movw	$541, BasicBlockSignatureTracker # imm = 0x21D
	movw	$0, RunTimeSignatureAdjuster
.LBB0_119:                              #   Parent Loop BB0_111 Depth=1
                                        # =>  This Inner Loop Header: Depth=2
	movw	BasicBlockSignatureTracker, %ax
	movw	RunTimeSignatureAdjuster, %dx
	xorw	$63, %ax
	xorw	%dx, %ax
	cmpw	$546, %ax               # imm = 0x222
	jne	.LBB0_215
# %bb.120:                              # %calc_attackers.split500
                                        #   in Loop: Header=BB0_119 Depth=2
	movslq	(%r10), %rax
	movl	board(,%rax,4), %eax
	movw	$546, BasicBlockSignatureTracker # imm = 0x222
	movw	$0, RunTimeSignatureAdjuster
	cmpl	$0, %eax
	je	.LBB0_135
# %bb.121:                              #   in Loop: Header=BB0_119 Depth=2
	movw	BasicBlockSignatureTracker, %ax
	xorw	$10, %ax
	cmpw	$552, %ax               # imm = 0x228
	jne	.LBB0_215
# %bb.122:                              # %calc_attackers.split502
                                        #   in Loop: Header=BB0_119 Depth=2
	movslq	(%r10), %rax
	movl	board(,%rax,4), %eax
	movw	$552, BasicBlockSignatureTracker # imm = 0x228
	movw	$0, RunTimeSignatureAdjuster
	cmpl	$8, %eax
	je	.LBB0_125
# %bb.123:                              #   in Loop: Header=BB0_119 Depth=2
	movw	BasicBlockSignatureTracker, %ax
	xorw	$111, %ax
	cmpw	$583, %ax               # imm = 0x247
	jne	.LBB0_215
# %bb.124:                              # %calc_attackers.split508
                                        #   in Loop: Header=BB0_119 Depth=2
	movslq	(%r10), %rax
	movl	board(,%rax,4), %eax
	movw	$583, BasicBlockSignatureTracker # imm = 0x247
	movw	$111, RunTimeSignatureAdjuster
	cmpl	$10, %eax
	jne	.LBB0_127
.LBB0_125:                              #   in Loop: Header=BB0_111 Depth=1
	movw	BasicBlockSignatureTracker, %ax
	movw	RunTimeSignatureAdjuster, %dx
	xorw	$100, %ax
	xorw	%dx, %ax
	cmpw	$588, %ax               # imm = 0x24C
	jne	.LBB0_216
# %bb.126:                              # %calc_attackers.split506
                                        #   in Loop: Header=BB0_111 Depth=1
	movl	(%r9), %eax
	addl	$1, %eax
	movl	%eax, (%r9)
	movw	$588, BasicBlockSignatureTracker # imm = 0x24C
	movw	$110, RunTimeSignatureAdjuster
	jmp	.LBB0_136
.LBB0_127:                              # %Buffer__3
                                        #   in Loop: Header=BB0_119 Depth=2
	movw	BasicBlockSignatureTracker, %ax
	xorw	$-26554, %ax            # imm = 0x9846
	cmpw	$-26111, %ax            # imm = 0x9A01
	jne	.LBB0_215
# %bb.128:                              # %calc_attackers.split510
                                        #   in Loop: Header=BB0_119 Depth=2
	movw	$-26111, BasicBlockSignatureTracker # imm = 0x9A01
	movw	$-26554, RunTimeSignatureAdjuster # imm = 0x9846
# %bb.129:                              #   in Loop: Header=BB0_119 Depth=2
	movw	BasicBlockSignatureTracker, %ax
	movw	RunTimeSignatureAdjuster, %dx
	xorw	$10, %ax
	xorw	%dx, %ax
	cmpw	$589, %ax               # imm = 0x24D
	jne	.LBB0_215
# %bb.130:                              # %calc_attackers.split594
                                        #   in Loop: Header=BB0_119 Depth=2
	movslq	(%r10), %rax
	movl	board(,%rax,4), %eax
	movw	$589, BasicBlockSignatureTracker # imm = 0x24D
	movw	$0, RunTimeSignatureAdjuster
	cmpl	$13, %eax
	je	.LBB0_133
# %bb.131:                              #   in Loop: Header=BB0_111 Depth=1
	movw	BasicBlockSignatureTracker, %ax
	xorw	$29, %ax
	cmpw	$592, %ax               # imm = 0x250
	jne	.LBB0_216
# %bb.132:                              # %calc_attackers.split512
                                        #   in Loop: Header=BB0_111 Depth=1
	movw	$592, BasicBlockSignatureTracker # imm = 0x250
	movw	$114, RunTimeSignatureAdjuster
	jmp	.LBB0_136
.LBB0_133:                              #   in Loop: Header=BB0_119 Depth=2
	movw	BasicBlockSignatureTracker, %ax
	xorw	$41, %ax
	cmpw	$612, %ax               # imm = 0x264
	jne	.LBB0_215
# %bb.134:                              # %calc_attackers.split514
                                        #   in Loop: Header=BB0_119 Depth=2
	movslq	(%r11), %rax
	movl	calc_attackers.rook_o(,%rax,4), %eax
	addl	(%r10), %eax
	movl	%eax, (%r10)
	movw	$612, BasicBlockSignatureTracker # imm = 0x264
	movw	$121, RunTimeSignatureAdjuster
	jmp	.LBB0_119
.LBB0_135:                              # %.loopexit14
                                        #   in Loop: Header=BB0_111 Depth=1
	jmp	.LBB0_136
.LBB0_136:                              #   in Loop: Header=BB0_111 Depth=1
	movw	BasicBlockSignatureTracker, %ax
	movw	RunTimeSignatureAdjuster, %dx
	xorw	$81, %ax
	xorw	%dx, %ax
	cmpw	$627, %ax               # imm = 0x273
	jne	.LBB0_216
# %bb.137:                              # %calc_attackers.split504
                                        #   in Loop: Header=BB0_111 Depth=1
	movw	$627, BasicBlockSignatureTracker # imm = 0x273
	movw	$0, RunTimeSignatureAdjuster
# %bb.138:                              #   in Loop: Header=BB0_111 Depth=1
	movw	BasicBlockSignatureTracker, %ax
	xorw	$14, %ax
	cmpw	$637, %ax               # imm = 0x27D
	jne	.LBB0_216
# %bb.139:                              # %calc_attackers.split516
                                        #   in Loop: Header=BB0_111 Depth=1
	movw	$637, BasicBlockSignatureTracker # imm = 0x27D
	movw	$0, RunTimeSignatureAdjuster
# %bb.140:                              #   in Loop: Header=BB0_111 Depth=1
	movw	BasicBlockSignatureTracker, %ax
	xorw	$231, %ax
	cmpw	$666, %ax               # imm = 0x29A
	jne	.LBB0_216
# %bb.141:                              # %calc_attackers.split518
                                        #   in Loop: Header=BB0_111 Depth=1
	movl	(%r11), %eax
	addl	$1, %eax
	movl	%eax, (%r11)
	movw	$666, BasicBlockSignatureTracker # imm = 0x29A
	movw	$868, RunTimeSignatureAdjuster # imm = 0x364
	jmp	.LBB0_111
.LBB0_142:                              # %.loopexit16
	jmp	.LBB0_143
.LBB0_143:
	movw	BasicBlockSignatureTracker, %ax
	movw	RunTimeSignatureAdjuster, %dx
	xorw	$851, %ax               # imm = 0x353
	xorw	%dx, %ax
	cmpw	$684, %ax               # imm = 0x2AC
	jne	.LBB0_217
# %bb.144:                              # %calc_attackers.split494
	movl	$0, (%r11)
	movw	$684, BasicBlockSignatureTracker # imm = 0x2AC
	movw	$0, RunTimeSignatureAdjuster
.LBB0_145:                              # =>This Loop Header: Depth=1
                                        #     Child Loop BB0_161 Depth 2
	movw	BasicBlockSignatureTracker, %ax
	movw	RunTimeSignatureAdjuster, %dx
	xorw	$24, %ax
	xorw	%dx, %ax
	cmpw	$692, %ax               # imm = 0x2B4
	jne	.LBB0_214
# %bb.146:                              # %calc_attackers.split520
                                        #   in Loop: Header=BB0_145 Depth=1
	movl	(%r11), %eax
	movw	$692, BasicBlockSignatureTracker # imm = 0x2B4
	movw	$0, RunTimeSignatureAdjuster
	cmpl	$4, %eax
	jge	.LBB0_188
# %bb.147:                              #   in Loop: Header=BB0_145 Depth=1
	movw	BasicBlockSignatureTracker, %ax
	xorw	$15, %ax
	cmpw	$699, %ax               # imm = 0x2BB
	jne	.LBB0_214
# %bb.148:                              # %calc_attackers.split522
                                        #   in Loop: Header=BB0_145 Depth=1
	movl	(%rcx), %eax
	movslq	(%r11), %rdx
	addl	calc_attackers.bishop_o(,%rdx,4), %eax
	movl	%eax, (%r10)
	movslq	(%r10), %rax
	movl	board(,%rax,4), %eax
	movw	$699, BasicBlockSignatureTracker # imm = 0x2BB
	movw	$0, RunTimeSignatureAdjuster
	cmpl	$2, %eax
	jne	.LBB0_155
# %bb.149:                              #   in Loop: Header=BB0_145 Depth=1
	movw	BasicBlockSignatureTracker, %ax
	xorw	$5, %ax
	cmpw	$702, %ax               # imm = 0x2BE
	jne	.LBB0_214
# %bb.150:                              # %calc_attackers.split526
                                        #   in Loop: Header=BB0_145 Depth=1
	movl	$2, %esi
	movl	(%r11), %eax
	cltd
	idivl	%esi
	movw	$702, BasicBlockSignatureTracker # imm = 0x2BE
	movw	$5, RunTimeSignatureAdjuster
	cmpl	$0, %edx
	jne	.LBB0_155
# %bb.151:                              # %Buffer__4
	movw	BasicBlockSignatureTracker, %ax
	xorw	$25685, %ax             # imm = 0x6455
	cmpw	$26347, %ax             # imm = 0x66EB
	jne	.LBB0_217
# %bb.152:                              # %calc_attackers.split530
	movw	$26347, BasicBlockSignatureTracker # imm = 0x66EB
	movw	$25685, RunTimeSignatureAdjuster # imm = 0x6455
# %bb.153:
	movw	BasicBlockSignatureTracker, %ax
	movw	RunTimeSignatureAdjuster, %dx
	xorw	$109, %ax
	xorw	%dx, %ax
	cmpw	$723, %ax               # imm = 0x2D3
	jne	.LBB0_217
# %bb.154:                              # %calc_attackers.split596
	movl	(%r9), %eax
	addl	$1, %eax
	movl	%eax, (%r9)
	movw	$723, BasicBlockSignatureTracker # imm = 0x2D3
	movw	$103, RunTimeSignatureAdjuster
	jmp	.LBB0_189
.LBB0_155:                              #   in Loop: Header=BB0_145 Depth=1
	movw	BasicBlockSignatureTracker, %ax
	movw	RunTimeSignatureAdjuster, %dx
	xorw	$83, %ax
	xorw	%dx, %ax
	cmpw	$744, %ax               # imm = 0x2E8
	jne	.LBB0_214
# %bb.156:                              # %calc_attackers.split528
                                        #   in Loop: Header=BB0_145 Depth=1
	movslq	(%r10), %rax
	movl	board(,%rax,4), %eax
	movw	$744, BasicBlockSignatureTracker # imm = 0x2E8
	movw	$0, RunTimeSignatureAdjuster
	cmpl	$6, %eax
	jne	.LBB0_159
# %bb.157:
	movw	BasicBlockSignatureTracker, %ax
	xorw	$29, %ax
	cmpw	$757, %ax               # imm = 0x2F5
	jne	.LBB0_217
# %bb.158:                              # %calc_attackers.split532
	movl	(%r9), %eax
	addl	$1, %eax
	movl	%eax, (%r9)
	movw	$757, BasicBlockSignatureTracker # imm = 0x2F5
	movw	$65, RunTimeSignatureAdjuster
	jmp	.LBB0_189
.LBB0_159:                              #   in Loop: Header=BB0_145 Depth=1
	movw	BasicBlockSignatureTracker, %ax
	xorw	$17, %ax
	cmpw	$761, %ax               # imm = 0x2F9
	jne	.LBB0_214
# %bb.160:                              # %calc_attackers.split534
                                        #   in Loop: Header=BB0_145 Depth=1
	movw	$761, BasicBlockSignatureTracker # imm = 0x2F9
	movw	$0, RunTimeSignatureAdjuster
.LBB0_161:                              #   Parent Loop BB0_145 Depth=1
                                        # =>  This Inner Loop Header: Depth=2
	movw	BasicBlockSignatureTracker, %ax
	movw	RunTimeSignatureAdjuster, %dx
	xorw	$508, %ax               # imm = 0x1FC
	xorw	%dx, %ax
	cmpw	$773, %ax               # imm = 0x305
	jne	.LBB0_213
# %bb.162:                              # %calc_attackers.split536
                                        #   in Loop: Header=BB0_161 Depth=2
	movslq	(%r10), %rax
	movl	board(,%rax,4), %eax
	movw	$773, BasicBlockSignatureTracker # imm = 0x305
	movw	$0, RunTimeSignatureAdjuster
	cmpl	$0, %eax
	je	.LBB0_179
# %bb.163:                              #   in Loop: Header=BB0_161 Depth=2
	movw	BasicBlockSignatureTracker, %ax
	xorw	$9, %ax
	cmpw	$780, %ax               # imm = 0x30C
	jne	.LBB0_213
# %bb.164:                              # %calc_attackers.split538
                                        #   in Loop: Header=BB0_161 Depth=2
	movslq	(%r10), %rax
	movl	board(,%rax,4), %eax
	movw	$780, BasicBlockSignatureTracker # imm = 0x30C
	movw	$0, RunTimeSignatureAdjuster
	cmpl	$12, %eax
	je	.LBB0_167
# %bb.165:                              #   in Loop: Header=BB0_161 Depth=2
	movw	BasicBlockSignatureTracker, %ax
	xorw	$47, %ax
	cmpw	$803, %ax               # imm = 0x323
	jne	.LBB0_213
# %bb.166:                              # %calc_attackers.split544
                                        #   in Loop: Header=BB0_161 Depth=2
	movslq	(%r10), %rax
	movl	board(,%rax,4), %eax
	movw	$803, BasicBlockSignatureTracker # imm = 0x323
	movw	$47, RunTimeSignatureAdjuster
	cmpl	$10, %eax
	jne	.LBB0_169
.LBB0_167:                              #   in Loop: Header=BB0_145 Depth=1
	movw	BasicBlockSignatureTracker, %ax
	movw	RunTimeSignatureAdjuster, %dx
	xorw	$85, %ax
	xorw	%dx, %ax
	cmpw	$857, %ax               # imm = 0x359
	jne	.LBB0_214
# %bb.168:                              # %calc_attackers.split542
                                        #   in Loop: Header=BB0_145 Depth=1
	movl	(%r9), %eax
	addl	$1, %eax
	movl	%eax, (%r9)
	movw	$857, BasicBlockSignatureTracker # imm = 0x359
	movw	$92, RunTimeSignatureAdjuster
	jmp	.LBB0_180
.LBB0_169:                              # %Buffer__5
                                        #   in Loop: Header=BB0_161 Depth=2
	movw	BasicBlockSignatureTracker, %ax
	xorw	$-29253, %ax            # imm = 0x8DBB
	cmpw	$-29032, %ax            # imm = 0x8E98
	jne	.LBB0_213
# %bb.170:                              # %calc_attackers.split546
                                        #   in Loop: Header=BB0_161 Depth=2
	movw	$-29032, BasicBlockSignatureTracker # imm = 0x8E98
	movw	$-29253, RunTimeSignatureAdjuster # imm = 0x8DBB
# %bb.171:                              #   in Loop: Header=BB0_161 Depth=2
	movw	BasicBlockSignatureTracker, %ax
	movw	RunTimeSignatureAdjuster, %dx
	xorw	$66, %ax
	xorw	%dx, %ax
	cmpw	$865, %ax               # imm = 0x361
	jne	.LBB0_213
# %bb.172:                              # %calc_attackers.split598
                                        #   in Loop: Header=BB0_161 Depth=2
	movslq	(%r10), %rax
	movl	board(,%rax,4), %eax
	movw	$865, BasicBlockSignatureTracker # imm = 0x361
	movw	$0, RunTimeSignatureAdjuster
	cmpl	$13, %eax
	je	.LBB0_175
# %bb.173:                              #   in Loop: Header=BB0_145 Depth=1
	movw	BasicBlockSignatureTracker, %ax
	xorw	$5, %ax
	cmpw	$868, %ax               # imm = 0x364
	jne	.LBB0_214
# %bb.174:                              # %calc_attackers.split548
                                        #   in Loop: Header=BB0_145 Depth=1
	movw	$868, BasicBlockSignatureTracker # imm = 0x364
	movw	$97, RunTimeSignatureAdjuster
	jmp	.LBB0_180
.LBB0_175:                              #   in Loop: Header=BB0_161 Depth=2
	movw	BasicBlockSignatureTracker, %ax
	xorw	$7, %ax
	cmpw	$870, %ax               # imm = 0x366
	jne	.LBB0_213
# %bb.176:                              # %calc_attackers.split550
                                        #   in Loop: Header=BB0_161 Depth=2
	movw	$870, BasicBlockSignatureTracker # imm = 0x366
	movw	$0, RunTimeSignatureAdjuster
# %bb.177:                              #   in Loop: Header=BB0_161 Depth=2
	movw	BasicBlockSignatureTracker, %ax
	xorw	$228, %ax
	cmpw	$898, %ax               # imm = 0x382
	jne	.LBB0_213
# %bb.178:                              # %calc_attackers.split552
                                        #   in Loop: Header=BB0_161 Depth=2
	movslq	(%r11), %rax
	movl	calc_attackers.bishop_o(,%rax,4), %eax
	addl	(%r10), %eax
	movl	%eax, (%r10)
	movw	$898, BasicBlockSignatureTracker # imm = 0x382
	movw	$379, RunTimeSignatureAdjuster # imm = 0x17B
	jmp	.LBB0_161
.LBB0_179:                              # %.loopexit10
                                        #   in Loop: Header=BB0_145 Depth=1
	jmp	.LBB0_180
.LBB0_180:                              #   in Loop: Header=BB0_145 Depth=1
	movw	BasicBlockSignatureTracker, %ax
	movw	RunTimeSignatureAdjuster, %dx
	xorw	$134, %ax
	xorw	%dx, %ax
	cmpw	$899, %ax               # imm = 0x383
	jne	.LBB0_214
# %bb.181:                              # %calc_attackers.split540
                                        #   in Loop: Header=BB0_145 Depth=1
	movw	$899, BasicBlockSignatureTracker # imm = 0x383
	movw	$0, RunTimeSignatureAdjuster
# %bb.182:                              #   in Loop: Header=BB0_145 Depth=1
	movw	BasicBlockSignatureTracker, %ax
	xorw	$5, %ax
	cmpw	$902, %ax               # imm = 0x386
	jne	.LBB0_214
# %bb.183:                              # %calc_attackers.split554
                                        #   in Loop: Header=BB0_145 Depth=1
	movw	$902, BasicBlockSignatureTracker # imm = 0x386
	movw	$0, RunTimeSignatureAdjuster
# %bb.184:                              #   in Loop: Header=BB0_145 Depth=1
	movw	BasicBlockSignatureTracker, %ax
	xorw	$18, %ax
	cmpw	$916, %ax               # imm = 0x394
	jne	.LBB0_214
# %bb.185:                              # %calc_attackers.split556
                                        #   in Loop: Header=BB0_145 Depth=1
	movw	$916, BasicBlockSignatureTracker # imm = 0x394
	movw	$0, RunTimeSignatureAdjuster
# %bb.186:                              #   in Loop: Header=BB0_145 Depth=1
	movw	BasicBlockSignatureTracker, %ax
	xorw	$53, %ax
	cmpw	$929, %ax               # imm = 0x3A1
	jne	.LBB0_214
# %bb.187:                              # %calc_attackers.split558
                                        #   in Loop: Header=BB0_145 Depth=1
	movl	(%r11), %eax
	addl	$1, %eax
	movl	%eax, (%r11)
	movw	$929, BasicBlockSignatureTracker # imm = 0x3A1
	movw	$269, RunTimeSignatureAdjuster # imm = 0x10D
	jmp	.LBB0_145
.LBB0_188:                              # %.loopexit12
	jmp	.LBB0_189
.LBB0_189:
	movw	BasicBlockSignatureTracker, %ax
	movw	RunTimeSignatureAdjuster, %dx
	xorw	$287, %ax               # imm = 0x11F
	xorw	%dx, %ax
	cmpw	$939, %ax               # imm = 0x3AB
	jne	.LBB0_217
# %bb.190:                              # %calc_attackers.split524
	movl	$0, (%r11)
	movw	$939, BasicBlockSignatureTracker # imm = 0x3AB
	movw	$0, RunTimeSignatureAdjuster
.LBB0_191:                              # =>This Inner Loop Header: Depth=1
	movw	BasicBlockSignatureTracker, %ax
	movw	RunTimeSignatureAdjuster, %dx
	xorw	$17, %ax
	xorw	%dx, %ax
	cmpw	$954, %ax               # imm = 0x3BA
	jne	.LBB0_212
# %bb.192:                              # %calc_attackers.split560
                                        #   in Loop: Header=BB0_191 Depth=1
	movl	(%r11), %eax
	movw	$954, BasicBlockSignatureTracker # imm = 0x3BA
	movw	$0, RunTimeSignatureAdjuster
	cmpl	$8, %eax
	jge	.LBB0_201
# %bb.193:                              #   in Loop: Header=BB0_191 Depth=1
	movw	BasicBlockSignatureTracker, %ax
	xorw	$111, %ax
	cmpw	$981, %ax               # imm = 0x3D5
	jne	.LBB0_212
# %bb.194:                              # %calc_attackers.split562
                                        #   in Loop: Header=BB0_191 Depth=1
	movl	(%rcx), %eax
	movslq	(%r11), %rdx
	addl	calc_attackers.knight_o(,%rdx,4), %eax
	movl	%eax, (%r10)
	movslq	(%r10), %rax
	movl	board(,%rax,4), %eax
	movw	$981, BasicBlockSignatureTracker # imm = 0x3D5
	movw	$0, RunTimeSignatureAdjuster
	cmpl	$4, %eax
	jne	.LBB0_197
# %bb.195:                              #   in Loop: Header=BB0_191 Depth=1
	movw	BasicBlockSignatureTracker, %ax
	xorw	$8, %ax
	cmpw	$989, %ax               # imm = 0x3DD
	jne	.LBB0_212
# %bb.196:                              # %calc_attackers.split566
                                        #   in Loop: Header=BB0_191 Depth=1
	movl	(%r9), %eax
	addl	$1, %eax
	movl	%eax, (%r9)
	movw	$989, BasicBlockSignatureTracker # imm = 0x3DD
	movw	$8, RunTimeSignatureAdjuster
.LBB0_197:                              #   in Loop: Header=BB0_191 Depth=1
	movw	BasicBlockSignatureTracker, %ax
	movw	RunTimeSignatureAdjuster, %dx
	xorw	$61, %ax
	xorw	%dx, %ax
	cmpw	$1000, %ax              # imm = 0x3E8
	jne	.LBB0_212
# %bb.198:                              # %calc_attackers.split568
                                        #   in Loop: Header=BB0_191 Depth=1
	movw	$1000, BasicBlockSignatureTracker # imm = 0x3E8
	movw	$0, RunTimeSignatureAdjuster
# %bb.199:                              #   in Loop: Header=BB0_191 Depth=1
	movw	BasicBlockSignatureTracker, %ax
	xorw	$1, %ax
	cmpw	$1001, %ax              # imm = 0x3E9
	jne	.LBB0_212
# %bb.200:                              # %calc_attackers.split570
                                        #   in Loop: Header=BB0_191 Depth=1
	movl	(%r11), %eax
	addl	$1, %eax
	movl	%eax, (%r11)
	movw	$1001, BasicBlockSignatureTracker # imm = 0x3E9
	movw	$66, RunTimeSignatureAdjuster
	jmp	.LBB0_191
.LBB0_201:
	movw	BasicBlockSignatureTracker, %ax
	xorw	$69, %ax
	cmpw	$1023, %ax              # imm = 0x3FF
	jne	.LBB0_217
# %bb.202:                              # %calc_attackers.split564
	movw	$1023, BasicBlockSignatureTracker # imm = 0x3FF
	movw	$523, RunTimeSignatureAdjuster # imm = 0x20B
.LBB0_203:
	movw	BasicBlockSignatureTracker, %ax
	movw	RunTimeSignatureAdjuster, %cx
	xorw	$1525, %ax              # imm = 0x5F5
	xorw	%cx, %ax
	cmpw	$1025, %ax              # imm = 0x401
	jne	.LBB0_217
# %bb.204:                              # %calc_attackers.split488
	movl	(%r9), %eax
	movl	%eax, (%r8)
	movw	$1025, BasicBlockSignatureTracker # imm = 0x401
	movw	$1041, RunTimeSignatureAdjuster # imm = 0x411
.LBB0_205:
	movw	BasicBlockSignatureTracker, %ax
	movw	RunTimeSignatureAdjuster, %cx
	xorw	$1027, %ax              # imm = 0x403
	xorw	%cx, %ax
	cmpw	$1043, %ax              # imm = 0x413
	jne	.LBB0_217
# %bb.206:                              # %calc_attackers.split398
	movl	(%r8), %eax
	movw	$1043, BasicBlockSignatureTracker # imm = 0x413
	movw	$-19682, RunTimeSignatureAdjuster # imm = 0xB31E
	movq	%rbp, %rsp
	popq	%rbp
	retq
.LBB0_207:                              # %CFerrorHandler.calc_attackers.loopexit
	jmp	.LBB0_217
.LBB0_208:                              # %CFerrorHandler.calc_attackers.loopexit1
	jmp	.LBB0_217
.LBB0_209:                              # %CFerrorHandler.calc_attackers.loopexit2
	jmp	.LBB0_217
.LBB0_210:                              # %CFerrorHandler.calc_attackers.loopexit4
	jmp	.LBB0_217
.LBB0_211:                              # %CFerrorHandler.calc_attackers.loopexit6
	jmp	.LBB0_217
.LBB0_212:                              # %CFerrorHandler.calc_attackers.loopexit8
	jmp	.LBB0_217
.LBB0_213:                              # %CFerrorHandler.calc_attackers.loopexit9
	jmp	.LBB0_217
.LBB0_214:                              # %CFerrorHandler.calc_attackers.loopexit11
	jmp	.LBB0_217
.LBB0_215:                              # %CFerrorHandler.calc_attackers.loopexit13
	jmp	.LBB0_217
.LBB0_216:                              # %CFerrorHandler.calc_attackers.loopexit15
	jmp	.LBB0_217
.LBB0_217:                              # %CFerrorHandler.calc_attackers
	callq	FAULT_DETECTED_CFC
.Lfunc_end0:
	.size	calc_attackers, .Lfunc_end0-calc_attackers
	.cfi_endproc
                                        # -- End function
	.globl	is_attacked             # -- Begin function is_attacked
	.p2align	4, 0x90
	.type	is_attacked,@function
is_attacked:                            # @is_attacked
	.cfi_startproc
# %bb.0:
	pushq	%rbp
	.cfi_def_cfa_offset 16
	.cfi_offset %rbp, -16
	movq	%rsp, %rbp
	.cfi_def_cfa_register %rbp
	movw	BasicBlockSignatureTracker, %ax
	movw	RunTimeSignatureAdjuster, %cx
	xorw	$6607, %ax              # imm = 0x19CF
	xorw	%cx, %ax
	cmpw	$1050, %ax              # imm = 0x41A
	jne	.LBB1_217
# %bb.1:                                # %is_attacked.split708
	movw	BasicBlockSignatureTracker, %ax
	movw	RunTimeSignatureAdjuster, %cx
	xorw	$6607, %ax              # imm = 0x19CF
	xorw	%cx, %ax
	cmpw	$1050, %ax              # imm = 0x41A
	jne	.LBB1_217
# %bb.2:                                # %is_attacked.split706
	movw	BasicBlockSignatureTracker, %ax
	movw	RunTimeSignatureAdjuster, %cx
	xorw	$6607, %ax              # imm = 0x19CF
	xorw	%cx, %ax
	cmpw	$1050, %ax              # imm = 0x41A
	jne	.LBB1_217
# %bb.3:                                # %is_attacked.split704
	movw	BasicBlockSignatureTracker, %ax
	movw	RunTimeSignatureAdjuster, %cx
	xorw	$6607, %ax              # imm = 0x19CF
	xorw	%cx, %ax
	cmpw	$1050, %ax              # imm = 0x41A
	jne	.LBB1_217
# %bb.4:                                # %is_attacked.split702
	movw	BasicBlockSignatureTracker, %ax
	movw	RunTimeSignatureAdjuster, %cx
	xorw	$6607, %ax              # imm = 0x19CF
	xorw	%cx, %ax
	cmpw	$1050, %ax              # imm = 0x41A
	jne	.LBB1_217
# %bb.5:                                # %is_attacked.split700
	movw	BasicBlockSignatureTracker, %ax
	movw	RunTimeSignatureAdjuster, %cx
	xorw	$6607, %ax              # imm = 0x19CF
	xorw	%cx, %ax
	cmpw	$1050, %ax              # imm = 0x41A
	jne	.LBB1_217
# %bb.6:                                # %is_attacked.split698
	movw	BasicBlockSignatureTracker, %ax
	movw	RunTimeSignatureAdjuster, %cx
	xorw	$6607, %ax              # imm = 0x19CF
	xorw	%cx, %ax
	cmpw	$1050, %ax              # imm = 0x41A
	jne	.LBB1_217
# %bb.7:                                # %is_attacked.split696
	movw	BasicBlockSignatureTracker, %ax
	movw	RunTimeSignatureAdjuster, %cx
	xorw	$6607, %ax              # imm = 0x19CF
	xorw	%cx, %ax
	cmpw	$1050, %ax              # imm = 0x41A
	jne	.LBB1_217
# %bb.8:                                # %is_attacked.split694
	movw	BasicBlockSignatureTracker, %ax
	movw	RunTimeSignatureAdjuster, %cx
	xorw	$6607, %ax              # imm = 0x19CF
	xorw	%cx, %ax
	cmpw	$1050, %ax              # imm = 0x41A
	jne	.LBB1_217
# %bb.9:                                # %is_attacked.split692
	movw	BasicBlockSignatureTracker, %ax
	movw	RunTimeSignatureAdjuster, %cx
	xorw	$6607, %ax              # imm = 0x19CF
	xorw	%cx, %ax
	cmpw	$1050, %ax              # imm = 0x41A
	jne	.LBB1_217
# %bb.10:                               # %is_attacked.split690
	movw	BasicBlockSignatureTracker, %ax
	movw	RunTimeSignatureAdjuster, %cx
	xorw	$6607, %ax              # imm = 0x19CF
	xorw	%cx, %ax
	cmpw	$1050, %ax              # imm = 0x41A
	jne	.LBB1_217
# %bb.11:                               # %is_attacked.split688
	movw	BasicBlockSignatureTracker, %ax
	movw	RunTimeSignatureAdjuster, %cx
	xorw	$6607, %ax              # imm = 0x19CF
	xorw	%cx, %ax
	cmpw	$1050, %ax              # imm = 0x41A
	jne	.LBB1_217
# %bb.12:                               # %is_attacked.split686
	movw	BasicBlockSignatureTracker, %ax
	movw	RunTimeSignatureAdjuster, %cx
	xorw	$6607, %ax              # imm = 0x19CF
	xorw	%cx, %ax
	cmpw	$1050, %ax              # imm = 0x41A
	jne	.LBB1_217
# %bb.13:                               # %is_attacked.split684
	movw	BasicBlockSignatureTracker, %ax
	movw	RunTimeSignatureAdjuster, %cx
	xorw	$6607, %ax              # imm = 0x19CF
	xorw	%cx, %ax
	cmpw	$1050, %ax              # imm = 0x41A
	jne	.LBB1_217
# %bb.14:                               # %is_attacked.split682
	movw	BasicBlockSignatureTracker, %ax
	movw	RunTimeSignatureAdjuster, %cx
	xorw	$6607, %ax              # imm = 0x19CF
	xorw	%cx, %ax
	cmpw	$1050, %ax              # imm = 0x41A
	jne	.LBB1_217
# %bb.15:                               # %is_attacked.split680
	movw	BasicBlockSignatureTracker, %ax
	movw	RunTimeSignatureAdjuster, %cx
	xorw	$6607, %ax              # imm = 0x19CF
	xorw	%cx, %ax
	cmpw	$1050, %ax              # imm = 0x41A
	jne	.LBB1_217
# %bb.16:                               # %is_attacked.split678
	movw	BasicBlockSignatureTracker, %ax
	movw	RunTimeSignatureAdjuster, %cx
	xorw	$6607, %ax              # imm = 0x19CF
	xorw	%cx, %ax
	cmpw	$1050, %ax              # imm = 0x41A
	jne	.LBB1_217
# %bb.17:                               # %is_attacked.split676
	movw	BasicBlockSignatureTracker, %ax
	movw	RunTimeSignatureAdjuster, %cx
	xorw	$6607, %ax              # imm = 0x19CF
	xorw	%cx, %ax
	cmpw	$1050, %ax              # imm = 0x41A
	jne	.LBB1_217
# %bb.18:                               # %is_attacked.split674
	movw	BasicBlockSignatureTracker, %ax
	movw	RunTimeSignatureAdjuster, %cx
	xorw	$6607, %ax              # imm = 0x19CF
	xorw	%cx, %ax
	cmpw	$1050, %ax              # imm = 0x41A
	jne	.LBB1_217
# %bb.19:                               # %is_attacked.split672
	movw	BasicBlockSignatureTracker, %ax
	movw	RunTimeSignatureAdjuster, %cx
	xorw	$6607, %ax              # imm = 0x19CF
	xorw	%cx, %ax
	cmpw	$1050, %ax              # imm = 0x41A
	jne	.LBB1_217
# %bb.20:                               # %is_attacked.split670
	movw	BasicBlockSignatureTracker, %ax
	movw	RunTimeSignatureAdjuster, %cx
	xorw	$6607, %ax              # imm = 0x19CF
	xorw	%cx, %ax
	cmpw	$1050, %ax              # imm = 0x41A
	jne	.LBB1_217
# %bb.21:                               # %is_attacked.split668
	movw	BasicBlockSignatureTracker, %ax
	movw	RunTimeSignatureAdjuster, %cx
	xorw	$6607, %ax              # imm = 0x19CF
	xorw	%cx, %ax
	cmpw	$1050, %ax              # imm = 0x41A
	jne	.LBB1_217
# %bb.22:                               # %is_attacked.split666
	movw	BasicBlockSignatureTracker, %ax
	movw	RunTimeSignatureAdjuster, %cx
	xorw	$6607, %ax              # imm = 0x19CF
	xorw	%cx, %ax
	cmpw	$1050, %ax              # imm = 0x41A
	jne	.LBB1_217
# %bb.23:                               # %is_attacked.split664
	movw	BasicBlockSignatureTracker, %ax
	movw	RunTimeSignatureAdjuster, %cx
	xorw	$6607, %ax              # imm = 0x19CF
	xorw	%cx, %ax
	cmpw	$1050, %ax              # imm = 0x41A
	jne	.LBB1_217
# %bb.24:                               # %is_attacked.split662
	movw	BasicBlockSignatureTracker, %ax
	movw	RunTimeSignatureAdjuster, %cx
	xorw	$6607, %ax              # imm = 0x19CF
	xorw	%cx, %ax
	cmpw	$1050, %ax              # imm = 0x41A
	jne	.LBB1_217
# %bb.25:                               # %is_attacked.split660
	movw	BasicBlockSignatureTracker, %ax
	movw	RunTimeSignatureAdjuster, %cx
	xorw	$6607, %ax              # imm = 0x19CF
	xorw	%cx, %ax
	cmpw	$1050, %ax              # imm = 0x41A
	jne	.LBB1_217
# %bb.26:                               # %is_attacked.split658
	movw	BasicBlockSignatureTracker, %ax
	movw	RunTimeSignatureAdjuster, %cx
	xorw	$6607, %ax              # imm = 0x19CF
	xorw	%cx, %ax
	cmpw	$1050, %ax              # imm = 0x41A
	jne	.LBB1_217
# %bb.27:                               # %is_attacked.split656
	movw	BasicBlockSignatureTracker, %ax
	movw	RunTimeSignatureAdjuster, %cx
	xorw	$6607, %ax              # imm = 0x19CF
	xorw	%cx, %ax
	cmpw	$1050, %ax              # imm = 0x41A
	jne	.LBB1_217
# %bb.28:                               # %is_attacked.split654
	movw	BasicBlockSignatureTracker, %ax
	movw	RunTimeSignatureAdjuster, %cx
	xorw	$6607, %ax              # imm = 0x19CF
	xorw	%cx, %ax
	cmpw	$1050, %ax              # imm = 0x41A
	jne	.LBB1_217
# %bb.29:                               # %is_attacked.split652
	movw	BasicBlockSignatureTracker, %ax
	movw	RunTimeSignatureAdjuster, %cx
	xorw	$6607, %ax              # imm = 0x19CF
	xorw	%cx, %ax
	cmpw	$1050, %ax              # imm = 0x41A
	jne	.LBB1_217
# %bb.30:                               # %is_attacked.split650
	movw	BasicBlockSignatureTracker, %ax
	movw	RunTimeSignatureAdjuster, %cx
	xorw	$6607, %ax              # imm = 0x19CF
	xorw	%cx, %ax
	cmpw	$1050, %ax              # imm = 0x41A
	jne	.LBB1_217
# %bb.31:                               # %is_attacked.split648
	movw	BasicBlockSignatureTracker, %ax
	movw	RunTimeSignatureAdjuster, %cx
	xorw	$6607, %ax              # imm = 0x19CF
	xorw	%cx, %ax
	cmpw	$1050, %ax              # imm = 0x41A
	jne	.LBB1_217
# %bb.32:                               # %is_attacked.split646
	movw	BasicBlockSignatureTracker, %ax
	movw	RunTimeSignatureAdjuster, %cx
	xorw	$6607, %ax              # imm = 0x19CF
	xorw	%cx, %ax
	cmpw	$1050, %ax              # imm = 0x41A
	jne	.LBB1_217
# %bb.33:                               # %is_attacked.split644
	movw	BasicBlockSignatureTracker, %ax
	movw	RunTimeSignatureAdjuster, %cx
	xorw	$6607, %ax              # imm = 0x19CF
	xorw	%cx, %ax
	cmpw	$1050, %ax              # imm = 0x41A
	jne	.LBB1_217
# %bb.34:                               # %is_attacked.split642
	movw	BasicBlockSignatureTracker, %ax
	movw	RunTimeSignatureAdjuster, %cx
	xorw	$6607, %ax              # imm = 0x19CF
	xorw	%cx, %ax
	cmpw	$1050, %ax              # imm = 0x41A
	jne	.LBB1_217
# %bb.35:                               # %is_attacked.split640
	movw	BasicBlockSignatureTracker, %ax
	movw	RunTimeSignatureAdjuster, %cx
	xorw	$6607, %ax              # imm = 0x19CF
	xorw	%cx, %ax
	cmpw	$1050, %ax              # imm = 0x41A
	jne	.LBB1_217
# %bb.36:                               # %is_attacked.split638
	movq	%rsp, %r8
	addq	$-16, %r8
	movq	%r8, %rsp
	movq	%rsp, %rcx
	addq	$-16, %rcx
	movq	%rcx, %rsp
	movq	%rsp, %rdx
	addq	$-16, %rdx
	movq	%rdx, %rsp
	movq	%rsp, %r9
	addq	$-16, %r9
	movq	%r9, %rsp
	movq	%rsp, %r10
	addq	$-16, %r10
	movq	%r10, %rsp
	movq	%rsp, %r11
	addq	$-16, %r11
	movq	%r11, %rsp
	movq	%rsp, %rax
	addq	$-16, %rax
	movq	%rax, %rsp
	movl	%edi, (%rcx)
	movl	%esi, (%rdx)
	movl	(%rdx), %edx
	andl	$1, %edx
	movw	$1050, BasicBlockSignatureTracker # imm = 0x41A
	movw	$0, RunTimeSignatureAdjuster
	cmpl	$0, %edx
	je	.LBB1_121
# %bb.37:
	movw	BasicBlockSignatureTracker, %dx
	xorw	$59, %dx
	cmpw	$1057, %dx              # imm = 0x421
	jne	.LBB1_217
# %bb.38:                               # %is_attacked.split
	movl	$0, (%rax)
	movw	$1057, BasicBlockSignatureTracker # imm = 0x421
	movw	$0, RunTimeSignatureAdjuster
.LBB1_39:                               # =>This Loop Header: Depth=1
                                        #     Child Loop BB1_55 Depth 2
	movw	BasicBlockSignatureTracker, %dx
	movw	RunTimeSignatureAdjuster, %si
	xorw	$4, %dx
	xorw	%si, %dx
	cmpw	$1061, %dx              # imm = 0x425
	jne	.LBB1_211
# %bb.40:                               # %is_attacked.split488
                                        #   in Loop: Header=BB1_39 Depth=1
	movl	(%rax), %edx
	movw	$1061, BasicBlockSignatureTracker # imm = 0x425
	movw	$0, RunTimeSignatureAdjuster
	cmpl	$4, %edx
	jge	.LBB1_76
# %bb.41:                               #   in Loop: Header=BB1_39 Depth=1
	movw	BasicBlockSignatureTracker, %dx
	xorw	$15, %dx
	cmpw	$1066, %dx              # imm = 0x42A
	jne	.LBB1_211
# %bb.42:                               # %is_attacked.split490
                                        #   in Loop: Header=BB1_39 Depth=1
	movslq	(%rax), %rdx
	movl	is_attacked.bishop_o(,%rdx,4), %edx
	movl	%edx, (%r9)
	movl	(%rcx), %edx
	addl	(%r9), %edx
	movl	%edx, (%r10)
	movslq	(%r10), %rdx
	movl	board(,%rdx,4), %edx
	movl	%edx, (%r11)
	movl	(%r11), %edx
	movw	$1066, BasicBlockSignatureTracker # imm = 0x42A
	movw	$0, RunTimeSignatureAdjuster
	cmpl	$1, %edx
	jne	.LBB1_49
# %bb.43:                               #   in Loop: Header=BB1_39 Depth=1
	movw	BasicBlockSignatureTracker, %dx
	xorw	$24, %dx
	cmpw	$1074, %dx              # imm = 0x432
	jne	.LBB1_211
# %bb.44:                               # %is_attacked.split494
                                        #   in Loop: Header=BB1_39 Depth=1
	movl	(%rax), %edx
	andl	$1, %edx
	movw	$1074, BasicBlockSignatureTracker # imm = 0x432
	movw	$24, RunTimeSignatureAdjuster
	cmpl	$0, %edx
	je	.LBB1_49
# %bb.45:                               # %Buffer__
	movw	BasicBlockSignatureTracker, %ax
	xorw	$-665, %ax              # imm = 0xFD67
	cmpw	$-1707, %ax             # imm = 0xF955
	jne	.LBB1_217
# %bb.46:                               # %is_attacked.split498
	movw	$-1707, BasicBlockSignatureTracker # imm = 0xF955
	movw	$-665, RunTimeSignatureAdjuster # imm = 0xFD67
# %bb.47:
	movw	BasicBlockSignatureTracker, %ax
	movw	RunTimeSignatureAdjuster, %cx
	xorw	$115, %ax
	xorw	%cx, %ax
	cmpw	$1089, %ax              # imm = 0x441
	jne	.LBB1_217
# %bb.48:                               # %is_attacked.split710
	movl	$1, (%r8)
	movw	$1089, BasicBlockSignatureTracker # imm = 0x441
	movw	$0, RunTimeSignatureAdjuster
	jmp	.LBB1_205
.LBB1_49:                               #   in Loop: Header=BB1_39 Depth=1
	movw	BasicBlockSignatureTracker, %dx
	movw	RunTimeSignatureAdjuster, %si
	xorw	$104, %dx
	xorw	%si, %dx
	cmpw	$1090, %dx              # imm = 0x442
	jne	.LBB1_211
# %bb.50:                               # %is_attacked.split496
                                        #   in Loop: Header=BB1_39 Depth=1
	movl	(%r11), %edx
	movw	$1090, BasicBlockSignatureTracker # imm = 0x442
	movw	$0, RunTimeSignatureAdjuster
	cmpl	$5, %edx
	jne	.LBB1_53
# %bb.51:
	movw	BasicBlockSignatureTracker, %ax
	xorw	$1, %ax
	cmpw	$1091, %ax              # imm = 0x443
	jne	.LBB1_217
# %bb.52:                               # %is_attacked.split502
	movl	$1, (%r8)
	movw	$1091, BasicBlockSignatureTracker # imm = 0x443
	movw	$2, RunTimeSignatureAdjuster
	jmp	.LBB1_205
.LBB1_53:                               #   in Loop: Header=BB1_39 Depth=1
	movw	BasicBlockSignatureTracker, %dx
	xorw	$4, %dx
	cmpw	$1094, %dx              # imm = 0x446
	jne	.LBB1_211
# %bb.54:                               # %is_attacked.split504
                                        #   in Loop: Header=BB1_39 Depth=1
	movw	$1094, BasicBlockSignatureTracker # imm = 0x446
	movw	$0, RunTimeSignatureAdjuster
.LBB1_55:                               #   Parent Loop BB1_39 Depth=1
                                        # =>  This Inner Loop Header: Depth=2
	movw	BasicBlockSignatureTracker, %dx
	movw	RunTimeSignatureAdjuster, %si
	xorw	$24, %dx
	xorw	%si, %dx
	cmpw	$1118, %dx              # imm = 0x45E
	jne	.LBB1_210
# %bb.56:                               # %is_attacked.split506
                                        #   in Loop: Header=BB1_55 Depth=2
	movl	(%r11), %edx
	movw	$1118, BasicBlockSignatureTracker # imm = 0x45E
	movw	$0, RunTimeSignatureAdjuster
	cmpl	$0, %edx
	je	.LBB1_71
# %bb.57:                               #   in Loop: Header=BB1_55 Depth=2
	movw	BasicBlockSignatureTracker, %dx
	xorw	$49, %dx
	cmpw	$1135, %dx              # imm = 0x46F
	jne	.LBB1_210
# %bb.58:                               # %is_attacked.split508
                                        #   in Loop: Header=BB1_55 Depth=2
	movl	(%r11), %edx
	movw	$1135, BasicBlockSignatureTracker # imm = 0x46F
	movw	$0, RunTimeSignatureAdjuster
	cmpl	$11, %edx
	je	.LBB1_61
# %bb.59:                               #   in Loop: Header=BB1_55 Depth=2
	movw	BasicBlockSignatureTracker, %dx
	xorw	$23, %dx
	cmpw	$1144, %dx              # imm = 0x478
	jne	.LBB1_210
# %bb.60:                               # %is_attacked.split514
                                        #   in Loop: Header=BB1_55 Depth=2
	movl	(%r11), %edx
	movw	$1144, BasicBlockSignatureTracker # imm = 0x478
	movw	$23, RunTimeSignatureAdjuster
	cmpl	$9, %edx
	jne	.LBB1_63
.LBB1_61:
	movw	BasicBlockSignatureTracker, %ax
	movw	RunTimeSignatureAdjuster, %cx
	xorw	$232, %ax
	xorw	%cx, %ax
	cmpw	$1159, %ax              # imm = 0x487
	jne	.LBB1_217
# %bb.62:                               # %is_attacked.split512
	movl	$1, (%r8)
	movw	$1159, BasicBlockSignatureTracker # imm = 0x487
	movw	$198, RunTimeSignatureAdjuster
	jmp	.LBB1_205
.LBB1_63:                               # %Buffer__1
                                        #   in Loop: Header=BB1_55 Depth=2
	movw	BasicBlockSignatureTracker, %dx
	xorw	$26371, %dx             # imm = 0x6703
	cmpw	$25467, %dx             # imm = 0x637B
	jne	.LBB1_210
# %bb.64:                               # %is_attacked.split516
                                        #   in Loop: Header=BB1_55 Depth=2
	movw	$25467, BasicBlockSignatureTracker # imm = 0x637B
	movw	$26371, RunTimeSignatureAdjuster # imm = 0x6703
# %bb.65:                               #   in Loop: Header=BB1_55 Depth=2
	movw	BasicBlockSignatureTracker, %dx
	movw	RunTimeSignatureAdjuster, %si
	xorw	$237, %dx
	xorw	%si, %dx
	cmpw	$1173, %dx              # imm = 0x495
	jne	.LBB1_210
# %bb.66:                               # %is_attacked.split712
                                        #   in Loop: Header=BB1_55 Depth=2
	movl	(%r11), %edx
	movw	$1173, BasicBlockSignatureTracker # imm = 0x495
	movw	$0, RunTimeSignatureAdjuster
	cmpl	$13, %edx
	je	.LBB1_69
# %bb.67:                               #   in Loop: Header=BB1_39 Depth=1
	movw	BasicBlockSignatureTracker, %dx
	xorw	$15, %dx
	cmpw	$1178, %dx              # imm = 0x49A
	jne	.LBB1_211
# %bb.68:                               # %is_attacked.split518
                                        #   in Loop: Header=BB1_39 Depth=1
	movw	$1178, BasicBlockSignatureTracker # imm = 0x49A
	movw	$196, RunTimeSignatureAdjuster
	jmp	.LBB1_72
.LBB1_69:                               #   in Loop: Header=BB1_55 Depth=2
	movw	BasicBlockSignatureTracker, %dx
	xorw	$51, %dx
	cmpw	$1190, %dx              # imm = 0x4A6
	jne	.LBB1_210
# %bb.70:                               # %is_attacked.split520
                                        #   in Loop: Header=BB1_55 Depth=2
	movl	(%r9), %edx
	addl	(%r10), %edx
	movl	%edx, (%r10)
	movslq	(%r10), %rdx
	movl	board(,%rdx,4), %edx
	movl	%edx, (%r11)
	movw	$1190, BasicBlockSignatureTracker # imm = 0x4A6
	movw	$224, RunTimeSignatureAdjuster
	jmp	.LBB1_55
.LBB1_71:                               # %.loopexit4
                                        #   in Loop: Header=BB1_39 Depth=1
	jmp	.LBB1_72
.LBB1_72:                               #   in Loop: Header=BB1_39 Depth=1
	movw	BasicBlockSignatureTracker, %dx
	movw	RunTimeSignatureAdjuster, %si
	xorw	$247, %dx
	xorw	%si, %dx
	cmpw	$1193, %dx              # imm = 0x4A9
	jne	.LBB1_211
# %bb.73:                               # %is_attacked.split510
                                        #   in Loop: Header=BB1_39 Depth=1
	movw	$1193, BasicBlockSignatureTracker # imm = 0x4A9
	movw	$0, RunTimeSignatureAdjuster
# %bb.74:                               #   in Loop: Header=BB1_39 Depth=1
	movw	BasicBlockSignatureTracker, %dx
	xorw	$5, %dx
	cmpw	$1196, %dx              # imm = 0x4AC
	jne	.LBB1_211
# %bb.75:                               # %is_attacked.split522
                                        #   in Loop: Header=BB1_39 Depth=1
	movl	(%rax), %edx
	addl	$1, %edx
	movl	%edx, (%rax)
	movw	$1196, BasicBlockSignatureTracker # imm = 0x4AC
	movw	$141, RunTimeSignatureAdjuster
	jmp	.LBB1_39
.LBB1_76:
	movw	BasicBlockSignatureTracker, %dx
	xorw	$144, %dx
	cmpw	$1205, %dx              # imm = 0x4B5
	jne	.LBB1_217
# %bb.77:                               # %is_attacked.split492
	movl	$0, (%rax)
	movw	$1205, BasicBlockSignatureTracker # imm = 0x4B5
	movw	$0, RunTimeSignatureAdjuster
.LBB1_78:                               # =>This Inner Loop Header: Depth=1
	movw	BasicBlockSignatureTracker, %dx
	movw	RunTimeSignatureAdjuster, %si
	xorw	$10, %dx
	xorw	%si, %dx
	cmpw	$1215, %dx              # imm = 0x4BF
	jne	.LBB1_209
# %bb.79:                               # %is_attacked.split524
                                        #   in Loop: Header=BB1_78 Depth=1
	movl	(%rax), %edx
	movw	$1215, BasicBlockSignatureTracker # imm = 0x4BF
	movw	$0, RunTimeSignatureAdjuster
	cmpl	$8, %edx
	jge	.LBB1_88
# %bb.80:                               #   in Loop: Header=BB1_78 Depth=1
	movw	BasicBlockSignatureTracker, %dx
	xorw	$121, %dx
	cmpw	$1222, %dx              # imm = 0x4C6
	jne	.LBB1_209
# %bb.81:                               # %is_attacked.split526
                                        #   in Loop: Header=BB1_78 Depth=1
	movl	(%rcx), %edx
	movslq	(%rax), %rsi
	addl	is_attacked.knight_o(,%rsi,4), %edx
	movslq	%edx, %rdx
	movl	board(,%rdx,4), %edx
	movw	$1222, BasicBlockSignatureTracker # imm = 0x4C6
	movw	$0, RunTimeSignatureAdjuster
	cmpl	$3, %edx
	jne	.LBB1_84
# %bb.82:
	movw	BasicBlockSignatureTracker, %ax
	xorw	$12, %ax
	cmpw	$1226, %ax              # imm = 0x4CA
	jne	.LBB1_217
# %bb.83:                               # %is_attacked.split530
	movl	$1, (%r8)
	movw	$1226, BasicBlockSignatureTracker # imm = 0x4CA
	movw	$139, RunTimeSignatureAdjuster
	jmp	.LBB1_205
.LBB1_84:                               #   in Loop: Header=BB1_78 Depth=1
	movw	BasicBlockSignatureTracker, %dx
	xorw	$17, %dx
	cmpw	$1239, %dx              # imm = 0x4D7
	jne	.LBB1_209
# %bb.85:                               # %is_attacked.split532
                                        #   in Loop: Header=BB1_78 Depth=1
	movw	$1239, BasicBlockSignatureTracker # imm = 0x4D7
	movw	$0, RunTimeSignatureAdjuster
# %bb.86:                               #   in Loop: Header=BB1_78 Depth=1
	movw	BasicBlockSignatureTracker, %dx
	xorw	$14, %dx
	cmpw	$1241, %dx              # imm = 0x4D9
	jne	.LBB1_209
# %bb.87:                               # %is_attacked.split534
                                        #   in Loop: Header=BB1_78 Depth=1
	movl	(%rax), %edx
	addl	$1, %edx
	movl	%edx, (%rax)
	movw	$1241, BasicBlockSignatureTracker # imm = 0x4D9
	movw	$108, RunTimeSignatureAdjuster
	jmp	.LBB1_78
.LBB1_88:
	movw	BasicBlockSignatureTracker, %dx
	xorw	$95, %dx
	cmpw	$1248, %dx              # imm = 0x4E0
	jne	.LBB1_217
# %bb.89:                               # %is_attacked.split528
	movl	$0, (%rax)
	movw	$1248, BasicBlockSignatureTracker # imm = 0x4E0
	movw	$0, RunTimeSignatureAdjuster
.LBB1_90:                               # =>This Loop Header: Depth=1
                                        #     Child Loop BB1_98 Depth 2
	movw	BasicBlockSignatureTracker, %dx
	movw	RunTimeSignatureAdjuster, %si
	xorw	$14, %dx
	xorw	%si, %dx
	cmpw	$1262, %dx              # imm = 0x4EE
	jne	.LBB1_208
# %bb.91:                               # %is_attacked.split536
                                        #   in Loop: Header=BB1_90 Depth=1
	movl	(%rax), %edx
	movw	$1262, BasicBlockSignatureTracker # imm = 0x4EE
	movw	$0, RunTimeSignatureAdjuster
	cmpl	$4, %edx
	jge	.LBB1_119
# %bb.92:                               #   in Loop: Header=BB1_90 Depth=1
	movw	BasicBlockSignatureTracker, %dx
	xorw	$492, %dx               # imm = 0x1EC
	cmpw	$1282, %dx              # imm = 0x502
	jne	.LBB1_208
# %bb.93:                               # %is_attacked.split538
                                        #   in Loop: Header=BB1_90 Depth=1
	movslq	(%rax), %rdx
	movl	is_attacked.rook_o(,%rdx,4), %edx
	movl	%edx, (%r9)
	movl	(%rcx), %edx
	addl	(%r9), %edx
	movl	%edx, (%r10)
	movslq	(%r10), %rdx
	movl	board(,%rdx,4), %edx
	movl	%edx, (%r11)
	movl	(%r11), %edx
	movw	$1282, BasicBlockSignatureTracker # imm = 0x502
	movw	$0, RunTimeSignatureAdjuster
	cmpl	$5, %edx
	jne	.LBB1_96
# %bb.94:
	movw	BasicBlockSignatureTracker, %ax
	xorw	$19, %ax
	cmpw	$1297, %ax              # imm = 0x511
	jne	.LBB1_217
# %bb.95:                               # %is_attacked.split542
	movl	$1, (%r8)
	movw	$1297, BasicBlockSignatureTracker # imm = 0x511
	movw	$336, RunTimeSignatureAdjuster # imm = 0x150
	jmp	.LBB1_205
.LBB1_96:                               #   in Loop: Header=BB1_90 Depth=1
	movw	BasicBlockSignatureTracker, %dx
	xorw	$23, %dx
	cmpw	$1301, %dx              # imm = 0x515
	jne	.LBB1_208
# %bb.97:                               # %is_attacked.split544
                                        #   in Loop: Header=BB1_90 Depth=1
	movw	$1301, BasicBlockSignatureTracker # imm = 0x515
	movw	$0, RunTimeSignatureAdjuster
.LBB1_98:                               #   Parent Loop BB1_90 Depth=1
                                        # =>  This Inner Loop Header: Depth=2
	movw	BasicBlockSignatureTracker, %dx
	movw	RunTimeSignatureAdjuster, %si
	xorw	$58, %dx
	xorw	%si, %dx
	cmpw	$1327, %dx              # imm = 0x52F
	jne	.LBB1_207
# %bb.99:                               # %is_attacked.split546
                                        #   in Loop: Header=BB1_98 Depth=2
	movl	(%r11), %edx
	movw	$1327, BasicBlockSignatureTracker # imm = 0x52F
	movw	$0, RunTimeSignatureAdjuster
	cmpl	$0, %edx
	je	.LBB1_114
# %bb.100:                              #   in Loop: Header=BB1_98 Depth=2
	movw	BasicBlockSignatureTracker, %dx
	xorw	$25, %dx
	cmpw	$1334, %dx              # imm = 0x536
	jne	.LBB1_207
# %bb.101:                              # %is_attacked.split548
                                        #   in Loop: Header=BB1_98 Depth=2
	movl	(%r11), %edx
	movw	$1334, BasicBlockSignatureTracker # imm = 0x536
	movw	$0, RunTimeSignatureAdjuster
	cmpl	$7, %edx
	je	.LBB1_104
# %bb.102:                              #   in Loop: Header=BB1_98 Depth=2
	movw	BasicBlockSignatureTracker, %dx
	xorw	$14, %dx
	cmpw	$1336, %dx              # imm = 0x538
	jne	.LBB1_207
# %bb.103:                              # %is_attacked.split554
                                        #   in Loop: Header=BB1_98 Depth=2
	movl	(%r11), %edx
	movw	$1336, BasicBlockSignatureTracker # imm = 0x538
	movw	$14, RunTimeSignatureAdjuster
	cmpl	$9, %edx
	jne	.LBB1_106
.LBB1_104:
	movw	BasicBlockSignatureTracker, %ax
	movw	RunTimeSignatureAdjuster, %cx
	xorw	$10, %ax
	xorw	%cx, %ax
	cmpw	$1340, %ax              # imm = 0x53C
	jne	.LBB1_217
# %bb.105:                              # %is_attacked.split552
	movl	$1, (%r8)
	movw	$1340, BasicBlockSignatureTracker # imm = 0x53C
	movw	$381, RunTimeSignatureAdjuster # imm = 0x17D
	jmp	.LBB1_205
.LBB1_106:                              # %Buffer__2
                                        #   in Loop: Header=BB1_98 Depth=2
	movw	BasicBlockSignatureTracker, %dx
	xorw	$-27492, %dx            # imm = 0x949C
	cmpw	$-28252, %dx            # imm = 0x91A4
	jne	.LBB1_207
# %bb.107:                              # %is_attacked.split556
                                        #   in Loop: Header=BB1_98 Depth=2
	movw	$-28252, BasicBlockSignatureTracker # imm = 0x91A4
	movw	$-27492, RunTimeSignatureAdjuster # imm = 0x949C
# %bb.108:                              #   in Loop: Header=BB1_98 Depth=2
	movw	BasicBlockSignatureTracker, %dx
	movw	RunTimeSignatureAdjuster, %si
	xorw	$127, %dx
	xorw	%si, %dx
	cmpw	$1351, %dx              # imm = 0x547
	jne	.LBB1_207
# %bb.109:                              # %is_attacked.split714
                                        #   in Loop: Header=BB1_98 Depth=2
	movl	(%r11), %edx
	movw	$1351, BasicBlockSignatureTracker # imm = 0x547
	movw	$0, RunTimeSignatureAdjuster
	cmpl	$13, %edx
	je	.LBB1_112
# %bb.110:                              #   in Loop: Header=BB1_90 Depth=1
	movw	BasicBlockSignatureTracker, %dx
	xorw	$21, %dx
	cmpw	$1362, %dx              # imm = 0x552
	jne	.LBB1_208
# %bb.111:                              # %is_attacked.split558
                                        #   in Loop: Header=BB1_90 Depth=1
	movw	$1362, BasicBlockSignatureTracker # imm = 0x552
	movw	$125, RunTimeSignatureAdjuster
	jmp	.LBB1_115
.LBB1_112:                              #   in Loop: Header=BB1_98 Depth=2
	movw	BasicBlockSignatureTracker, %dx
	xorw	$49, %dx
	cmpw	$1398, %dx              # imm = 0x576
	jne	.LBB1_207
# %bb.113:                              # %is_attacked.split560
                                        #   in Loop: Header=BB1_98 Depth=2
	movl	(%r9), %edx
	addl	(%r10), %edx
	movl	%edx, (%r10)
	movslq	(%r10), %rdx
	movl	board(,%rdx,4), %edx
	movl	%edx, (%r11)
	movw	$1398, BasicBlockSignatureTracker # imm = 0x576
	movw	$99, RunTimeSignatureAdjuster
	jmp	.LBB1_98
.LBB1_114:                              # %.loopexit
                                        #   in Loop: Header=BB1_90 Depth=1
	jmp	.LBB1_115
.LBB1_115:                              #   in Loop: Header=BB1_90 Depth=1
	movw	BasicBlockSignatureTracker, %dx
	movw	RunTimeSignatureAdjuster, %si
	xorw	$174, %dx
	xorw	%si, %dx
	cmpw	$1409, %dx              # imm = 0x581
	jne	.LBB1_208
# %bb.116:                              # %is_attacked.split550
                                        #   in Loop: Header=BB1_90 Depth=1
	movw	$1409, BasicBlockSignatureTracker # imm = 0x581
	movw	$0, RunTimeSignatureAdjuster
# %bb.117:                              #   in Loop: Header=BB1_90 Depth=1
	movw	BasicBlockSignatureTracker, %dx
	xorw	$8, %dx
	cmpw	$1417, %dx              # imm = 0x589
	jne	.LBB1_208
# %bb.118:                              # %is_attacked.split562
                                        #   in Loop: Header=BB1_90 Depth=1
	movl	(%rax), %edx
	addl	$1, %edx
	movl	%edx, (%rax)
	movw	$1417, BasicBlockSignatureTracker # imm = 0x589
	movw	$361, RunTimeSignatureAdjuster # imm = 0x169
	jmp	.LBB1_90
.LBB1_119:
	movw	BasicBlockSignatureTracker, %ax
	xorw	$334, %ax               # imm = 0x14E
	cmpw	$1440, %ax              # imm = 0x5A0
	jne	.LBB1_217
# %bb.120:                              # %is_attacked.split540
	movl	$0, (%r8)
	movw	$1440, BasicBlockSignatureTracker # imm = 0x5A0
	movw	$481, RunTimeSignatureAdjuster # imm = 0x1E1
	jmp	.LBB1_205
.LBB1_121:
	movw	BasicBlockSignatureTracker, %dx
	xorw	$458, %dx               # imm = 0x1CA
	cmpw	$1488, %dx              # imm = 0x5D0
	jne	.LBB1_217
# %bb.122:                              # %is_attacked.split486
	movl	$0, (%rax)
	movw	$1488, BasicBlockSignatureTracker # imm = 0x5D0
	movw	$0, RunTimeSignatureAdjuster
.LBB1_123:                              # =>This Loop Header: Depth=1
                                        #     Child Loop BB1_139 Depth 2
	movw	BasicBlockSignatureTracker, %dx
	movw	RunTimeSignatureAdjuster, %si
	xorw	$8, %dx
	xorw	%si, %dx
	cmpw	$1496, %dx              # imm = 0x5D8
	jne	.LBB1_216
# %bb.124:                              # %is_attacked.split564
                                        #   in Loop: Header=BB1_123 Depth=1
	movl	(%rax), %edx
	movw	$1496, BasicBlockSignatureTracker # imm = 0x5D8
	movw	$0, RunTimeSignatureAdjuster
	cmpl	$4, %edx
	jge	.LBB1_160
# %bb.125:                              #   in Loop: Header=BB1_123 Depth=1
	movw	BasicBlockSignatureTracker, %dx
	xorw	$2, %dx
	cmpw	$1498, %dx              # imm = 0x5DA
	jne	.LBB1_216
# %bb.126:                              # %is_attacked.split566
                                        #   in Loop: Header=BB1_123 Depth=1
	movslq	(%rax), %rdx
	movl	is_attacked.bishop_o(,%rdx,4), %edx
	movl	%edx, (%r9)
	movl	(%rcx), %edx
	addl	(%r9), %edx
	movl	%edx, (%r10)
	movslq	(%r10), %rdx
	movl	board(,%rdx,4), %edx
	movl	%edx, (%r11)
	movl	(%r11), %edx
	movw	$1498, BasicBlockSignatureTracker # imm = 0x5DA
	movw	$0, RunTimeSignatureAdjuster
	cmpl	$2, %edx
	jne	.LBB1_133
# %bb.127:                              #   in Loop: Header=BB1_123 Depth=1
	movw	BasicBlockSignatureTracker, %dx
	xorw	$4, %dx
	cmpw	$1502, %dx              # imm = 0x5DE
	jne	.LBB1_216
# %bb.128:                              # %is_attacked.split570
                                        #   in Loop: Header=BB1_123 Depth=1
	movl	(%rax), %edx
	andl	$1, %edx
	movw	$1502, BasicBlockSignatureTracker # imm = 0x5DE
	movw	$4, RunTimeSignatureAdjuster
	cmpl	$0, %edx
	jne	.LBB1_133
# %bb.129:                              # %Buffer__3
	movw	BasicBlockSignatureTracker, %ax
	xorw	$16699, %ax             # imm = 0x413B
	cmpw	$17637, %ax             # imm = 0x44E5
	jne	.LBB1_217
# %bb.130:                              # %is_attacked.split574
	movw	$17637, BasicBlockSignatureTracker # imm = 0x44E5
	movw	$16699, RunTimeSignatureAdjuster # imm = 0x413B
# %bb.131:
	movw	BasicBlockSignatureTracker, %ax
	movw	RunTimeSignatureAdjuster, %cx
	xorw	$63, %ax
	xorw	%cx, %ax
	cmpw	$1505, %ax              # imm = 0x5E1
	jne	.LBB1_217
# %bb.132:                              # %is_attacked.split716
	movl	$1, (%r8)
	movw	$1505, BasicBlockSignatureTracker # imm = 0x5E1
	movw	$416, RunTimeSignatureAdjuster # imm = 0x1A0
	jmp	.LBB1_205
.LBB1_133:                              #   in Loop: Header=BB1_123 Depth=1
	movw	BasicBlockSignatureTracker, %dx
	movw	RunTimeSignatureAdjuster, %si
	xorw	$61, %dx
	xorw	%si, %dx
	cmpw	$1511, %dx              # imm = 0x5E7
	jne	.LBB1_216
# %bb.134:                              # %is_attacked.split572
                                        #   in Loop: Header=BB1_123 Depth=1
	movl	(%r11), %edx
	movw	$1511, BasicBlockSignatureTracker # imm = 0x5E7
	movw	$0, RunTimeSignatureAdjuster
	cmpl	$6, %edx
	jne	.LBB1_137
# %bb.135:
	movw	BasicBlockSignatureTracker, %ax
	xorw	$9, %ax
	cmpw	$1518, %ax              # imm = 0x5EE
	jne	.LBB1_217
# %bb.136:                              # %is_attacked.split576
	movl	$1, (%r8)
	movw	$1518, BasicBlockSignatureTracker # imm = 0x5EE
	movw	$431, RunTimeSignatureAdjuster # imm = 0x1AF
	jmp	.LBB1_205
.LBB1_137:                              #   in Loop: Header=BB1_123 Depth=1
	movw	BasicBlockSignatureTracker, %dx
	xorw	$8, %dx
	cmpw	$1519, %dx              # imm = 0x5EF
	jne	.LBB1_216
# %bb.138:                              # %is_attacked.split578
                                        #   in Loop: Header=BB1_123 Depth=1
	movw	$1519, BasicBlockSignatureTracker # imm = 0x5EF
	movw	$0, RunTimeSignatureAdjuster
.LBB1_139:                              #   Parent Loop BB1_123 Depth=1
                                        # =>  This Inner Loop Header: Depth=2
	movw	BasicBlockSignatureTracker, %dx
	movw	RunTimeSignatureAdjuster, %si
	xorw	$1005, %dx              # imm = 0x3ED
	xorw	%si, %dx
	cmpw	$1538, %dx              # imm = 0x602
	jne	.LBB1_215
# %bb.140:                              # %is_attacked.split580
                                        #   in Loop: Header=BB1_139 Depth=2
	movl	(%r11), %edx
	movw	$1538, BasicBlockSignatureTracker # imm = 0x602
	movw	$0, RunTimeSignatureAdjuster
	cmpl	$0, %edx
	je	.LBB1_155
# %bb.141:                              #   in Loop: Header=BB1_139 Depth=2
	movw	BasicBlockSignatureTracker, %dx
	xorw	$5, %dx
	cmpw	$1543, %dx              # imm = 0x607
	jne	.LBB1_215
# %bb.142:                              # %is_attacked.split582
                                        #   in Loop: Header=BB1_139 Depth=2
	movl	(%r11), %edx
	movw	$1543, BasicBlockSignatureTracker # imm = 0x607
	movw	$0, RunTimeSignatureAdjuster
	cmpl	$12, %edx
	je	.LBB1_145
# %bb.143:                              #   in Loop: Header=BB1_139 Depth=2
	movw	BasicBlockSignatureTracker, %dx
	xorw	$13, %dx
	cmpw	$1546, %dx              # imm = 0x60A
	jne	.LBB1_215
# %bb.144:                              # %is_attacked.split588
                                        #   in Loop: Header=BB1_139 Depth=2
	movl	(%r11), %edx
	movw	$1546, BasicBlockSignatureTracker # imm = 0x60A
	movw	$13, RunTimeSignatureAdjuster
	cmpl	$10, %edx
	jne	.LBB1_147
.LBB1_145:
	movw	BasicBlockSignatureTracker, %ax
	movw	RunTimeSignatureAdjuster, %cx
	xorw	$18, %ax
	xorw	%cx, %ax
	cmpw	$1557, %ax              # imm = 0x615
	jne	.LBB1_217
# %bb.146:                              # %is_attacked.split586
	movl	$1, (%r8)
	movw	$1557, BasicBlockSignatureTracker # imm = 0x615
	movw	$596, RunTimeSignatureAdjuster # imm = 0x254
	jmp	.LBB1_205
.LBB1_147:                              # %Buffer__4
                                        #   in Loop: Header=BB1_139 Depth=2
	movw	BasicBlockSignatureTracker, %dx
	xorw	$-31249, %dx            # imm = 0x85EF
	cmpw	$-31771, %dx            # imm = 0x83E5
	jne	.LBB1_215
# %bb.148:                              # %is_attacked.split590
                                        #   in Loop: Header=BB1_139 Depth=2
	movw	$-31771, BasicBlockSignatureTracker # imm = 0x83E5
	movw	$-31249, RunTimeSignatureAdjuster # imm = 0x85EF
# %bb.149:                              #   in Loop: Header=BB1_139 Depth=2
	movw	BasicBlockSignatureTracker, %dx
	movw	RunTimeSignatureAdjuster, %si
	xorw	$17, %dx
	xorw	%si, %dx
	cmpw	$1563, %dx              # imm = 0x61B
	jne	.LBB1_215
# %bb.150:                              # %is_attacked.split718
                                        #   in Loop: Header=BB1_139 Depth=2
	movl	(%r11), %edx
	movw	$1563, BasicBlockSignatureTracker # imm = 0x61B
	movw	$0, RunTimeSignatureAdjuster
	cmpl	$13, %edx
	je	.LBB1_153
# %bb.151:                              #   in Loop: Header=BB1_123 Depth=1
	movw	BasicBlockSignatureTracker, %dx
	xorw	$63, %dx
	cmpw	$1572, %dx              # imm = 0x624
	jne	.LBB1_216
# %bb.152:                              # %is_attacked.split592
                                        #   in Loop: Header=BB1_123 Depth=1
	movw	$1572, BasicBlockSignatureTracker # imm = 0x624
	movw	$38, RunTimeSignatureAdjuster
	jmp	.LBB1_156
.LBB1_153:                              #   in Loop: Header=BB1_139 Depth=2
	movw	BasicBlockSignatureTracker, %dx
	xorw	$48, %dx
	cmpw	$1579, %dx              # imm = 0x62B
	jne	.LBB1_215
# %bb.154:                              # %is_attacked.split594
                                        #   in Loop: Header=BB1_139 Depth=2
	movl	(%r9), %edx
	addl	(%r10), %edx
	movl	%edx, (%r10)
	movslq	(%r10), %rdx
	movl	board(,%rdx,4), %edx
	movl	%edx, (%r11)
	movw	$1579, BasicBlockSignatureTracker # imm = 0x62B
	movw	$964, RunTimeSignatureAdjuster # imm = 0x3C4
	jmp	.LBB1_139
.LBB1_155:                              # %.loopexit11
                                        #   in Loop: Header=BB1_123 Depth=1
	jmp	.LBB1_156
.LBB1_156:                              #   in Loop: Header=BB1_123 Depth=1
	movw	BasicBlockSignatureTracker, %dx
	movw	RunTimeSignatureAdjuster, %si
	xorw	$58, %dx
	xorw	%si, %dx
	cmpw	$1592, %dx              # imm = 0x638
	jne	.LBB1_216
# %bb.157:                              # %is_attacked.split584
                                        #   in Loop: Header=BB1_123 Depth=1
	movw	$1592, BasicBlockSignatureTracker # imm = 0x638
	movw	$0, RunTimeSignatureAdjuster
# %bb.158:                              #   in Loop: Header=BB1_123 Depth=1
	movw	BasicBlockSignatureTracker, %dx
	xorw	$7, %dx
	cmpw	$1599, %dx              # imm = 0x63F
	jne	.LBB1_216
# %bb.159:                              # %is_attacked.split596
                                        #   in Loop: Header=BB1_123 Depth=1
	movl	(%rax), %edx
	addl	$1, %edx
	movl	%edx, (%rax)
	movw	$1599, BasicBlockSignatureTracker # imm = 0x63F
	movw	$1007, RunTimeSignatureAdjuster # imm = 0x3EF
	jmp	.LBB1_123
.LBB1_160:
	movw	BasicBlockSignatureTracker, %dx
	xorw	$925, %dx               # imm = 0x39D
	cmpw	$1605, %dx              # imm = 0x645
	jne	.LBB1_217
# %bb.161:                              # %is_attacked.split568
	movl	$0, (%rax)
	movw	$1605, BasicBlockSignatureTracker # imm = 0x645
	movw	$0, RunTimeSignatureAdjuster
.LBB1_162:                              # =>This Inner Loop Header: Depth=1
	movw	BasicBlockSignatureTracker, %dx
	movw	RunTimeSignatureAdjuster, %si
	xorw	$13, %dx
	xorw	%si, %dx
	cmpw	$1608, %dx              # imm = 0x648
	jne	.LBB1_214
# %bb.163:                              # %is_attacked.split598
                                        #   in Loop: Header=BB1_162 Depth=1
	movl	(%rax), %edx
	movw	$1608, BasicBlockSignatureTracker # imm = 0x648
	movw	$0, RunTimeSignatureAdjuster
	cmpl	$8, %edx
	jge	.LBB1_172
# %bb.164:                              #   in Loop: Header=BB1_162 Depth=1
	movw	BasicBlockSignatureTracker, %dx
	xorw	$24, %dx
	cmpw	$1616, %dx              # imm = 0x650
	jne	.LBB1_214
# %bb.165:                              # %is_attacked.split600
                                        #   in Loop: Header=BB1_162 Depth=1
	movl	(%rcx), %edx
	movslq	(%rax), %rsi
	addl	is_attacked.knight_o(,%rsi,4), %edx
	movslq	%edx, %rdx
	movl	board(,%rdx,4), %edx
	movw	$1616, BasicBlockSignatureTracker # imm = 0x650
	movw	$0, RunTimeSignatureAdjuster
	cmpl	$4, %edx
	jne	.LBB1_168
# %bb.166:
	movw	BasicBlockSignatureTracker, %ax
	xorw	$50, %ax
	cmpw	$1634, %ax              # imm = 0x662
	jne	.LBB1_217
# %bb.167:                              # %is_attacked.split604
	movl	$1, (%r8)
	movw	$1634, BasicBlockSignatureTracker # imm = 0x662
	movw	$547, RunTimeSignatureAdjuster # imm = 0x223
	jmp	.LBB1_205
.LBB1_168:                              #   in Loop: Header=BB1_162 Depth=1
	movw	BasicBlockSignatureTracker, %dx
	xorw	$35, %dx
	cmpw	$1651, %dx              # imm = 0x673
	jne	.LBB1_214
# %bb.169:                              # %is_attacked.split606
                                        #   in Loop: Header=BB1_162 Depth=1
	movw	$1651, BasicBlockSignatureTracker # imm = 0x673
	movw	$0, RunTimeSignatureAdjuster
# %bb.170:                              #   in Loop: Header=BB1_162 Depth=1
	movw	BasicBlockSignatureTracker, %dx
	xorw	$10, %dx
	cmpw	$1657, %dx              # imm = 0x679
	jne	.LBB1_214
# %bb.171:                              # %is_attacked.split608
                                        #   in Loop: Header=BB1_162 Depth=1
	movl	(%rax), %edx
	addl	$1, %edx
	movl	%edx, (%rax)
	movw	$1657, BasicBlockSignatureTracker # imm = 0x679
	movw	$60, RunTimeSignatureAdjuster
	jmp	.LBB1_162
.LBB1_172:
	movw	BasicBlockSignatureTracker, %dx
	xorw	$51, %dx
	cmpw	$1659, %dx              # imm = 0x67B
	jne	.LBB1_217
# %bb.173:                              # %is_attacked.split602
	movl	$0, (%rax)
	movw	$1659, BasicBlockSignatureTracker # imm = 0x67B
	movw	$0, RunTimeSignatureAdjuster
.LBB1_174:                              # =>This Loop Header: Depth=1
                                        #     Child Loop BB1_182 Depth 2
	movw	BasicBlockSignatureTracker, %dx
	movw	RunTimeSignatureAdjuster, %si
	xorw	$7, %dx
	xorw	%si, %dx
	cmpw	$1660, %dx              # imm = 0x67C
	jne	.LBB1_213
# %bb.175:                              # %is_attacked.split610
                                        #   in Loop: Header=BB1_174 Depth=1
	movl	(%rax), %edx
	movw	$1660, BasicBlockSignatureTracker # imm = 0x67C
	movw	$0, RunTimeSignatureAdjuster
	cmpl	$4, %edx
	jge	.LBB1_203
# %bb.176:                              #   in Loop: Header=BB1_174 Depth=1
	movw	BasicBlockSignatureTracker, %dx
	xorw	$3, %dx
	cmpw	$1663, %dx              # imm = 0x67F
	jne	.LBB1_213
# %bb.177:                              # %is_attacked.split612
                                        #   in Loop: Header=BB1_174 Depth=1
	movslq	(%rax), %rdx
	movl	is_attacked.rook_o(,%rdx,4), %edx
	movl	%edx, (%r9)
	movl	(%rcx), %edx
	movslq	(%rax), %rsi
	addl	is_attacked.rook_o(,%rsi,4), %edx
	movl	%edx, (%r10)
	movslq	(%r10), %rdx
	movl	board(,%rdx,4), %edx
	movl	%edx, (%r11)
	movl	(%r11), %edx
	movw	$1663, BasicBlockSignatureTracker # imm = 0x67F
	movw	$0, RunTimeSignatureAdjuster
	cmpl	$6, %edx
	jne	.LBB1_180
# %bb.178:
	movw	BasicBlockSignatureTracker, %ax
	xorw	$249, %ax
	cmpw	$1670, %ax              # imm = 0x686
	jne	.LBB1_217
# %bb.179:                              # %is_attacked.split616
	movl	$1, (%r8)
	movw	$1670, BasicBlockSignatureTracker # imm = 0x686
	movw	$711, RunTimeSignatureAdjuster # imm = 0x2C7
	jmp	.LBB1_205
.LBB1_180:                              #   in Loop: Header=BB1_174 Depth=1
	movw	BasicBlockSignatureTracker, %dx
	xorw	$248, %dx
	cmpw	$1671, %dx              # imm = 0x687
	jne	.LBB1_213
# %bb.181:                              # %is_attacked.split618
                                        #   in Loop: Header=BB1_174 Depth=1
	movw	$1671, BasicBlockSignatureTracker # imm = 0x687
	movw	$0, RunTimeSignatureAdjuster
.LBB1_182:                              #   Parent Loop BB1_174 Depth=1
                                        # =>  This Inner Loop Header: Depth=2
	movw	BasicBlockSignatureTracker, %dx
	movw	RunTimeSignatureAdjuster, %si
	xorw	$11, %dx
	xorw	%si, %dx
	cmpw	$1676, %dx              # imm = 0x68C
	jne	.LBB1_212
# %bb.183:                              # %is_attacked.split620
                                        #   in Loop: Header=BB1_182 Depth=2
	movl	(%r11), %edx
	movw	$1676, BasicBlockSignatureTracker # imm = 0x68C
	movw	$0, RunTimeSignatureAdjuster
	cmpl	$0, %edx
	je	.LBB1_198
# %bb.184:                              #   in Loop: Header=BB1_182 Depth=2
	movw	BasicBlockSignatureTracker, %dx
	xorw	$2, %dx
	cmpw	$1678, %dx              # imm = 0x68E
	jne	.LBB1_212
# %bb.185:                              # %is_attacked.split622
                                        #   in Loop: Header=BB1_182 Depth=2
	movl	(%r11), %edx
	movw	$1678, BasicBlockSignatureTracker # imm = 0x68E
	movw	$0, RunTimeSignatureAdjuster
	cmpl	$8, %edx
	je	.LBB1_188
# %bb.186:                              #   in Loop: Header=BB1_182 Depth=2
	movw	BasicBlockSignatureTracker, %dx
	xorw	$31, %dx
	cmpw	$1681, %dx              # imm = 0x691
	jne	.LBB1_212
# %bb.187:                              # %is_attacked.split628
                                        #   in Loop: Header=BB1_182 Depth=2
	movl	(%r11), %edx
	movw	$1681, BasicBlockSignatureTracker # imm = 0x691
	movw	$31, RunTimeSignatureAdjuster
	cmpl	$10, %edx
	jne	.LBB1_190
.LBB1_188:
	movw	BasicBlockSignatureTracker, %ax
	movw	RunTimeSignatureAdjuster, %cx
	xorw	$27, %ax
	xorw	%cx, %ax
	cmpw	$1685, %ax              # imm = 0x695
	jne	.LBB1_217
# %bb.189:                              # %is_attacked.split626
	movl	$1, (%r8)
	movw	$1685, BasicBlockSignatureTracker # imm = 0x695
	movw	$724, RunTimeSignatureAdjuster # imm = 0x2D4
	jmp	.LBB1_205
.LBB1_190:                              # %Buffer__5
                                        #   in Loop: Header=BB1_182 Depth=2
	movw	BasicBlockSignatureTracker, %dx
	xorw	$-1261, %dx             # imm = 0xFB13
	cmpw	$-638, %dx              # imm = 0xFD82
	jne	.LBB1_212
# %bb.191:                              # %is_attacked.split630
                                        #   in Loop: Header=BB1_182 Depth=2
	movw	$-638, BasicBlockSignatureTracker # imm = 0xFD82
	movw	$-1261, RunTimeSignatureAdjuster # imm = 0xFB13
# %bb.192:                              #   in Loop: Header=BB1_182 Depth=2
	movw	BasicBlockSignatureTracker, %dx
	movw	RunTimeSignatureAdjuster, %si
	xorw	$11, %dx
	xorw	%si, %dx
	cmpw	$1690, %dx              # imm = 0x69A
	jne	.LBB1_212
# %bb.193:                              # %is_attacked.split720
                                        #   in Loop: Header=BB1_182 Depth=2
	movl	(%r11), %edx
	movw	$1690, BasicBlockSignatureTracker # imm = 0x69A
	movw	$0, RunTimeSignatureAdjuster
	cmpl	$13, %edx
	je	.LBB1_196
# %bb.194:                              #   in Loop: Header=BB1_174 Depth=1
	movw	BasicBlockSignatureTracker, %dx
	xorw	$5, %dx
	cmpw	$1695, %dx              # imm = 0x69F
	jne	.LBB1_213
# %bb.195:                              # %is_attacked.split632
                                        #   in Loop: Header=BB1_174 Depth=1
	movw	$1695, BasicBlockSignatureTracker # imm = 0x69F
	movw	$19, RunTimeSignatureAdjuster
	jmp	.LBB1_199
.LBB1_196:                              #   in Loop: Header=BB1_182 Depth=2
	movw	BasicBlockSignatureTracker, %dx
	xorw	$51, %dx
	cmpw	$1705, %dx              # imm = 0x6A9
	jne	.LBB1_212
# %bb.197:                              # %is_attacked.split634
                                        #   in Loop: Header=BB1_182 Depth=2
	movl	(%r9), %edx
	addl	(%r10), %edx
	movl	%edx, (%r10)
	movslq	(%r10), %rdx
	movl	board(,%rdx,4), %edx
	movl	%edx, (%r11)
	movw	$1705, BasicBlockSignatureTracker # imm = 0x6A9
	movw	$46, RunTimeSignatureAdjuster
	jmp	.LBB1_182
.LBB1_198:                              # %.loopexit7
                                        #   in Loop: Header=BB1_174 Depth=1
	jmp	.LBB1_199
.LBB1_199:                              #   in Loop: Header=BB1_174 Depth=1
	movw	BasicBlockSignatureTracker, %dx
	movw	RunTimeSignatureAdjuster, %si
	xorw	$48, %dx
	xorw	%si, %dx
	cmpw	$1724, %dx              # imm = 0x6BC
	jne	.LBB1_213
# %bb.200:                              # %is_attacked.split624
                                        #   in Loop: Header=BB1_174 Depth=1
	movw	$1724, BasicBlockSignatureTracker # imm = 0x6BC
	movw	$0, RunTimeSignatureAdjuster
# %bb.201:                              #   in Loop: Header=BB1_174 Depth=1
	movw	BasicBlockSignatureTracker, %dx
	xorw	$110, %dx
	cmpw	$1746, %dx              # imm = 0x6D2
	jne	.LBB1_213
# %bb.202:                              # %is_attacked.split636
                                        #   in Loop: Header=BB1_174 Depth=1
	movl	(%rax), %edx
	addl	$1, %edx
	movl	%edx, (%rax)
	movw	$1746, BasicBlockSignatureTracker # imm = 0x6D2
	movw	$169, RunTimeSignatureAdjuster
	jmp	.LBB1_174
.LBB1_203:
	movw	BasicBlockSignatureTracker, %ax
	xorw	$168, %ax
	cmpw	$1748, %ax              # imm = 0x6D4
	jne	.LBB1_217
# %bb.204:                              # %is_attacked.split614
	movl	$0, (%r8)
	movw	$1748, BasicBlockSignatureTracker # imm = 0x6D4
	movw	$661, RunTimeSignatureAdjuster # imm = 0x295
.LBB1_205:
	movw	BasicBlockSignatureTracker, %ax
	movw	RunTimeSignatureAdjuster, %cx
	xorw	$679, %ax               # imm = 0x2A7
	xorw	%cx, %ax
	cmpw	$1766, %ax              # imm = 0x6E6
	jne	.LBB1_217
# %bb.206:                              # %is_attacked.split500
	movl	(%r8), %eax
	movw	$1766, BasicBlockSignatureTracker # imm = 0x6E6
	movw	$6953, RunTimeSignatureAdjuster # imm = 0x1B29
	movq	%rbp, %rsp
	popq	%rbp
	retq
.LBB1_207:                              # %CFerrorHandler.is_attacked.loopexit
	jmp	.LBB1_217
.LBB1_208:                              # %CFerrorHandler.is_attacked.loopexit1
	jmp	.LBB1_217
.LBB1_209:                              # %CFerrorHandler.is_attacked.loopexit2
	jmp	.LBB1_217
.LBB1_210:                              # %CFerrorHandler.is_attacked.loopexit3
	jmp	.LBB1_217
.LBB1_211:                              # %CFerrorHandler.is_attacked.loopexit5
	jmp	.LBB1_217
.LBB1_212:                              # %CFerrorHandler.is_attacked.loopexit6
	jmp	.LBB1_217
.LBB1_213:                              # %CFerrorHandler.is_attacked.loopexit8
	jmp	.LBB1_217
.LBB1_214:                              # %CFerrorHandler.is_attacked.loopexit9
	jmp	.LBB1_217
.LBB1_215:                              # %CFerrorHandler.is_attacked.loopexit10
	jmp	.LBB1_217
.LBB1_216:                              # %CFerrorHandler.is_attacked.loopexit12
	jmp	.LBB1_217
.LBB1_217:                              # %CFerrorHandler.is_attacked
	callq	FAULT_DETECTED_CFC
.Lfunc_end1:
	.size	is_attacked, .Lfunc_end1-is_attacked
	.cfi_endproc
                                        # -- End function
	.globl	nk_attacked             # -- Begin function nk_attacked
	.p2align	4, 0x90
	.type	nk_attacked,@function
nk_attacked:                            # @nk_attacked
	.cfi_startproc
# %bb.0:
	pushq	%rbp
	.cfi_def_cfa_offset 16
	.cfi_offset %rbp, -16
	movq	%rsp, %rbp
	.cfi_def_cfa_register %rbp
	movw	BasicBlockSignatureTracker, %ax
	movw	RunTimeSignatureAdjuster, %cx
	xorw	$9294, %ax              # imm = 0x244E
	xorw	%cx, %ax
	cmpw	$1787, %ax              # imm = 0x6FB
	jne	.LBB2_181
# %bb.1:                                # %nk_attacked.split528
	movw	BasicBlockSignatureTracker, %ax
	movw	RunTimeSignatureAdjuster, %cx
	xorw	$9294, %ax              # imm = 0x244E
	xorw	%cx, %ax
	cmpw	$1787, %ax              # imm = 0x6FB
	jne	.LBB2_181
# %bb.2:                                # %nk_attacked.split526
	movw	BasicBlockSignatureTracker, %ax
	movw	RunTimeSignatureAdjuster, %cx
	xorw	$9294, %ax              # imm = 0x244E
	xorw	%cx, %ax
	cmpw	$1787, %ax              # imm = 0x6FB
	jne	.LBB2_181
# %bb.3:                                # %nk_attacked.split524
	movw	BasicBlockSignatureTracker, %ax
	movw	RunTimeSignatureAdjuster, %cx
	xorw	$9294, %ax              # imm = 0x244E
	xorw	%cx, %ax
	cmpw	$1787, %ax              # imm = 0x6FB
	jne	.LBB2_181
# %bb.4:                                # %nk_attacked.split522
	movw	BasicBlockSignatureTracker, %ax
	movw	RunTimeSignatureAdjuster, %cx
	xorw	$9294, %ax              # imm = 0x244E
	xorw	%cx, %ax
	cmpw	$1787, %ax              # imm = 0x6FB
	jne	.LBB2_181
# %bb.5:                                # %nk_attacked.split520
	movw	BasicBlockSignatureTracker, %ax
	movw	RunTimeSignatureAdjuster, %cx
	xorw	$9294, %ax              # imm = 0x244E
	xorw	%cx, %ax
	cmpw	$1787, %ax              # imm = 0x6FB
	jne	.LBB2_181
# %bb.6:                                # %nk_attacked.split518
	movw	BasicBlockSignatureTracker, %ax
	movw	RunTimeSignatureAdjuster, %cx
	xorw	$9294, %ax              # imm = 0x244E
	xorw	%cx, %ax
	cmpw	$1787, %ax              # imm = 0x6FB
	jne	.LBB2_181
# %bb.7:                                # %nk_attacked.split516
	movw	BasicBlockSignatureTracker, %ax
	movw	RunTimeSignatureAdjuster, %cx
	xorw	$9294, %ax              # imm = 0x244E
	xorw	%cx, %ax
	cmpw	$1787, %ax              # imm = 0x6FB
	jne	.LBB2_181
# %bb.8:                                # %nk_attacked.split514
	movw	BasicBlockSignatureTracker, %ax
	movw	RunTimeSignatureAdjuster, %cx
	xorw	$9294, %ax              # imm = 0x244E
	xorw	%cx, %ax
	cmpw	$1787, %ax              # imm = 0x6FB
	jne	.LBB2_181
# %bb.9:                                # %nk_attacked.split512
	movw	BasicBlockSignatureTracker, %ax
	movw	RunTimeSignatureAdjuster, %cx
	xorw	$9294, %ax              # imm = 0x244E
	xorw	%cx, %ax
	cmpw	$1787, %ax              # imm = 0x6FB
	jne	.LBB2_181
# %bb.10:                               # %nk_attacked.split510
	movw	BasicBlockSignatureTracker, %ax
	movw	RunTimeSignatureAdjuster, %cx
	xorw	$9294, %ax              # imm = 0x244E
	xorw	%cx, %ax
	cmpw	$1787, %ax              # imm = 0x6FB
	jne	.LBB2_181
# %bb.11:                               # %nk_attacked.split508
	movw	BasicBlockSignatureTracker, %ax
	movw	RunTimeSignatureAdjuster, %cx
	xorw	$9294, %ax              # imm = 0x244E
	xorw	%cx, %ax
	cmpw	$1787, %ax              # imm = 0x6FB
	jne	.LBB2_181
# %bb.12:                               # %nk_attacked.split506
	movw	BasicBlockSignatureTracker, %ax
	movw	RunTimeSignatureAdjuster, %cx
	xorw	$9294, %ax              # imm = 0x244E
	xorw	%cx, %ax
	cmpw	$1787, %ax              # imm = 0x6FB
	jne	.LBB2_181
# %bb.13:                               # %nk_attacked.split504
	movw	BasicBlockSignatureTracker, %ax
	movw	RunTimeSignatureAdjuster, %cx
	xorw	$9294, %ax              # imm = 0x244E
	xorw	%cx, %ax
	cmpw	$1787, %ax              # imm = 0x6FB
	jne	.LBB2_181
# %bb.14:                               # %nk_attacked.split502
	movw	BasicBlockSignatureTracker, %ax
	movw	RunTimeSignatureAdjuster, %cx
	xorw	$9294, %ax              # imm = 0x244E
	xorw	%cx, %ax
	cmpw	$1787, %ax              # imm = 0x6FB
	jne	.LBB2_181
# %bb.15:                               # %nk_attacked.split500
	movw	BasicBlockSignatureTracker, %ax
	movw	RunTimeSignatureAdjuster, %cx
	xorw	$9294, %ax              # imm = 0x244E
	xorw	%cx, %ax
	cmpw	$1787, %ax              # imm = 0x6FB
	jne	.LBB2_181
# %bb.16:                               # %nk_attacked.split498
	movq	%rsp, %r8
	addq	$-16, %r8
	movq	%r8, %rsp
	movq	%rsp, %rcx
	addq	$-16, %rcx
	movq	%rcx, %rsp
	movq	%rsp, %rdx
	addq	$-16, %rdx
	movq	%rdx, %rsp
	movq	%rsp, %r9
	addq	$-16, %r9
	movq	%r9, %rsp
	movq	%rsp, %r10
	addq	$-16, %r10
	movq	%r10, %rsp
	movq	%rsp, %r11
	addq	$-16, %r11
	movq	%r11, %rsp
	movq	%rsp, %rax
	addq	$-16, %rax
	movq	%rax, %rsp
	movl	%edi, (%rcx)
	movl	%esi, (%rdx)
	movl	(%rdx), %edx
	andl	$1, %edx
	movw	$1787, BasicBlockSignatureTracker # imm = 0x6FB
	movw	$0, RunTimeSignatureAdjuster
	cmpl	$0, %edx
	je	.LBB2_93
# %bb.17:
	movw	BasicBlockSignatureTracker, %dx
	xorw	$502, %dx               # imm = 0x1F6
	cmpw	$1805, %dx              # imm = 0x70D
	jne	.LBB2_181
# %bb.18:                               # %nk_attacked.split
	movl	$0, (%rax)
	movw	$1805, BasicBlockSignatureTracker # imm = 0x70D
	movw	$0, RunTimeSignatureAdjuster
.LBB2_19:                               # =>This Loop Header: Depth=1
                                        #     Child Loop BB2_31 Depth 2
	movw	BasicBlockSignatureTracker, %dx
	movw	RunTimeSignatureAdjuster, %si
	xorw	$17, %dx
	xorw	%si, %dx
	cmpw	$1820, %dx              # imm = 0x71C
	jne	.LBB2_175
# %bb.20:                               # %nk_attacked.split364
                                        #   in Loop: Header=BB2_19 Depth=1
	movl	(%rax), %edx
	movw	$1820, BasicBlockSignatureTracker # imm = 0x71C
	movw	$0, RunTimeSignatureAdjuster
	cmpl	$4, %edx
	jge	.LBB2_52
# %bb.21:                               #   in Loop: Header=BB2_19 Depth=1
	movw	BasicBlockSignatureTracker, %dx
	xorw	$57, %dx
	cmpw	$1829, %dx              # imm = 0x725
	jne	.LBB2_175
# %bb.22:                               # %nk_attacked.split366
                                        #   in Loop: Header=BB2_19 Depth=1
	movslq	(%rax), %rdx
	movl	nk_attacked.bishop_o(,%rdx,4), %edx
	movl	%edx, (%r9)
	movl	(%rcx), %edx
	addl	(%r9), %edx
	movl	%edx, (%r10)
	movslq	(%r10), %rdx
	movl	board(,%rdx,4), %edx
	movl	%edx, (%r11)
	movl	(%r11), %edx
	movw	$1829, BasicBlockSignatureTracker # imm = 0x725
	movw	$0, RunTimeSignatureAdjuster
	cmpl	$1, %edx
	jne	.LBB2_29
# %bb.23:                               #   in Loop: Header=BB2_19 Depth=1
	movw	BasicBlockSignatureTracker, %dx
	xorw	$2, %dx
	cmpw	$1831, %dx              # imm = 0x727
	jne	.LBB2_175
# %bb.24:                               # %nk_attacked.split370
                                        #   in Loop: Header=BB2_19 Depth=1
	movl	(%rax), %edx
	andl	$1, %edx
	movw	$1831, BasicBlockSignatureTracker # imm = 0x727
	movw	$2, RunTimeSignatureAdjuster
	cmpl	$0, %edx
	je	.LBB2_29
# %bb.25:                               # %Buffer__
	movw	BasicBlockSignatureTracker, %ax
	xorw	$-1811, %ax             # imm = 0xF8ED
	cmpw	$-54, %ax
	jne	.LBB2_181
# %bb.26:                               # %nk_attacked.split374
	movw	$-54, BasicBlockSignatureTracker
	movw	$-1811, RunTimeSignatureAdjuster # imm = 0xF8ED
# %bb.27:
	movw	BasicBlockSignatureTracker, %ax
	movw	RunTimeSignatureAdjuster, %cx
	xorw	$10, %ax
	xorw	%cx, %ax
	cmpw	$1837, %ax              # imm = 0x72D
	jne	.LBB2_181
# %bb.28:                               # %nk_attacked.split530
	movl	$1, (%r8)
	movw	$1837, BasicBlockSignatureTracker # imm = 0x72D
	movw	$0, RunTimeSignatureAdjuster
	jmp	.LBB2_169
.LBB2_29:                               #   in Loop: Header=BB2_19 Depth=1
	movw	BasicBlockSignatureTracker, %dx
	movw	RunTimeSignatureAdjuster, %si
	xorw	$100, %dx
	xorw	%si, %dx
	cmpw	$1857, %dx              # imm = 0x741
	jne	.LBB2_175
# %bb.30:                               # %nk_attacked.split372
                                        #   in Loop: Header=BB2_19 Depth=1
	movw	$1857, BasicBlockSignatureTracker # imm = 0x741
	movw	$0, RunTimeSignatureAdjuster
.LBB2_31:                               #   Parent Loop BB2_19 Depth=1
                                        # =>  This Inner Loop Header: Depth=2
	movw	BasicBlockSignatureTracker, %dx
	movw	RunTimeSignatureAdjuster, %si
	xorw	$27, %dx
	xorw	%si, %dx
	cmpw	$1882, %dx              # imm = 0x75A
	jne	.LBB2_174
# %bb.32:                               # %nk_attacked.split378
                                        #   in Loop: Header=BB2_31 Depth=2
	movl	(%r11), %edx
	movw	$1882, BasicBlockSignatureTracker # imm = 0x75A
	movw	$0, RunTimeSignatureAdjuster
	cmpl	$0, %edx
	je	.LBB2_47
# %bb.33:                               #   in Loop: Header=BB2_31 Depth=2
	movw	BasicBlockSignatureTracker, %dx
	xorw	$63, %dx
	cmpw	$1893, %dx              # imm = 0x765
	jne	.LBB2_174
# %bb.34:                               # %nk_attacked.split380
                                        #   in Loop: Header=BB2_31 Depth=2
	movl	(%r11), %edx
	movw	$1893, BasicBlockSignatureTracker # imm = 0x765
	movw	$0, RunTimeSignatureAdjuster
	cmpl	$11, %edx
	je	.LBB2_37
# %bb.35:                               #   in Loop: Header=BB2_31 Depth=2
	movw	BasicBlockSignatureTracker, %dx
	xorw	$15, %dx
	cmpw	$1898, %dx              # imm = 0x76A
	jne	.LBB2_174
# %bb.36:                               # %nk_attacked.split386
                                        #   in Loop: Header=BB2_31 Depth=2
	movl	(%r11), %edx
	movw	$1898, BasicBlockSignatureTracker # imm = 0x76A
	movw	$15, RunTimeSignatureAdjuster
	cmpl	$9, %edx
	jne	.LBB2_39
.LBB2_37:
	movw	BasicBlockSignatureTracker, %ax
	movw	RunTimeSignatureAdjuster, %cx
	xorw	$16, %ax
	xorw	%cx, %ax
	cmpw	$1909, %ax              # imm = 0x775
	jne	.LBB2_181
# %bb.38:                               # %nk_attacked.split384
	movl	$1, (%r8)
	movw	$1909, BasicBlockSignatureTracker # imm = 0x775
	movw	$88, RunTimeSignatureAdjuster
	jmp	.LBB2_169
.LBB2_39:                               # %Buffer__1
                                        #   in Loop: Header=BB2_31 Depth=2
	movw	BasicBlockSignatureTracker, %dx
	xorw	$-18644, %dx            # imm = 0xB72C
	cmpw	$-20410, %dx            # imm = 0xB046
	jne	.LBB2_174
# %bb.40:                               # %nk_attacked.split388
                                        #   in Loop: Header=BB2_31 Depth=2
	movw	$-20410, BasicBlockSignatureTracker # imm = 0xB046
	movw	$-18644, RunTimeSignatureAdjuster # imm = 0xB72C
# %bb.41:                               #   in Loop: Header=BB2_31 Depth=2
	movw	BasicBlockSignatureTracker, %dx
	movw	RunTimeSignatureAdjuster, %si
	xorw	$16, %dx
	xorw	%si, %dx
	cmpw	$1914, %dx              # imm = 0x77A
	jne	.LBB2_174
# %bb.42:                               # %nk_attacked.split532
                                        #   in Loop: Header=BB2_31 Depth=2
	movl	(%r11), %edx
	movw	$1914, BasicBlockSignatureTracker # imm = 0x77A
	movw	$0, RunTimeSignatureAdjuster
	cmpl	$13, %edx
	je	.LBB2_45
# %bb.43:                               #   in Loop: Header=BB2_19 Depth=1
	movw	BasicBlockSignatureTracker, %dx
	xorw	$238, %dx
	cmpw	$1940, %dx              # imm = 0x794
	jne	.LBB2_175
# %bb.44:                               # %nk_attacked.split390
                                        #   in Loop: Header=BB2_19 Depth=1
	movw	$1940, BasicBlockSignatureTracker # imm = 0x794
	movw	$206, RunTimeSignatureAdjuster
	jmp	.LBB2_48
.LBB2_45:                               #   in Loop: Header=BB2_31 Depth=2
	movw	BasicBlockSignatureTracker, %dx
	xorw	$224, %dx
	cmpw	$1946, %dx              # imm = 0x79A
	jne	.LBB2_174
# %bb.46:                               # %nk_attacked.split392
                                        #   in Loop: Header=BB2_31 Depth=2
	movl	(%r9), %edx
	addl	(%r10), %edx
	movl	%edx, (%r10)
	movslq	(%r10), %rdx
	movl	board(,%rdx,4), %edx
	movl	%edx, (%r11)
	movw	$1946, BasicBlockSignatureTracker # imm = 0x79A
	movw	$219, RunTimeSignatureAdjuster
	jmp	.LBB2_31
.LBB2_47:                               # %.loopexit4
                                        #   in Loop: Header=BB2_19 Depth=1
	jmp	.LBB2_48
.LBB2_48:                               #   in Loop: Header=BB2_19 Depth=1
	movw	BasicBlockSignatureTracker, %dx
	movw	RunTimeSignatureAdjuster, %si
	xorw	$198, %dx
	xorw	%si, %dx
	cmpw	$1948, %dx              # imm = 0x79C
	jne	.LBB2_175
# %bb.49:                               # %nk_attacked.split382
                                        #   in Loop: Header=BB2_19 Depth=1
	movw	$1948, BasicBlockSignatureTracker # imm = 0x79C
	movw	$0, RunTimeSignatureAdjuster
# %bb.50:                               #   in Loop: Header=BB2_19 Depth=1
	movw	BasicBlockSignatureTracker, %dx
	xorw	$47, %dx
	cmpw	$1971, %dx              # imm = 0x7B3
	jne	.LBB2_175
# %bb.51:                               # %nk_attacked.split394
                                        #   in Loop: Header=BB2_19 Depth=1
	movl	(%rax), %edx
	addl	$1, %edx
	movl	%edx, (%rax)
	movw	$1971, BasicBlockSignatureTracker # imm = 0x7B3
	movw	$190, RunTimeSignatureAdjuster
	jmp	.LBB2_19
.LBB2_52:
	movw	BasicBlockSignatureTracker, %dx
	xorw	$169, %dx
	cmpw	$1973, %dx              # imm = 0x7B5
	jne	.LBB2_181
# %bb.53:                               # %nk_attacked.split368
	movl	$0, (%rax)
	movw	$1973, BasicBlockSignatureTracker # imm = 0x7B5
	movw	$0, RunTimeSignatureAdjuster
.LBB2_54:                               # =>This Inner Loop Header: Depth=1
	movw	BasicBlockSignatureTracker, %dx
	movw	RunTimeSignatureAdjuster, %si
	xorw	$124, %dx
	xorw	%si, %dx
	cmpw	$1993, %dx              # imm = 0x7C9
	jne	.LBB2_173
# %bb.55:                               # %nk_attacked.split396
                                        #   in Loop: Header=BB2_54 Depth=1
	movl	(%rax), %edx
	movw	$1993, BasicBlockSignatureTracker # imm = 0x7C9
	movw	$0, RunTimeSignatureAdjuster
	cmpl	$8, %edx
	jge	.LBB2_64
# %bb.56:                               #   in Loop: Header=BB2_54 Depth=1
	movw	BasicBlockSignatureTracker, %dx
	xorw	$17, %dx
	cmpw	$2008, %dx              # imm = 0x7D8
	jne	.LBB2_173
# %bb.57:                               # %nk_attacked.split398
                                        #   in Loop: Header=BB2_54 Depth=1
	movl	(%rcx), %edx
	movslq	(%rax), %rsi
	addl	nk_attacked.knight_o(,%rsi,4), %edx
	movslq	%edx, %rdx
	movl	board(,%rdx,4), %edx
	movw	$2008, BasicBlockSignatureTracker # imm = 0x7D8
	movw	$0, RunTimeSignatureAdjuster
	cmpl	$3, %edx
	jne	.LBB2_60
# %bb.58:
	movw	BasicBlockSignatureTracker, %ax
	xorw	$43, %ax
	cmpw	$2035, %ax              # imm = 0x7F3
	jne	.LBB2_181
# %bb.59:                               # %nk_attacked.split402
	movl	$1, (%r8)
	movw	$2035, BasicBlockSignatureTracker # imm = 0x7F3
	movw	$222, RunTimeSignatureAdjuster
	jmp	.LBB2_169
.LBB2_60:                               #   in Loop: Header=BB2_54 Depth=1
	movw	BasicBlockSignatureTracker, %dx
	xorw	$47, %dx
	cmpw	$2039, %dx              # imm = 0x7F7
	jne	.LBB2_173
# %bb.61:                               # %nk_attacked.split404
                                        #   in Loop: Header=BB2_54 Depth=1
	movw	$2039, BasicBlockSignatureTracker # imm = 0x7F7
	movw	$0, RunTimeSignatureAdjuster
# %bb.62:                               #   in Loop: Header=BB2_54 Depth=1
	movw	BasicBlockSignatureTracker, %dx
	xorw	$4083, %dx              # imm = 0xFF3
	cmpw	$2052, %dx              # imm = 0x804
	jne	.LBB2_173
# %bb.63:                               # %nk_attacked.split406
                                        #   in Loop: Header=BB2_54 Depth=1
	movl	(%rax), %edx
	addl	$1, %edx
	movl	%edx, (%rax)
	movw	$2052, BasicBlockSignatureTracker # imm = 0x804
	movw	$4017, RunTimeSignatureAdjuster # imm = 0xFB1
	jmp	.LBB2_54
.LBB2_64:
	movw	BasicBlockSignatureTracker, %dx
	xorw	$4051, %dx              # imm = 0xFD3
	cmpw	$2074, %dx              # imm = 0x81A
	jne	.LBB2_181
# %bb.65:                               # %nk_attacked.split400
	movl	$0, (%rax)
	movw	$2074, BasicBlockSignatureTracker # imm = 0x81A
	movw	$0, RunTimeSignatureAdjuster
.LBB2_66:                               # =>This Loop Header: Depth=1
                                        #     Child Loop BB2_70 Depth 2
	movw	BasicBlockSignatureTracker, %dx
	movw	RunTimeSignatureAdjuster, %si
	xorw	$88, %dx
	xorw	%si, %dx
	cmpw	$2114, %dx              # imm = 0x842
	jne	.LBB2_172
# %bb.67:                               # %nk_attacked.split408
                                        #   in Loop: Header=BB2_66 Depth=1
	movl	(%rax), %edx
	movw	$2114, BasicBlockSignatureTracker # imm = 0x842
	movw	$0, RunTimeSignatureAdjuster
	cmpl	$4, %edx
	jge	.LBB2_91
# %bb.68:                               #   in Loop: Header=BB2_66 Depth=1
	movw	BasicBlockSignatureTracker, %dx
	xorw	$22, %dx
	cmpw	$2132, %dx              # imm = 0x854
	jne	.LBB2_172
# %bb.69:                               # %nk_attacked.split410
                                        #   in Loop: Header=BB2_66 Depth=1
	movslq	(%rax), %rdx
	movl	nk_attacked.rook_o(,%rdx,4), %edx
	movl	%edx, (%r9)
	movl	(%rcx), %edx
	addl	(%r9), %edx
	movl	%edx, (%r10)
	movslq	(%r10), %rdx
	movl	board(,%rdx,4), %edx
	movl	%edx, (%r11)
	movw	$2132, BasicBlockSignatureTracker # imm = 0x854
	movw	$0, RunTimeSignatureAdjuster
.LBB2_70:                               #   Parent Loop BB2_66 Depth=1
                                        # =>  This Inner Loop Header: Depth=2
	movw	BasicBlockSignatureTracker, %dx
	movw	RunTimeSignatureAdjuster, %si
	xorw	$54, %dx
	xorw	%si, %dx
	cmpw	$2146, %dx              # imm = 0x862
	jne	.LBB2_171
# %bb.71:                               # %nk_attacked.split414
                                        #   in Loop: Header=BB2_70 Depth=2
	movl	(%r11), %edx
	movw	$2146, BasicBlockSignatureTracker # imm = 0x862
	movw	$0, RunTimeSignatureAdjuster
	cmpl	$0, %edx
	je	.LBB2_86
# %bb.72:                               #   in Loop: Header=BB2_70 Depth=2
	movw	BasicBlockSignatureTracker, %dx
	xorw	$23, %dx
	cmpw	$2165, %dx              # imm = 0x875
	jne	.LBB2_171
# %bb.73:                               # %nk_attacked.split416
                                        #   in Loop: Header=BB2_70 Depth=2
	movl	(%r11), %edx
	movw	$2165, BasicBlockSignatureTracker # imm = 0x875
	movw	$0, RunTimeSignatureAdjuster
	cmpl	$7, %edx
	je	.LBB2_76
# %bb.74:                               #   in Loop: Header=BB2_70 Depth=2
	movw	BasicBlockSignatureTracker, %dx
	xorw	$226, %dx
	cmpw	$2199, %dx              # imm = 0x897
	jne	.LBB2_171
# %bb.75:                               # %nk_attacked.split422
                                        #   in Loop: Header=BB2_70 Depth=2
	movl	(%r11), %edx
	movw	$2199, BasicBlockSignatureTracker # imm = 0x897
	movw	$226, RunTimeSignatureAdjuster
	cmpl	$9, %edx
	jne	.LBB2_78
.LBB2_76:
	movw	BasicBlockSignatureTracker, %ax
	movw	RunTimeSignatureAdjuster, %cx
	xorw	$217, %ax
	xorw	%cx, %ax
	cmpw	$2220, %ax              # imm = 0x8AC
	jne	.LBB2_181
# %bb.77:                               # %nk_attacked.split420
	movl	$1, (%r8)
	movw	$2220, BasicBlockSignatureTracker # imm = 0x8AC
	movw	$3969, RunTimeSignatureAdjuster # imm = 0xF81
	jmp	.LBB2_169
.LBB2_78:                               # %Buffer__2
                                        #   in Loop: Header=BB2_70 Depth=2
	movw	BasicBlockSignatureTracker, %dx
	xorw	$32433, %dx             # imm = 0x7EB1
	cmpw	$30246, %dx             # imm = 0x7626
	jne	.LBB2_171
# %bb.79:                               # %nk_attacked.split424
                                        #   in Loop: Header=BB2_70 Depth=2
	movw	$30246, BasicBlockSignatureTracker # imm = 0x7626
	movw	$32433, RunTimeSignatureAdjuster # imm = 0x7EB1
# %bb.80:                               #   in Loop: Header=BB2_70 Depth=2
	movw	BasicBlockSignatureTracker, %dx
	movw	RunTimeSignatureAdjuster, %si
	xorw	$47, %dx
	xorw	%si, %dx
	cmpw	$2232, %dx              # imm = 0x8B8
	jne	.LBB2_171
# %bb.81:                               # %nk_attacked.split534
                                        #   in Loop: Header=BB2_70 Depth=2
	movl	(%r11), %edx
	movw	$2232, BasicBlockSignatureTracker # imm = 0x8B8
	movw	$0, RunTimeSignatureAdjuster
	cmpl	$13, %edx
	je	.LBB2_84
# %bb.82:                               #   in Loop: Header=BB2_66 Depth=1
	movw	BasicBlockSignatureTracker, %dx
	xorw	$112, %dx
	cmpw	$2248, %dx              # imm = 0x8C8
	jne	.LBB2_172
# %bb.83:                               # %nk_attacked.split426
                                        #   in Loop: Header=BB2_66 Depth=1
	movw	$2248, BasicBlockSignatureTracker # imm = 0x8C8
	movw	$170, RunTimeSignatureAdjuster
	jmp	.LBB2_87
.LBB2_84:                               #   in Loop: Header=BB2_70 Depth=2
	movw	BasicBlockSignatureTracker, %dx
	xorw	$104, %dx
	cmpw	$2256, %dx              # imm = 0x8D0
	jne	.LBB2_171
# %bb.85:                               # %nk_attacked.split428
                                        #   in Loop: Header=BB2_70 Depth=2
	movl	(%r9), %edx
	addl	(%r10), %edx
	movl	%edx, (%r10)
	movslq	(%r10), %rdx
	movl	board(,%rdx,4), %edx
	movl	%edx, (%r11)
	movw	$2256, BasicBlockSignatureTracker # imm = 0x8D0
	movw	$132, RunTimeSignatureAdjuster
	jmp	.LBB2_70
.LBB2_86:                               # %.loopexit
                                        #   in Loop: Header=BB2_66 Depth=1
	jmp	.LBB2_87
.LBB2_87:                               #   in Loop: Header=BB2_66 Depth=1
	movw	BasicBlockSignatureTracker, %dx
	movw	RunTimeSignatureAdjuster, %si
	xorw	$176, %dx
	xorw	%si, %dx
	cmpw	$2258, %dx              # imm = 0x8D2
	jne	.LBB2_172
# %bb.88:                               # %nk_attacked.split418
                                        #   in Loop: Header=BB2_66 Depth=1
	movw	$2258, BasicBlockSignatureTracker # imm = 0x8D2
	movw	$0, RunTimeSignatureAdjuster
# %bb.89:                               #   in Loop: Header=BB2_66 Depth=1
	movw	BasicBlockSignatureTracker, %dx
	xorw	$7, %dx
	cmpw	$2261, %dx              # imm = 0x8D5
	jne	.LBB2_172
# %bb.90:                               # %nk_attacked.split430
                                        #   in Loop: Header=BB2_66 Depth=1
	movl	(%rax), %edx
	addl	$1, %edx
	movl	%edx, (%rax)
	movw	$2261, BasicBlockSignatureTracker # imm = 0x8D5
	movw	$207, RunTimeSignatureAdjuster
	jmp	.LBB2_66
.LBB2_91:
	movw	BasicBlockSignatureTracker, %ax
	xorw	$148, %ax
	cmpw	$2262, %ax              # imm = 0x8D6
	jne	.LBB2_181
# %bb.92:                               # %nk_attacked.split412
	movl	$0, (%r8)
	movw	$2262, BasicBlockSignatureTracker # imm = 0x8D6
	movw	$4091, RunTimeSignatureAdjuster # imm = 0xFFB
	jmp	.LBB2_169
.LBB2_93:
	movw	BasicBlockSignatureTracker, %dx
	xorw	$3611, %dx              # imm = 0xE1B
	cmpw	$2272, %dx              # imm = 0x8E0
	jne	.LBB2_181
# %bb.94:                               # %nk_attacked.split362
	movl	$0, (%rax)
	movw	$2272, BasicBlockSignatureTracker # imm = 0x8E0
	movw	$0, RunTimeSignatureAdjuster
.LBB2_95:                               # =>This Loop Header: Depth=1
                                        #     Child Loop BB2_107 Depth 2
	movw	BasicBlockSignatureTracker, %dx
	movw	RunTimeSignatureAdjuster, %si
	xorw	$12, %dx
	xorw	%si, %dx
	cmpw	$2284, %dx              # imm = 0x8EC
	jne	.LBB2_180
# %bb.96:                               # %nk_attacked.split432
                                        #   in Loop: Header=BB2_95 Depth=1
	movl	(%rax), %edx
	movw	$2284, BasicBlockSignatureTracker # imm = 0x8EC
	movw	$0, RunTimeSignatureAdjuster
	cmpl	$4, %edx
	jge	.LBB2_128
# %bb.97:                               #   in Loop: Header=BB2_95 Depth=1
	movw	BasicBlockSignatureTracker, %dx
	xorw	$3, %dx
	cmpw	$2287, %dx              # imm = 0x8EF
	jne	.LBB2_180
# %bb.98:                               # %nk_attacked.split434
                                        #   in Loop: Header=BB2_95 Depth=1
	movslq	(%rax), %rdx
	movl	nk_attacked.bishop_o(,%rdx,4), %edx
	movl	%edx, (%r9)
	movl	(%rcx), %edx
	addl	(%r9), %edx
	movl	%edx, (%r10)
	movslq	(%r10), %rdx
	movl	board(,%rdx,4), %edx
	movl	%edx, (%r11)
	movl	(%r11), %edx
	movw	$2287, BasicBlockSignatureTracker # imm = 0x8EF
	movw	$0, RunTimeSignatureAdjuster
	cmpl	$2, %edx
	jne	.LBB2_105
# %bb.99:                               #   in Loop: Header=BB2_95 Depth=1
	movw	BasicBlockSignatureTracker, %dx
	xorw	$23, %dx
	cmpw	$2296, %dx              # imm = 0x8F8
	jne	.LBB2_180
# %bb.100:                              # %nk_attacked.split438
                                        #   in Loop: Header=BB2_95 Depth=1
	movl	(%rax), %edx
	andl	$1, %edx
	movw	$2296, BasicBlockSignatureTracker # imm = 0x8F8
	movw	$23, RunTimeSignatureAdjuster
	cmpl	$0, %edx
	jne	.LBB2_105
# %bb.101:                              # %Buffer__3
	movw	BasicBlockSignatureTracker, %ax
	xorw	$4594, %ax              # imm = 0x11F2
	cmpw	$6410, %ax              # imm = 0x190A
	jne	.LBB2_181
# %bb.102:                              # %nk_attacked.split442
	movw	$6410, BasicBlockSignatureTracker # imm = 0x190A
	movw	$4594, RunTimeSignatureAdjuster # imm = 0x11F2
# %bb.103:
	movw	BasicBlockSignatureTracker, %ax
	movw	RunTimeSignatureAdjuster, %cx
	xorw	$4, %ax
	xorw	%cx, %ax
	cmpw	$2300, %ax              # imm = 0x8FC
	jne	.LBB2_181
# %bb.104:                              # %nk_attacked.split536
	movl	$1, (%r8)
	movw	$2300, BasicBlockSignatureTracker # imm = 0x8FC
	movw	$4049, RunTimeSignatureAdjuster # imm = 0xFD1
	jmp	.LBB2_169
.LBB2_105:                              #   in Loop: Header=BB2_95 Depth=1
	movw	BasicBlockSignatureTracker, %dx
	movw	RunTimeSignatureAdjuster, %si
	xorw	$491, %dx               # imm = 0x1EB
	xorw	%si, %dx
	cmpw	$2308, %dx              # imm = 0x904
	jne	.LBB2_180
# %bb.106:                              # %nk_attacked.split440
                                        #   in Loop: Header=BB2_95 Depth=1
	movw	$2308, BasicBlockSignatureTracker # imm = 0x904
	movw	$0, RunTimeSignatureAdjuster
.LBB2_107:                              #   Parent Loop BB2_95 Depth=1
                                        # =>  This Inner Loop Header: Depth=2
	movw	BasicBlockSignatureTracker, %dx
	movw	RunTimeSignatureAdjuster, %si
	xorw	$3, %dx
	xorw	%si, %dx
	cmpw	$2311, %dx              # imm = 0x907
	jne	.LBB2_179
# %bb.108:                              # %nk_attacked.split444
                                        #   in Loop: Header=BB2_107 Depth=2
	movl	(%r11), %edx
	movw	$2311, BasicBlockSignatureTracker # imm = 0x907
	movw	$0, RunTimeSignatureAdjuster
	cmpl	$0, %edx
	je	.LBB2_123
# %bb.109:                              #   in Loop: Header=BB2_107 Depth=2
	movw	BasicBlockSignatureTracker, %dx
	xorw	$24, %dx
	cmpw	$2335, %dx              # imm = 0x91F
	jne	.LBB2_179
# %bb.110:                              # %nk_attacked.split446
                                        #   in Loop: Header=BB2_107 Depth=2
	movl	(%r11), %edx
	movw	$2335, BasicBlockSignatureTracker # imm = 0x91F
	movw	$0, RunTimeSignatureAdjuster
	cmpl	$12, %edx
	je	.LBB2_113
# %bb.111:                              #   in Loop: Header=BB2_107 Depth=2
	movw	BasicBlockSignatureTracker, %dx
	xorw	$51, %dx
	cmpw	$2348, %dx              # imm = 0x92C
	jne	.LBB2_179
# %bb.112:                              # %nk_attacked.split452
                                        #   in Loop: Header=BB2_107 Depth=2
	movl	(%r11), %edx
	movw	$2348, BasicBlockSignatureTracker # imm = 0x92C
	movw	$51, RunTimeSignatureAdjuster
	cmpl	$10, %edx
	jne	.LBB2_115
.LBB2_113:
	movw	BasicBlockSignatureTracker, %ax
	movw	RunTimeSignatureAdjuster, %cx
	xorw	$46, %ax
	xorw	%cx, %ax
	cmpw	$2353, %ax              # imm = 0x931
	jne	.LBB2_181
# %bb.114:                              # %nk_attacked.split450
	movl	$1, (%r8)
	movw	$2353, BasicBlockSignatureTracker # imm = 0x931
	movw	$3612, RunTimeSignatureAdjuster # imm = 0xE1C
	jmp	.LBB2_169
.LBB2_115:                              # %Buffer__4
                                        #   in Loop: Header=BB2_107 Depth=2
	movw	BasicBlockSignatureTracker, %dx
	xorw	$30847, %dx             # imm = 0x787F
	cmpw	$29011, %dx             # imm = 0x7153
	jne	.LBB2_179
# %bb.116:                              # %nk_attacked.split454
                                        #   in Loop: Header=BB2_107 Depth=2
	movw	$29011, BasicBlockSignatureTracker # imm = 0x7153
	movw	$30847, RunTimeSignatureAdjuster # imm = 0x787F
# %bb.117:                              #   in Loop: Header=BB2_107 Depth=2
	movw	BasicBlockSignatureTracker, %dx
	movw	RunTimeSignatureAdjuster, %si
	xorw	$30, %dx
	xorw	%si, %dx
	cmpw	$2354, %dx              # imm = 0x932
	jne	.LBB2_179
# %bb.118:                              # %nk_attacked.split538
                                        #   in Loop: Header=BB2_107 Depth=2
	movl	(%r11), %edx
	movw	$2354, BasicBlockSignatureTracker # imm = 0x932
	movw	$0, RunTimeSignatureAdjuster
	cmpl	$13, %edx
	je	.LBB2_121
# %bb.119:                              #   in Loop: Header=BB2_95 Depth=1
	movw	BasicBlockSignatureTracker, %dx
	xorw	$11, %dx
	cmpw	$2361, %dx              # imm = 0x939
	jne	.LBB2_180
# %bb.120:                              # %nk_attacked.split456
                                        #   in Loop: Header=BB2_95 Depth=1
	movw	$2361, BasicBlockSignatureTracker # imm = 0x939
	movw	$62, RunTimeSignatureAdjuster
	jmp	.LBB2_124
.LBB2_121:                              #   in Loop: Header=BB2_107 Depth=2
	movw	BasicBlockSignatureTracker, %dx
	xorw	$120, %dx
	cmpw	$2378, %dx              # imm = 0x94A
	jne	.LBB2_179
# %bb.122:                              # %nk_attacked.split458
                                        #   in Loop: Header=BB2_107 Depth=2
	movl	(%r9), %edx
	addl	(%r10), %edx
	movl	%edx, (%r10)
	movslq	(%r10), %rdx
	movl	board(,%rdx,4), %edx
	movl	%edx, (%r11)
	movw	$2378, BasicBlockSignatureTracker # imm = 0x94A
	movw	$78, RunTimeSignatureAdjuster
	jmp	.LBB2_107
.LBB2_123:                              # %.loopexit11
                                        #   in Loop: Header=BB2_95 Depth=1
	jmp	.LBB2_124
.LBB2_124:                              #   in Loop: Header=BB2_95 Depth=1
	movw	BasicBlockSignatureTracker, %dx
	movw	RunTimeSignatureAdjuster, %si
	xorw	$89, %dx
	xorw	%si, %dx
	cmpw	$2398, %dx              # imm = 0x95E
	jne	.LBB2_180
# %bb.125:                              # %nk_attacked.split448
                                        #   in Loop: Header=BB2_95 Depth=1
	movw	$2398, BasicBlockSignatureTracker # imm = 0x95E
	movw	$0, RunTimeSignatureAdjuster
# %bb.126:                              #   in Loop: Header=BB2_95 Depth=1
	movw	BasicBlockSignatureTracker, %dx
	xorw	$57, %dx
	cmpw	$2407, %dx              # imm = 0x967
	jne	.LBB2_180
# %bb.127:                              # %nk_attacked.split460
                                        #   in Loop: Header=BB2_95 Depth=1
	movl	(%rax), %edx
	addl	$1, %edx
	movl	%edx, (%rax)
	movw	$2407, BasicBlockSignatureTracker # imm = 0x967
	movw	$391, RunTimeSignatureAdjuster # imm = 0x187
	jmp	.LBB2_95
.LBB2_128:
	movw	BasicBlockSignatureTracker, %dx
	xorw	$408, %dx               # imm = 0x198
	cmpw	$2420, %dx              # imm = 0x974
	jne	.LBB2_181
# %bb.129:                              # %nk_attacked.split436
	movl	$0, (%rax)
	movw	$2420, BasicBlockSignatureTracker # imm = 0x974
	movw	$0, RunTimeSignatureAdjuster
.LBB2_130:                              # =>This Inner Loop Header: Depth=1
	movw	BasicBlockSignatureTracker, %dx
	movw	RunTimeSignatureAdjuster, %si
	xorw	$3, %dx
	xorw	%si, %dx
	cmpw	$2423, %dx              # imm = 0x977
	jne	.LBB2_178
# %bb.131:                              # %nk_attacked.split462
                                        #   in Loop: Header=BB2_130 Depth=1
	movl	(%rax), %edx
	movw	$2423, BasicBlockSignatureTracker # imm = 0x977
	movw	$0, RunTimeSignatureAdjuster
	cmpl	$8, %edx
	jge	.LBB2_140
# %bb.132:                              #   in Loop: Header=BB2_130 Depth=1
	movw	BasicBlockSignatureTracker, %dx
	xorw	$253, %dx
	cmpw	$2442, %dx              # imm = 0x98A
	jne	.LBB2_178
# %bb.133:                              # %nk_attacked.split464
                                        #   in Loop: Header=BB2_130 Depth=1
	movl	(%rcx), %edx
	movslq	(%rax), %rsi
	addl	nk_attacked.knight_o(,%rsi,4), %edx
	movslq	%edx, %rdx
	movl	board(,%rdx,4), %edx
	movw	$2442, BasicBlockSignatureTracker # imm = 0x98A
	movw	$0, RunTimeSignatureAdjuster
	cmpl	$4, %edx
	jne	.LBB2_136
# %bb.134:
	movw	BasicBlockSignatureTracker, %ax
	xorw	$6, %ax
	cmpw	$2444, %ax              # imm = 0x98C
	jne	.LBB2_181
# %bb.135:                              # %nk_attacked.split468
	movl	$1, (%r8)
	movw	$2444, BasicBlockSignatureTracker # imm = 0x98C
	movw	$3745, RunTimeSignatureAdjuster # imm = 0xEA1
	jmp	.LBB2_169
.LBB2_136:                              #   in Loop: Header=BB2_130 Depth=1
	movw	BasicBlockSignatureTracker, %dx
	xorw	$31, %dx
	cmpw	$2453, %dx              # imm = 0x995
	jne	.LBB2_178
# %bb.137:                              # %nk_attacked.split470
                                        #   in Loop: Header=BB2_130 Depth=1
	movw	$2453, BasicBlockSignatureTracker # imm = 0x995
	movw	$0, RunTimeSignatureAdjuster
# %bb.138:                              #   in Loop: Header=BB2_130 Depth=1
	movw	BasicBlockSignatureTracker, %dx
	xorw	$48, %dx
	cmpw	$2469, %dx              # imm = 0x9A5
	jne	.LBB2_178
# %bb.139:                              # %nk_attacked.split472
                                        #   in Loop: Header=BB2_130 Depth=1
	movl	(%rax), %edx
	addl	$1, %edx
	movl	%edx, (%rax)
	movw	$2469, BasicBlockSignatureTracker # imm = 0x9A5
	movw	$209, RunTimeSignatureAdjuster
	jmp	.LBB2_130
.LBB2_140:
	movw	BasicBlockSignatureTracker, %dx
	xorw	$189, %dx
	cmpw	$2506, %dx              # imm = 0x9CA
	jne	.LBB2_181
# %bb.141:                              # %nk_attacked.split466
	movl	$0, (%rax)
	movw	$2506, BasicBlockSignatureTracker # imm = 0x9CA
	movw	$0, RunTimeSignatureAdjuster
.LBB2_142:                              # =>This Loop Header: Depth=1
                                        #     Child Loop BB2_146 Depth 2
	movw	BasicBlockSignatureTracker, %dx
	movw	RunTimeSignatureAdjuster, %si
	xorw	$27, %dx
	xorw	%si, %dx
	cmpw	$2513, %dx              # imm = 0x9D1
	jne	.LBB2_177
# %bb.143:                              # %nk_attacked.split474
                                        #   in Loop: Header=BB2_142 Depth=1
	movl	(%rax), %edx
	movw	$2513, BasicBlockSignatureTracker # imm = 0x9D1
	movw	$0, RunTimeSignatureAdjuster
	cmpl	$4, %edx
	jge	.LBB2_167
# %bb.144:                              #   in Loop: Header=BB2_142 Depth=1
	movw	BasicBlockSignatureTracker, %dx
	xorw	$3, %dx
	cmpw	$2514, %dx              # imm = 0x9D2
	jne	.LBB2_177
# %bb.145:                              # %nk_attacked.split476
                                        #   in Loop: Header=BB2_142 Depth=1
	movslq	(%rax), %rdx
	movl	nk_attacked.rook_o(,%rdx,4), %edx
	movl	%edx, (%r9)
	movl	(%rcx), %edx
	movslq	(%rax), %rsi
	addl	nk_attacked.rook_o(,%rsi,4), %edx
	movl	%edx, (%r10)
	movslq	(%r10), %rdx
	movl	board(,%rdx,4), %edx
	movl	%edx, (%r11)
	movw	$2514, BasicBlockSignatureTracker # imm = 0x9D2
	movw	$0, RunTimeSignatureAdjuster
.LBB2_146:                              #   Parent Loop BB2_142 Depth=1
                                        # =>  This Inner Loop Header: Depth=2
	movw	BasicBlockSignatureTracker, %dx
	movw	RunTimeSignatureAdjuster, %si
	xorw	$10, %dx
	xorw	%si, %dx
	cmpw	$2520, %dx              # imm = 0x9D8
	jne	.LBB2_176
# %bb.147:                              # %nk_attacked.split480
                                        #   in Loop: Header=BB2_146 Depth=2
	movl	(%r11), %edx
	movw	$2520, BasicBlockSignatureTracker # imm = 0x9D8
	movw	$0, RunTimeSignatureAdjuster
	cmpl	$0, %edx
	je	.LBB2_162
# %bb.148:                              #   in Loop: Header=BB2_146 Depth=2
	movw	BasicBlockSignatureTracker, %dx
	xorw	$57, %dx
	cmpw	$2529, %dx              # imm = 0x9E1
	jne	.LBB2_176
# %bb.149:                              # %nk_attacked.split482
                                        #   in Loop: Header=BB2_146 Depth=2
	movl	(%r11), %edx
	movw	$2529, BasicBlockSignatureTracker # imm = 0x9E1
	movw	$0, RunTimeSignatureAdjuster
	cmpl	$8, %edx
	je	.LBB2_152
# %bb.150:                              #   in Loop: Header=BB2_146 Depth=2
	movw	BasicBlockSignatureTracker, %dx
	xorw	$3, %dx
	cmpw	$2530, %dx              # imm = 0x9E2
	jne	.LBB2_176
# %bb.151:                              # %nk_attacked.split488
                                        #   in Loop: Header=BB2_146 Depth=2
	movl	(%r11), %edx
	movw	$2530, BasicBlockSignatureTracker # imm = 0x9E2
	movw	$3, RunTimeSignatureAdjuster
	cmpl	$10, %edx
	jne	.LBB2_154
.LBB2_152:
	movw	BasicBlockSignatureTracker, %ax
	movw	RunTimeSignatureAdjuster, %cx
	xorw	$19, %ax
	xorw	%cx, %ax
	cmpw	$2546, %ax              # imm = 0x9F2
	jne	.LBB2_181
# %bb.153:                              # %nk_attacked.split486
	movl	$1, (%r8)
	movw	$2546, BasicBlockSignatureTracker # imm = 0x9F2
	movw	$3807, RunTimeSignatureAdjuster # imm = 0xEDF
	jmp	.LBB2_169
.LBB2_154:                              # %Buffer__5
                                        #   in Loop: Header=BB2_146 Depth=2
	movw	BasicBlockSignatureTracker, %dx
	xorw	$26047, %dx             # imm = 0x65BF
	cmpw	$27741, %dx             # imm = 0x6C5D
	jne	.LBB2_176
# %bb.155:                              # %nk_attacked.split490
                                        #   in Loop: Header=BB2_146 Depth=2
	movw	$27741, BasicBlockSignatureTracker # imm = 0x6C5D
	movw	$26047, RunTimeSignatureAdjuster # imm = 0x65BF
# %bb.156:                              #   in Loop: Header=BB2_146 Depth=2
	movw	BasicBlockSignatureTracker, %dx
	movw	RunTimeSignatureAdjuster, %si
	xorw	$28, %dx
	xorw	%si, %dx
	cmpw	$2558, %dx              # imm = 0x9FE
	jne	.LBB2_176
# %bb.157:                              # %nk_attacked.split540
                                        #   in Loop: Header=BB2_146 Depth=2
	movl	(%r11), %edx
	movw	$2558, BasicBlockSignatureTracker # imm = 0x9FE
	movw	$0, RunTimeSignatureAdjuster
	cmpl	$13, %edx
	je	.LBB2_160
# %bb.158:                              #   in Loop: Header=BB2_142 Depth=1
	movw	BasicBlockSignatureTracker, %dx
	xorw	$1021, %dx              # imm = 0x3FD
	cmpw	$2563, %dx              # imm = 0xA03
	jne	.LBB2_177
# %bb.159:                              # %nk_attacked.split492
                                        #   in Loop: Header=BB2_142 Depth=1
	movw	$2563, BasicBlockSignatureTracker # imm = 0xA03
	movw	$987, RunTimeSignatureAdjuster # imm = 0x3DB
	jmp	.LBB2_163
.LBB2_160:                              #   in Loop: Header=BB2_146 Depth=2
	movw	BasicBlockSignatureTracker, %dx
	xorw	$1007, %dx              # imm = 0x3EF
	cmpw	$2577, %dx              # imm = 0xA11
	jne	.LBB2_176
# %bb.161:                              # %nk_attacked.split494
                                        #   in Loop: Header=BB2_146 Depth=2
	movl	(%r9), %edx
	addl	(%r10), %edx
	movl	%edx, (%r10)
	movslq	(%r10), %rdx
	movl	board(,%rdx,4), %edx
	movl	%edx, (%r11)
	movw	$2577, BasicBlockSignatureTracker # imm = 0xA11
	movw	$963, RunTimeSignatureAdjuster # imm = 0x3C3
	jmp	.LBB2_146
.LBB2_162:                              # %.loopexit7
                                        #   in Loop: Header=BB2_142 Depth=1
	jmp	.LBB2_163
.LBB2_163:                              #   in Loop: Header=BB2_142 Depth=1
	movw	BasicBlockSignatureTracker, %dx
	movw	RunTimeSignatureAdjuster, %si
	xorw	$970, %dx               # imm = 0x3CA
	xorw	%si, %dx
	cmpw	$2578, %dx              # imm = 0xA12
	jne	.LBB2_177
# %bb.164:                              # %nk_attacked.split484
                                        #   in Loop: Header=BB2_142 Depth=1
	movw	$2578, BasicBlockSignatureTracker # imm = 0xA12
	movw	$0, RunTimeSignatureAdjuster
# %bb.165:                              #   in Loop: Header=BB2_142 Depth=1
	movw	BasicBlockSignatureTracker, %dx
	xorw	$12, %dx
	cmpw	$2590, %dx              # imm = 0xA1E
	jne	.LBB2_177
# %bb.166:                              # %nk_attacked.split496
                                        #   in Loop: Header=BB2_142 Depth=1
	movl	(%rax), %edx
	addl	$1, %edx
	movl	%edx, (%rax)
	movw	$2590, BasicBlockSignatureTracker # imm = 0xA1E
	movw	$980, RunTimeSignatureAdjuster # imm = 0x3D4
	jmp	.LBB2_142
.LBB2_167:
	movw	BasicBlockSignatureTracker, %ax
	xorw	$994, %ax               # imm = 0x3E2
	cmpw	$2611, %ax              # imm = 0xA33
	jne	.LBB2_181
# %bb.168:                              # %nk_attacked.split478
	movl	$0, (%r8)
	movw	$2611, BasicBlockSignatureTracker # imm = 0xA33
	movw	$3358, RunTimeSignatureAdjuster # imm = 0xD1E
.LBB2_169:
	movw	BasicBlockSignatureTracker, %ax
	movw	RunTimeSignatureAdjuster, %cx
	xorw	$3353, %ax              # imm = 0xD19
	xorw	%cx, %ax
	cmpw	$2612, %ax              # imm = 0xA34
	jne	.LBB2_181
# %bb.170:                              # %nk_attacked.split376
	movl	(%r8), %eax
	movw	$2612, BasicBlockSignatureTracker # imm = 0xA34
	movw	$10374, RunTimeSignatureAdjuster # imm = 0x2886
	movq	%rbp, %rsp
	popq	%rbp
	retq
.LBB2_171:                              # %CFerrorHandler.nk_attacked.loopexit
	jmp	.LBB2_181
.LBB2_172:                              # %CFerrorHandler.nk_attacked.loopexit1
	jmp	.LBB2_181
.LBB2_173:                              # %CFerrorHandler.nk_attacked.loopexit2
	jmp	.LBB2_181
.LBB2_174:                              # %CFerrorHandler.nk_attacked.loopexit3
	jmp	.LBB2_181
.LBB2_175:                              # %CFerrorHandler.nk_attacked.loopexit5
	jmp	.LBB2_181
.LBB2_176:                              # %CFerrorHandler.nk_attacked.loopexit6
	jmp	.LBB2_181
.LBB2_177:                              # %CFerrorHandler.nk_attacked.loopexit8
	jmp	.LBB2_181
.LBB2_178:                              # %CFerrorHandler.nk_attacked.loopexit9
	jmp	.LBB2_181
.LBB2_179:                              # %CFerrorHandler.nk_attacked.loopexit10
	jmp	.LBB2_181
.LBB2_180:                              # %CFerrorHandler.nk_attacked.loopexit12
	jmp	.LBB2_181
.LBB2_181:                              # %CFerrorHandler.nk_attacked
	callq	FAULT_DETECTED_CFC
.Lfunc_end2:
	.size	nk_attacked, .Lfunc_end2-nk_attacked
	.cfi_endproc
                                        # -- End function
	.globl	init_book               # -- Begin function init_book
	.p2align	4, 0x90
	.type	init_book,@function
init_book:                              # @init_book
	.cfi_startproc
# %bb.0:
	pushq	%rbp
	.cfi_def_cfa_offset 16
	.cfi_offset %rbp, -16
	movq	%rsp, %rbp
	.cfi_def_cfa_register %rbp
	movw	$2624, BasicBlockSignatureTracker # imm = 0xA40
	movw	$0, RunTimeSignatureAdjuster
	movl	$1, %eax
	popq	%rbp
	retq
.Lfunc_end3:
	.size	init_book, .Lfunc_end3-init_book
	.cfi_endproc
                                        # -- End function
	.globl	choose_book_move        # -- Begin function choose_book_move
	.p2align	4, 0x90
	.type	choose_book_move,@function
choose_book_move:                       # @choose_book_move
	.cfi_startproc
# %bb.0:
	pushq	%rbp
	.cfi_def_cfa_offset 16
	.cfi_offset %rbp, -16
	movq	%rsp, %rbp
	.cfi_def_cfa_register %rbp
	movq	dummy, %rax
	movq	%rax, (%rdi)
	movq	dummy+8, %rax
	movq	%rax, 8(%rdi)
	movq	dummy+16, %rax
	movq	%rax, 16(%rdi)
	movw	$2661, BasicBlockSignatureTracker # imm = 0xA65
	movw	$0, RunTimeSignatureAdjuster
	movq	%rdi, %rax
	popq	%rbp
	retq
.Lfunc_end4:
	.size	choose_book_move, .Lfunc_end4-choose_book_move
	.cfi_endproc
                                        # -- End function
	.globl	ProcessHoldings         # -- Begin function ProcessHoldings
	.p2align	4, 0x90
	.type	ProcessHoldings,@function
ProcessHoldings:                        # @ProcessHoldings
	.cfi_startproc
# %bb.0:
	pushq	%rbp
	.cfi_def_cfa_offset 16
	.cfi_offset %rbp, -16
	movq	%rsp, %rbp
	.cfi_def_cfa_register %rbp
	pushq	%r15
	pushq	%r14
	pushq	%rbx
	pushq	%rax
	.cfi_offset %rbx, -40
	.cfi_offset %r14, -32
	.cfi_offset %r15, -24
	movw	BasicBlockSignatureTracker, %ax
	movw	RunTimeSignatureAdjuster, %cx
	xorw	$1383, %ax              # imm = 0x567
	xorw	%cx, %ax
	cmpw	$2707, %ax              # imm = 0xA93
	jne	.LBB5_101
# %bb.1:                                # %ProcessHoldings.split286
	movw	BasicBlockSignatureTracker, %ax
	movw	RunTimeSignatureAdjuster, %cx
	xorw	$1383, %ax              # imm = 0x567
	xorw	%cx, %ax
	cmpw	$2707, %ax              # imm = 0xA93
	jne	.LBB5_101
# %bb.2:                                # %ProcessHoldings.split284
	movabsq	$holding, %rax
	movq	%rsp, %r14
	addq	$-16, %r14
	movq	%r14, %rsp
	movq	%rsp, %rbx
	addq	$-16, %rbx
	movq	%rbx, %rsp
	movq	%rsp, %r15
	addq	$-16, %r15
	movq	%r15, %rsp
	movq	%rdi, (%r14)
	movl	$0, (%r15)
	movq	%rax, %rdi
	xorl	%esi, %esi
	movl	$128, %edx
	callq	memset
	movl	$-1056969216, hold_hash # imm = 0xC0FFEE00
	movl	$0, white_hand_eval
	movl	$0, black_hand_eval
	movw	$2707, BasicBlockSignatureTracker # imm = 0xA93
	movw	$0, RunTimeSignatureAdjuster
	callq	reset_ecache
	movw	$2707, BasicBlockSignatureTracker # imm = 0xA93
	movw	$0, RunTimeSignatureAdjuster
	movl	$0, num_holding
	movl	$0, num_holding+4
	movl	$0, (%rbx)
	movw	$2707, BasicBlockSignatureTracker # imm = 0xA93
	movw	$0, RunTimeSignatureAdjuster
.LBB5_3:                                # =>This Loop Header: Depth=1
                                        #     Child Loop BB5_7 Depth 2
                                        #     Child Loop BB5_17 Depth 2
	movw	BasicBlockSignatureTracker, %ax
	movw	RunTimeSignatureAdjuster, %cx
	xorw	$7, %ax
	xorw	%cx, %ax
	cmpw	$2708, %ax              # imm = 0xA94
	jne	.LBB5_100
# %bb.4:                                # %ProcessHoldings.split
                                        #   in Loop: Header=BB5_3 Depth=1
	movl	(%rbx), %eax
	movw	$2708, BasicBlockSignatureTracker # imm = 0xA94
	movw	$0, RunTimeSignatureAdjuster
	cmpl	$1, %eax
	jg	.LBB5_40
# %bb.5:                                #   in Loop: Header=BB5_3 Depth=1
	movw	BasicBlockSignatureTracker, %ax
	xorw	$2, %ax
	cmpw	$2710, %ax              # imm = 0xA96
	jne	.LBB5_100
# %bb.6:                                # %ProcessHoldings.split196
                                        #   in Loop: Header=BB5_3 Depth=1
	movw	$2710, BasicBlockSignatureTracker # imm = 0xA96
	movw	$0, RunTimeSignatureAdjuster
.LBB5_7:                                #   Parent Loop BB5_3 Depth=1
                                        # =>  This Inner Loop Header: Depth=2
	movw	BasicBlockSignatureTracker, %ax
	movw	RunTimeSignatureAdjuster, %cx
	xorw	$10, %ax
	xorw	%cx, %ax
	cmpw	$2716, %ax              # imm = 0xA9C
	jne	.LBB5_99
# %bb.8:                                # %ProcessHoldings.split200
                                        #   in Loop: Header=BB5_7 Depth=2
	movq	(%r14), %rax
	movl	(%r15), %ecx
	movl	%ecx, %edx
	addl	$1, %edx
	movl	%edx, (%r15)
	movslq	%ecx, %rcx
	movsbl	(%rax,%rcx), %eax
	movw	$2716, BasicBlockSignatureTracker # imm = 0xA9C
	movw	$0, RunTimeSignatureAdjuster
	cmpl	$91, %eax
	je	.LBB5_15
# %bb.9:                                #   in Loop: Header=BB5_7 Depth=2
	movw	BasicBlockSignatureTracker, %ax
	xorw	$2, %ax
	cmpw	$2718, %ax              # imm = 0xA9E
	jne	.LBB5_99
# %bb.10:                               # %ProcessHoldings.split202
                                        #   in Loop: Header=BB5_7 Depth=2
	movq	(%r14), %rax
	movslq	(%r15), %rcx
	movsbl	(%rax,%rcx), %eax
	movw	$2718, BasicBlockSignatureTracker # imm = 0xA9E
	movw	$0, RunTimeSignatureAdjuster
	cmpl	$0, %eax
	jne	.LBB5_13
# %bb.11:
	movw	BasicBlockSignatureTracker, %ax
	xorw	$34, %ax
	cmpw	$2748, %ax              # imm = 0xABC
	jne	.LBB5_101
# %bb.12:                               # %ProcessHoldings.split206
	movw	$2748, BasicBlockSignatureTracker # imm = 0xABC
	movw	$0, RunTimeSignatureAdjuster
	jmp	.LBB5_96
.LBB5_13:                               #   in Loop: Header=BB5_7 Depth=2
	movw	BasicBlockSignatureTracker, %ax
	xorw	$123, %ax
	cmpw	$2789, %ax              # imm = 0xAE5
	jne	.LBB5_99
# %bb.14:                               # %ProcessHoldings.split208
                                        #   in Loop: Header=BB5_7 Depth=2
	movw	$2789, BasicBlockSignatureTracker # imm = 0xAE5
	movw	$115, RunTimeSignatureAdjuster
	jmp	.LBB5_7
.LBB5_15:                               #   in Loop: Header=BB5_3 Depth=1
	movw	BasicBlockSignatureTracker, %ax
	xorw	$106, %ax
	cmpw	$2806, %ax              # imm = 0xAF6
	jne	.LBB5_100
# %bb.16:                               # %ProcessHoldings.split204
                                        #   in Loop: Header=BB5_3 Depth=1
	movw	$2806, BasicBlockSignatureTracker # imm = 0xAF6
	movw	$0, RunTimeSignatureAdjuster
.LBB5_17:                               #   Parent Loop BB5_3 Depth=1
                                        # =>  This Inner Loop Header: Depth=2
	movw	BasicBlockSignatureTracker, %ax
	movw	RunTimeSignatureAdjuster, %cx
	xorw	$14, %ax
	xorw	%cx, %ax
	cmpw	$2808, %ax              # imm = 0xAF8
	jne	.LBB5_98
# %bb.18:                               # %ProcessHoldings.split212
                                        #   in Loop: Header=BB5_17 Depth=2
	movq	(%r14), %rax
	movslq	(%r15), %rcx
	movsbl	(%rax,%rcx), %eax
	movw	$2808, BasicBlockSignatureTracker # imm = 0xAF8
	movw	$0, RunTimeSignatureAdjuster
	cmpl	$93, %eax
	je	.LBB5_36
# %bb.19:                               #   in Loop: Header=BB5_17 Depth=2
	movw	BasicBlockSignatureTracker, %ax
	xorw	$505, %ax               # imm = 0x1F9
	cmpw	$2817, %ax              # imm = 0xB01
	jne	.LBB5_98
# %bb.20:                               # %ProcessHoldings.split214
                                        #   in Loop: Header=BB5_17 Depth=2
	movq	(%r14), %rax
	movslq	(%r15), %rcx
	movl	%ecx, %edx
	addl	$1, %edx
	movl	%edx, (%r15)
	movsbl	(%rax,%rcx), %eax
	movw	$2817, BasicBlockSignatureTracker(%rip) # imm = 0xB01
	movw	$0, RunTimeSignatureAdjuster(%rip)
	addl	$-66, %eax
	movl	%eax, %ecx
	subl	$48, %ecx
	ja	.LBB5_32
# %bb.21:                               # %ProcessHoldings.split214
                                        #   in Loop: Header=BB5_17 Depth=2
	movq	.LJTI5_0(,%rax,8), %rax
	jmpq	*%rax
.LBB5_22:                               #   in Loop: Header=BB5_17 Depth=2
	movw	BasicBlockSignatureTracker, %ax
	movw	RunTimeSignatureAdjuster, %cx
	xorw	$2, %ax
	xorw	%cx, %ax
	cmpw	$2819, %ax              # imm = 0xB03
	jne	.LBB5_98
# %bb.23:                               # %ProcessHoldings.split220
                                        #   in Loop: Header=BB5_17 Depth=2
	movl	$2, %r9d
	movl	$1, %r8d
	movabsq	$holding, %rsi
	movabsq	$zobrist, %rdx
	movslq	(%rbx), %rdi
	shlq	$6, %rdi
	movq	%rsi, %rcx
	addq	%rdi, %rcx
	movl	(%rbx), %edi
	cmpl	$0, %edi
	movl	$2, %edi
	cmovel	%r8d, %edi
	movslq	%edi, %rdi
	movl	(%rcx,%rdi,4), %eax
	addl	$1, %eax
	movl	%eax, (%rcx,%rdi,4)
	movslq	(%rbx), %rax
	movl	num_holding(,%rax,4), %ecx
	addl	$1, %ecx
	movl	%ecx, num_holding(,%rax,4)
	movl	(%rbx), %eax
	cmpl	$0, %eax
	movl	$2, %eax
	cmovel	%r8d, %eax
	cltq
	imulq	$576, %rax, %rax        # imm = 0x240
	addq	%rax, %rdx
	movslq	(%rbx), %rax
	shlq	$6, %rax
	addq	%rax, %rsi
	movl	(%rbx), %eax
	cmpl	$0, %eax
	cmovel	%r8d, %r9d
	movslq	%r9d, %rax
	movslq	(%rsi,%rax,4), %rax
	movl	(%rdx,%rax,4), %eax
	xorl	hold_hash, %eax
	movl	%eax, hold_hash
	movw	$2819, BasicBlockSignatureTracker # imm = 0xB03
	movw	$0, RunTimeSignatureAdjuster
	jmp	.LBB5_34
.LBB5_24:                               #   in Loop: Header=BB5_17 Depth=2
	movw	BasicBlockSignatureTracker, %ax
	movw	RunTimeSignatureAdjuster, %cx
	xorw	$10, %ax
	xorw	%cx, %ax
	cmpw	$2827, %ax              # imm = 0xB0B
	jne	.LBB5_98
# %bb.25:                               # %ProcessHoldings.split222
                                        #   in Loop: Header=BB5_17 Depth=2
	movl	$10, %r9d
	movl	$9, %r8d
	movabsq	$holding, %rsi
	movabsq	$zobrist, %rdx
	movslq	(%rbx), %rdi
	shlq	$6, %rdi
	movq	%rsi, %rcx
	addq	%rdi, %rcx
	movl	(%rbx), %edi
	cmpl	$0, %edi
	movl	$10, %edi
	cmovel	%r8d, %edi
	movslq	%edi, %rdi
	movl	(%rcx,%rdi,4), %eax
	addl	$1, %eax
	movl	%eax, (%rcx,%rdi,4)
	movslq	(%rbx), %rax
	movl	num_holding(,%rax,4), %ecx
	addl	$1, %ecx
	movl	%ecx, num_holding(,%rax,4)
	movl	(%rbx), %eax
	cmpl	$0, %eax
	movl	$10, %eax
	cmovel	%r8d, %eax
	cltq
	imulq	$576, %rax, %rax        # imm = 0x240
	addq	%rax, %rdx
	movslq	(%rbx), %rax
	shlq	$6, %rax
	addq	%rax, %rsi
	movl	(%rbx), %eax
	cmpl	$0, %eax
	cmovel	%r8d, %r9d
	movslq	%r9d, %rax
	movslq	(%rsi,%rax,4), %rax
	movl	(%rdx,%rax,4), %eax
	xorl	hold_hash, %eax
	movl	%eax, hold_hash
	movw	$2827, BasicBlockSignatureTracker # imm = 0xB0B
	movw	$8, RunTimeSignatureAdjuster
	jmp	.LBB5_34
.LBB5_26:                               #   in Loop: Header=BB5_17 Depth=2
	movw	BasicBlockSignatureTracker, %ax
	movw	RunTimeSignatureAdjuster, %cx
	xorw	$14, %ax
	xorw	%cx, %ax
	cmpw	$2831, %ax              # imm = 0xB0F
	jne	.LBB5_98
# %bb.27:                               # %ProcessHoldings.split224
                                        #   in Loop: Header=BB5_17 Depth=2
	movl	$8, %r9d
	movl	$7, %r8d
	movabsq	$holding, %rsi
	movabsq	$zobrist, %rdx
	movslq	(%rbx), %rdi
	shlq	$6, %rdi
	movq	%rsi, %rcx
	addq	%rdi, %rcx
	movl	(%rbx), %edi
	cmpl	$0, %edi
	movl	$8, %edi
	cmovel	%r8d, %edi
	movslq	%edi, %rdi
	movl	(%rcx,%rdi,4), %eax
	addl	$1, %eax
	movl	%eax, (%rcx,%rdi,4)
	movslq	(%rbx), %rax
	movl	num_holding(,%rax,4), %ecx
	addl	$1, %ecx
	movl	%ecx, num_holding(,%rax,4)
	movl	(%rbx), %eax
	cmpl	$0, %eax
	movl	$8, %eax
	cmovel	%r8d, %eax
	cltq
	imulq	$576, %rax, %rax        # imm = 0x240
	addq	%rax, %rdx
	movslq	(%rbx), %rax
	shlq	$6, %rax
	addq	%rax, %rsi
	movl	(%rbx), %eax
	cmpl	$0, %eax
	cmovel	%r8d, %r9d
	movslq	%r9d, %rax
	movslq	(%rsi,%rax,4), %rax
	movl	(%rdx,%rax,4), %eax
	xorl	hold_hash, %eax
	movl	%eax, hold_hash
	movw	$2831, BasicBlockSignatureTracker # imm = 0xB0F
	movw	$12, RunTimeSignatureAdjuster
	jmp	.LBB5_34
.LBB5_28:                               #   in Loop: Header=BB5_17 Depth=2
	movw	BasicBlockSignatureTracker, %ax
	movw	RunTimeSignatureAdjuster, %cx
	xorw	$26, %ax
	xorw	%cx, %ax
	cmpw	$2843, %ax              # imm = 0xB1B
	jne	.LBB5_98
# %bb.29:                               # %ProcessHoldings.split226
                                        #   in Loop: Header=BB5_17 Depth=2
	movl	$12, %r9d
	movl	$11, %r8d
	movabsq	$holding, %rsi
	movabsq	$zobrist, %rdx
	movslq	(%rbx), %rdi
	shlq	$6, %rdi
	movq	%rsi, %rcx
	addq	%rdi, %rcx
	movl	(%rbx), %edi
	cmpl	$0, %edi
	movl	$12, %edi
	cmovel	%r8d, %edi
	movslq	%edi, %rdi
	movl	(%rcx,%rdi,4), %eax
	addl	$1, %eax
	movl	%eax, (%rcx,%rdi,4)
	movslq	(%rbx), %rax
	movl	num_holding(,%rax,4), %ecx
	addl	$1, %ecx
	movl	%ecx, num_holding(,%rax,4)
	movl	(%rbx), %eax
	cmpl	$0, %eax
	movl	$12, %eax
	cmovel	%r8d, %eax
	cltq
	imulq	$576, %rax, %rax        # imm = 0x240
	addq	%rax, %rdx
	movslq	(%rbx), %rax
	shlq	$6, %rax
	addq	%rax, %rsi
	movl	(%rbx), %eax
	cmpl	$0, %eax
	cmovel	%r8d, %r9d
	movslq	%r9d, %rax
	movslq	(%rsi,%rax,4), %rax
	movl	(%rdx,%rax,4), %eax
	xorl	hold_hash, %eax
	movl	%eax, hold_hash
	movw	$2843, BasicBlockSignatureTracker # imm = 0xB1B
	movw	$24, RunTimeSignatureAdjuster
	jmp	.LBB5_34
.LBB5_30:                               #   in Loop: Header=BB5_17 Depth=2
	movw	BasicBlockSignatureTracker, %ax
	movw	RunTimeSignatureAdjuster, %cx
	xorw	$50, %ax
	xorw	%cx, %ax
	cmpw	$2867, %ax              # imm = 0xB33
	jne	.LBB5_98
# %bb.31:                               # %ProcessHoldings.split228
                                        #   in Loop: Header=BB5_17 Depth=2
	movl	$4, %r9d
	movl	$3, %r8d
	movabsq	$holding, %rsi
	movabsq	$zobrist, %rdx
	movslq	(%rbx), %rdi
	shlq	$6, %rdi
	movq	%rsi, %rcx
	addq	%rdi, %rcx
	movl	(%rbx), %edi
	cmpl	$0, %edi
	movl	$4, %edi
	cmovel	%r8d, %edi
	movslq	%edi, %rdi
	movl	(%rcx,%rdi,4), %eax
	addl	$1, %eax
	movl	%eax, (%rcx,%rdi,4)
	movslq	(%rbx), %rax
	movl	num_holding(,%rax,4), %ecx
	addl	$1, %ecx
	movl	%ecx, num_holding(,%rax,4)
	movl	(%rbx), %eax
	cmpl	$0, %eax
	movl	$4, %eax
	cmovel	%r8d, %eax
	cltq
	imulq	$576, %rax, %rax        # imm = 0x240
	addq	%rax, %rdx
	movslq	(%rbx), %rax
	shlq	$6, %rax
	addq	%rax, %rsi
	movl	(%rbx), %eax
	cmpl	$0, %eax
	cmovel	%r8d, %r9d
	movslq	%r9d, %rax
	movslq	(%rsi,%rax,4), %rax
	movl	(%rdx,%rax,4), %eax
	xorl	hold_hash, %eax
	movl	%eax, hold_hash
	movw	$2867, BasicBlockSignatureTracker # imm = 0xB33
	movw	$48, RunTimeSignatureAdjuster
	jmp	.LBB5_34
.LBB5_32:
	movw	BasicBlockSignatureTracker, %ax
	xorw	$53, %ax
	cmpw	$2868, %ax              # imm = 0xB34
	jne	.LBB5_101
# %bb.33:                               # %ProcessHoldings.split218
	movw	$2868, BasicBlockSignatureTracker # imm = 0xB34
	movw	$392, RunTimeSignatureAdjuster # imm = 0x188
	jmp	.LBB5_96
.LBB5_34:                               #   in Loop: Header=BB5_17 Depth=2
	movw	BasicBlockSignatureTracker, %ax
	movw	RunTimeSignatureAdjuster, %cx
	xorw	$52, %ax
	xorw	%cx, %ax
	cmpw	$2871, %ax              # imm = 0xB37
	jne	.LBB5_98
# %bb.35:                               # %ProcessHoldings.split230
                                        #   in Loop: Header=BB5_17 Depth=2
	movw	$2871, BasicBlockSignatureTracker # imm = 0xB37
	movw	$449, RunTimeSignatureAdjuster # imm = 0x1C1
	jmp	.LBB5_17
.LBB5_36:                               #   in Loop: Header=BB5_3 Depth=1
	movw	BasicBlockSignatureTracker, %ax
	xorw	$452, %ax               # imm = 0x1C4
	cmpw	$2876, %ax              # imm = 0xB3C
	jne	.LBB5_100
# %bb.37:                               # %ProcessHoldings.split216
                                        #   in Loop: Header=BB5_3 Depth=1
	movw	$2876, BasicBlockSignatureTracker # imm = 0xB3C
	movw	$0, RunTimeSignatureAdjuster
# %bb.38:                               #   in Loop: Header=BB5_3 Depth=1
	movw	BasicBlockSignatureTracker, %ax
	xorw	$2, %ax
	cmpw	$2878, %ax              # imm = 0xB3E
	jne	.LBB5_100
# %bb.39:                               # %ProcessHoldings.split232
                                        #   in Loop: Header=BB5_3 Depth=1
	movl	(%rbx), %eax
	addl	$1, %eax
	movl	%eax, (%rbx)
	movw	$2878, BasicBlockSignatureTracker # imm = 0xB3E
	movw	$429, RunTimeSignatureAdjuster # imm = 0x1AD
	jmp	.LBB5_3
.LBB5_40:
	movw	BasicBlockSignatureTracker, %ax
	xorw	$478, %ax               # imm = 0x1DE
	cmpw	$2890, %ax              # imm = 0xB4A
	jne	.LBB5_101
# %bb.41:                               # %ProcessHoldings.split198
	movl	Variant, %eax
	movw	$2890, BasicBlockSignatureTracker # imm = 0xB4A
	movw	$502, RunTimeSignatureAdjuster # imm = 0x1F6
	cmpl	$1, %eax
	jne	.LBB5_96
# %bb.42:                               # %Buffer__
	movw	BasicBlockSignatureTracker, %ax
	xorw	$22784, %ax             # imm = 0x5900
	cmpw	$21066, %ax             # imm = 0x524A
	jne	.LBB5_101
# %bb.43:                               # %ProcessHoldings.split234
	movw	$21066, BasicBlockSignatureTracker # imm = 0x524A
	movw	$22784, RunTimeSignatureAdjuster # imm = 0x5900
# %bb.44:
	movw	BasicBlockSignatureTracker, %ax
	movw	RunTimeSignatureAdjuster, %cx
	xorw	$42, %ax
	xorw	%cx, %ax
	cmpw	$2912, %ax              # imm = 0xB60
	jne	.LBB5_101
# %bb.45:                               # %ProcessHoldings.split288
	movl	userealholdings, %eax
	movw	$2912, BasicBlockSignatureTracker # imm = 0xB60
	movw	$476, RunTimeSignatureAdjuster # imm = 0x1DC
	cmpl	$0, %eax
	jne	.LBB5_96
# %bb.46:                               # %Buffer__1
	movw	BasicBlockSignatureTracker, %ax
	xorw	$-8278, %ax             # imm = 0xDFAA
	cmpw	$-11062, %ax            # imm = 0xD4CA
	jne	.LBB5_101
# %bb.47:                               # %ProcessHoldings.split236
	movw	$-11062, BasicBlockSignatureTracker # imm = 0xD4CA
	movw	$-8278, RunTimeSignatureAdjuster # imm = 0xDFAA
# %bb.48:
	movw	BasicBlockSignatureTracker, %ax
	movw	RunTimeSignatureAdjuster, %cx
	xorw	$9, %ax
	xorw	%cx, %ax
	cmpw	$2921, %ax              # imm = 0xB69
	jne	.LBB5_101
# %bb.49:                               # %ProcessHoldings.split290
	movabsq	$realholdings, %rdi
	movq	(%r14), %rsi
	movl	$200, %edx
	callq	strncpy
	movl	comp_color, %eax
	movw	$2921, BasicBlockSignatureTracker # imm = 0xB69
	movw	$0, RunTimeSignatureAdjuster
	cmpl	$1, %eax
	jne	.LBB5_72
# %bb.50:
	movw	BasicBlockSignatureTracker, %ax
	xorw	$17, %ax
	cmpw	$2936, %ax              # imm = 0xB78
	jne	.LBB5_101
# %bb.51:                               # %ProcessHoldings.split238
	movl	holding+72, %eax
	movw	$2936, BasicBlockSignatureTracker # imm = 0xB78
	movw	$0, RunTimeSignatureAdjuster
	cmpl	$0, %eax
	jne	.LBB5_54
# %bb.52:
	movw	BasicBlockSignatureTracker, %ax
	xorw	$3, %ax
	cmpw	$2939, %ax              # imm = 0xB7B
	jne	.LBB5_101
# %bb.53:                               # %ProcessHoldings.split242
	movl	holding+72, %eax
	addl	$1, %eax
	movl	%eax, holding+72
	movl	num_holding+4, %eax
	addl	$1, %eax
	movl	%eax, num_holding+4
	movslq	holding+72, %rax
	movl	zobrist+1152(,%rax,4), %eax
	xorl	hold_hash, %eax
	movl	%eax, hold_hash
	movw	$2939, BasicBlockSignatureTracker # imm = 0xB7B
	movw	$3, RunTimeSignatureAdjuster
.LBB5_54:
	movw	BasicBlockSignatureTracker, %ax
	movw	RunTimeSignatureAdjuster, %cx
	xorw	$240, %ax
	xorw	%cx, %ax
	cmpw	$2952, %ax              # imm = 0xB88
	jne	.LBB5_101
# %bb.55:                               # %ProcessHoldings.split244
	movl	holding+112, %eax
	movw	$2952, BasicBlockSignatureTracker # imm = 0xB88
	movw	$0, RunTimeSignatureAdjuster
	cmpl	$0, %eax
	jne	.LBB5_58
# %bb.56:
	movw	BasicBlockSignatureTracker, %ax
	xorw	$30, %ax
	cmpw	$2966, %ax              # imm = 0xB96
	jne	.LBB5_101
# %bb.57:                               # %ProcessHoldings.split246
	movl	holding+112, %eax
	addl	$1, %eax
	movl	%eax, holding+112
	movl	num_holding+4, %eax
	addl	$1, %eax
	movl	%eax, num_holding+4
	movslq	holding+112, %rax
	movl	zobrist+1152(,%rax,4), %eax
	xorl	hold_hash, %eax
	movl	%eax, hold_hash
	movw	$2966, BasicBlockSignatureTracker # imm = 0xB96
	movw	$30, RunTimeSignatureAdjuster
.LBB5_58:
	movw	BasicBlockSignatureTracker, %ax
	movw	RunTimeSignatureAdjuster, %cx
	xorw	$43, %ax
	xorw	%cx, %ax
	cmpw	$2979, %ax              # imm = 0xBA3
	jne	.LBB5_101
# %bb.59:                               # %ProcessHoldings.split248
	movl	holding+80, %eax
	movw	$2979, BasicBlockSignatureTracker # imm = 0xBA3
	movw	$0, RunTimeSignatureAdjuster
	cmpl	$0, %eax
	jne	.LBB5_62
# %bb.60:
	movw	BasicBlockSignatureTracker, %ax
	xorw	$5, %ax
	cmpw	$2982, %ax              # imm = 0xBA6
	jne	.LBB5_101
# %bb.61:                               # %ProcessHoldings.split250
	movl	holding+80, %eax
	addl	$1, %eax
	movl	%eax, holding+80
	movl	num_holding+4, %eax
	addl	$1, %eax
	movl	%eax, num_holding+4
	movslq	holding+80, %rax
	movl	zobrist+2304(,%rax,4), %eax
	xorl	hold_hash, %eax
	movl	%eax, hold_hash
	movw	$2982, BasicBlockSignatureTracker # imm = 0xBA6
	movw	$5, RunTimeSignatureAdjuster
.LBB5_62:
	movw	BasicBlockSignatureTracker, %ax
	movw	RunTimeSignatureAdjuster, %cx
	xorw	$15, %ax
	xorw	%cx, %ax
	cmpw	$2988, %ax              # imm = 0xBAC
	jne	.LBB5_101
# %bb.63:                               # %ProcessHoldings.split252
	movl	holding+96, %eax
	movw	$2988, BasicBlockSignatureTracker # imm = 0xBAC
	movw	$0, RunTimeSignatureAdjuster
	cmpl	$0, %eax
	jne	.LBB5_66
# %bb.64:
	movw	BasicBlockSignatureTracker, %ax
	xorw	$29, %ax
	cmpw	$2993, %ax              # imm = 0xBB1
	jne	.LBB5_101
# %bb.65:                               # %ProcessHoldings.split254
	movl	holding+96, %eax
	addl	$1, %eax
	movl	%eax, holding+96
	movl	num_holding+4, %eax
	addl	$1, %eax
	movl	%eax, num_holding+4
	movslq	holding+96, %rax
	movl	zobrist+2304(,%rax,4), %eax
	xorl	hold_hash, %eax
	movl	%eax, hold_hash
	movw	$2993, BasicBlockSignatureTracker # imm = 0xBB1
	movw	$29, RunTimeSignatureAdjuster
.LBB5_66:
	movw	BasicBlockSignatureTracker, %ax
	movw	RunTimeSignatureAdjuster, %cx
	xorw	$24, %ax
	xorw	%cx, %ax
	cmpw	$2996, %ax              # imm = 0xBB4
	jne	.LBB5_101
# %bb.67:                               # %ProcessHoldings.split256
	movl	holding+104, %eax
	movw	$2996, BasicBlockSignatureTracker # imm = 0xBB4
	movw	$0, RunTimeSignatureAdjuster
	cmpl	$0, %eax
	jne	.LBB5_70
# %bb.68:
	movw	BasicBlockSignatureTracker, %ax
	xorw	$113, %ax
	cmpw	$3013, %ax              # imm = 0xBC5
	jne	.LBB5_101
# %bb.69:                               # %ProcessHoldings.split258
	movl	holding+104, %eax
	addl	$1, %eax
	movl	%eax, holding+104
	movl	num_holding+4, %eax
	addl	$1, %eax
	movl	%eax, num_holding+4
	movslq	holding+104, %rax
	movl	zobrist+2304(,%rax,4), %eax
	xorl	hold_hash, %eax
	movl	%eax, hold_hash
	movw	$3013, BasicBlockSignatureTracker # imm = 0xBC5
	movw	$113, RunTimeSignatureAdjuster
.LBB5_70:
	movw	BasicBlockSignatureTracker, %ax
	movw	RunTimeSignatureAdjuster, %cx
	xorw	$120, %ax
	xorw	%cx, %ax
	cmpw	$3020, %ax              # imm = 0xBCC
	jne	.LBB5_101
# %bb.71:                               # %ProcessHoldings.split260
	movw	$3020, BasicBlockSignatureTracker # imm = 0xBCC
	movw	$0, RunTimeSignatureAdjuster
	jmp	.LBB5_94
.LBB5_72:
	movw	BasicBlockSignatureTracker, %ax
	xorw	$167, %ax
	cmpw	$3022, %ax              # imm = 0xBCE
	jne	.LBB5_101
# %bb.73:                               # %ProcessHoldings.split240
	movl	holding+36, %eax
	movw	$3022, BasicBlockSignatureTracker # imm = 0xBCE
	movw	$0, RunTimeSignatureAdjuster
	cmpl	$0, %eax
	jne	.LBB5_76
# %bb.74:
	movw	BasicBlockSignatureTracker, %ax
	xorw	$27, %ax
	cmpw	$3029, %ax              # imm = 0xBD5
	jne	.LBB5_101
# %bb.75:                               # %ProcessHoldings.split264
	movl	holding+36, %eax
	addl	$1, %eax
	movl	%eax, holding+36
	movl	num_holding, %eax
	addl	$1, %eax
	movl	%eax, num_holding
	movslq	holding+36, %rax
	movl	zobrist+5184(,%rax,4), %eax
	xorl	hold_hash, %eax
	movl	%eax, hold_hash
	movw	$3029, BasicBlockSignatureTracker # imm = 0xBD5
	movw	$27, RunTimeSignatureAdjuster
.LBB5_76:
	movw	BasicBlockSignatureTracker, %ax
	movw	RunTimeSignatureAdjuster, %cx
	xorw	$22, %ax
	xorw	%cx, %ax
	cmpw	$3032, %ax              # imm = 0xBD8
	jne	.LBB5_101
# %bb.77:                               # %ProcessHoldings.split266
	movl	holding+28, %eax
	movw	$3032, BasicBlockSignatureTracker # imm = 0xBD8
	movw	$0, RunTimeSignatureAdjuster
	cmpl	$0, %eax
	jne	.LBB5_80
# %bb.78:
	movw	BasicBlockSignatureTracker, %ax
	xorw	$5, %ax
	cmpw	$3037, %ax              # imm = 0xBDD
	jne	.LBB5_101
# %bb.79:                               # %ProcessHoldings.split268
	movl	holding+28, %eax
	addl	$1, %eax
	movl	%eax, holding+28
	movl	num_holding, %eax
	addl	$1, %eax
	movl	%eax, num_holding
	movslq	holding+28, %rax
	movl	zobrist+5184(,%rax,4), %eax
	xorl	hold_hash, %eax
	movl	%eax, hold_hash
	movw	$3037, BasicBlockSignatureTracker # imm = 0xBDD
	movw	$5, RunTimeSignatureAdjuster
.LBB5_80:
	movw	BasicBlockSignatureTracker, %ax
	movw	RunTimeSignatureAdjuster, %cx
	xorw	$53, %ax
	xorw	%cx, %ax
	cmpw	$3053, %ax              # imm = 0xBED
	jne	.LBB5_101
# %bb.81:                               # %ProcessHoldings.split270
	movl	holding+44, %eax
	movw	$3053, BasicBlockSignatureTracker # imm = 0xBED
	movw	$0, RunTimeSignatureAdjuster
	cmpl	$0, %eax
	jne	.LBB5_84
# %bb.82:
	movw	BasicBlockSignatureTracker, %ax
	xorw	$2, %ax
	cmpw	$3055, %ax              # imm = 0xBEF
	jne	.LBB5_101
# %bb.83:                               # %ProcessHoldings.split272
	movl	holding+44, %eax
	addl	$1, %eax
	movl	%eax, holding+44
	movl	num_holding, %eax
	addl	$1, %eax
	movl	%eax, num_holding
	movslq	holding+44, %rax
	movl	zobrist+5184(,%rax,4), %eax
	xorl	hold_hash, %eax
	movl	%eax, hold_hash
	movw	$3055, BasicBlockSignatureTracker # imm = 0xBEF
	movw	$2, RunTimeSignatureAdjuster
.LBB5_84:
	movw	BasicBlockSignatureTracker, %ax
	movw	RunTimeSignatureAdjuster, %cx
	xorw	$29, %ax
	xorw	%cx, %ax
	cmpw	$3056, %ax              # imm = 0xBF0
	jne	.LBB5_101
# %bb.85:                               # %ProcessHoldings.split274
	movl	holding+12, %eax
	movw	$3056, BasicBlockSignatureTracker # imm = 0xBF0
	movw	$0, RunTimeSignatureAdjuster
	cmpl	$0, %eax
	jne	.LBB5_88
# %bb.86:
	movw	BasicBlockSignatureTracker, %ax
	xorw	$3, %ax
	cmpw	$3059, %ax              # imm = 0xBF3
	jne	.LBB5_101
# %bb.87:                               # %ProcessHoldings.split276
	movl	holding+12, %eax
	addl	$1, %eax
	movl	%eax, holding+12
	movl	num_holding, %eax
	addl	$1, %eax
	movl	%eax, num_holding
	movslq	holding+12, %rax
	movl	zobrist+5184(,%rax,4), %eax
	xorl	hold_hash, %eax
	movl	%eax, hold_hash
	movw	$3059, BasicBlockSignatureTracker # imm = 0xBF3
	movw	$3, RunTimeSignatureAdjuster
.LBB5_88:
	movw	BasicBlockSignatureTracker, %ax
	movw	RunTimeSignatureAdjuster, %cx
	xorw	$6, %ax
	xorw	%cx, %ax
	cmpw	$3062, %ax              # imm = 0xBF6
	jne	.LBB5_101
# %bb.89:                               # %ProcessHoldings.split278
	movl	holding+4, %eax
	movw	$3062, BasicBlockSignatureTracker # imm = 0xBF6
	movw	$0, RunTimeSignatureAdjuster
	cmpl	$0, %eax
	jne	.LBB5_92
# %bb.90:
	movw	BasicBlockSignatureTracker, %ax
	xorw	$1, %ax
	cmpw	$3063, %ax              # imm = 0xBF7
	jne	.LBB5_101
# %bb.91:                               # %ProcessHoldings.split280
	movl	holding+4, %eax
	addl	$1, %eax
	movl	%eax, holding+4
	movl	num_holding, %eax
	addl	$1, %eax
	movl	%eax, num_holding
	movslq	holding+4, %rax
	movl	zobrist+5184(,%rax,4), %eax
	xorl	hold_hash, %eax
	movl	%eax, hold_hash
	movw	$3063, BasicBlockSignatureTracker # imm = 0xBF7
	movw	$1, RunTimeSignatureAdjuster
.LBB5_92:
	movw	BasicBlockSignatureTracker, %ax
	movw	RunTimeSignatureAdjuster, %cx
	xorw	$11, %ax
	xorw	%cx, %ax
	cmpw	$3069, %ax              # imm = 0xBFD
	jne	.LBB5_101
# %bb.93:                               # %ProcessHoldings.split282
	movw	$3069, BasicBlockSignatureTracker # imm = 0xBFD
	movw	$49, RunTimeSignatureAdjuster
.LBB5_94:
	movw	BasicBlockSignatureTracker, %ax
	movw	RunTimeSignatureAdjuster, %cx
	xorw	$1997, %ax              # imm = 0x7CD
	xorw	%cx, %ax
	cmpw	$3073, %ax              # imm = 0xC01
	jne	.LBB5_101
# %bb.95:                               # %ProcessHoldings.split262
	movw	$3073, BasicBlockSignatureTracker # imm = 0xC01
	movw	$1725, RunTimeSignatureAdjuster # imm = 0x6BD
.LBB5_96:
	movw	BasicBlockSignatureTracker, %ax
	movw	RunTimeSignatureAdjuster, %cx
	xorw	$1693, %ax              # imm = 0x69D
	xorw	%cx, %ax
	cmpw	$3105, %ax              # imm = 0xC21
	jne	.LBB5_101
# %bb.97:                               # %ProcessHoldings.split210
	movw	$3105, BasicBlockSignatureTracker # imm = 0xC21
	movw	$-14808, RunTimeSignatureAdjuster # imm = 0xC628
	leaq	-24(%rbp), %rsp
	popq	%rbx
	popq	%r14
	popq	%r15
	popq	%rbp
	retq
.LBB5_98:                               # %CFerrorHandler.ProcessHoldings.loopexit
	jmp	.LBB5_101
.LBB5_99:                               # %CFerrorHandler.ProcessHoldings.loopexit1
	jmp	.LBB5_101
.LBB5_100:                              # %CFerrorHandler.ProcessHoldings.loopexit2
	jmp	.LBB5_101
.LBB5_101:                              # %CFerrorHandler.ProcessHoldings
	callq	FAULT_DETECTED_CFC
.Lfunc_end5:
	.size	ProcessHoldings, .Lfunc_end5-ProcessHoldings
	.cfi_endproc
	.section	.rodata,"a",@progbits
	.p2align	3
.LJTI5_0:
	.quad	.LBB5_28
	.quad	.LBB5_32
	.quad	.LBB5_32
	.quad	.LBB5_32
	.quad	.LBB5_32
	.quad	.LBB5_32
	.quad	.LBB5_32
	.quad	.LBB5_32
	.quad	.LBB5_32
	.quad	.LBB5_32
	.quad	.LBB5_32
	.quad	.LBB5_32
	.quad	.LBB5_30
	.quad	.LBB5_32
	.quad	.LBB5_22
	.quad	.LBB5_24
	.quad	.LBB5_26
	.quad	.LBB5_32
	.quad	.LBB5_32
	.quad	.LBB5_32
	.quad	.LBB5_32
	.quad	.LBB5_32
	.quad	.LBB5_32
	.quad	.LBB5_32
	.quad	.LBB5_32
	.quad	.LBB5_32
	.quad	.LBB5_32
	.quad	.LBB5_32
	.quad	.LBB5_32
	.quad	.LBB5_32
	.quad	.LBB5_32
	.quad	.LBB5_32
	.quad	.LBB5_28
	.quad	.LBB5_32
	.quad	.LBB5_32
	.quad	.LBB5_32
	.quad	.LBB5_32
	.quad	.LBB5_32
	.quad	.LBB5_32
	.quad	.LBB5_32
	.quad	.LBB5_32
	.quad	.LBB5_32
	.quad	.LBB5_32
	.quad	.LBB5_32
	.quad	.LBB5_30
	.quad	.LBB5_32
	.quad	.LBB5_22
	.quad	.LBB5_24
	.quad	.LBB5_26
                                        # -- End function
	.text
	.globl	text_to_piece           # -- Begin function text_to_piece
	.p2align	4, 0x90
	.type	text_to_piece,@function
text_to_piece:                          # @text_to_piece
	.cfi_startproc
# %bb.0:
	pushq	%rbp
	.cfi_def_cfa_offset 16
	.cfi_offset %rbp, -16
	movq	%rsp, %rbp
	.cfi_def_cfa_register %rbp
	subq	$16, %rsp
	movb	%dil, -1(%rbp)
	movl	%esi, -12(%rbp)
	movsbl	-1(%rbp), %eax
	movw	$3168, BasicBlockSignatureTracker(%rip) # imm = 0xC60
	movw	$0, RunTimeSignatureAdjuster(%rip)
	addl	$-66, %eax
	movl	%eax, %ecx
	subl	$48, %ecx
	ja	.LBB6_12
# %bb.1:
	movq	.LJTI6_0(,%rax,8), %rax
	jmpq	*%rax
.LBB6_2:
	movw	BasicBlockSignatureTracker, %ax
	movw	RunTimeSignatureAdjuster, %cx
	xorw	$5, %ax
	xorw	%cx, %ax
	cmpw	$3173, %ax              # imm = 0xC65
	jne	.LBB6_16
# %bb.3:                                # %text_to_piece.split31
	movl	$2, %eax
	movl	$1, %ecx
	movl	-12(%rbp), %edx
	cmpl	$0, %edx
	cmovel	%ecx, %eax
	movl	%eax, -8(%rbp)
	movw	$3173, BasicBlockSignatureTracker # imm = 0xC65
	movw	$0, RunTimeSignatureAdjuster
	jmp	.LBB6_14
.LBB6_4:
	movw	BasicBlockSignatureTracker, %ax
	movw	RunTimeSignatureAdjuster, %cx
	xorw	$19, %ax
	xorw	%cx, %ax
	cmpw	$3187, %ax              # imm = 0xC73
	jne	.LBB6_16
# %bb.5:                                # %text_to_piece.split33
	movl	$12, %eax
	movl	$11, %ecx
	movl	-12(%rbp), %edx
	cmpl	$0, %edx
	cmovel	%ecx, %eax
	movl	%eax, -8(%rbp)
	movw	$3187, BasicBlockSignatureTracker # imm = 0xC73
	movw	$22, RunTimeSignatureAdjuster
	jmp	.LBB6_14
.LBB6_6:
	movw	BasicBlockSignatureTracker, %ax
	movw	RunTimeSignatureAdjuster, %cx
	xorw	$224, %ax
	xorw	%cx, %ax
	cmpw	$3200, %ax              # imm = 0xC80
	jne	.LBB6_16
# %bb.7:                                # %text_to_piece.split35
	movl	$4, %eax
	movl	$3, %ecx
	movl	-12(%rbp), %edx
	cmpl	$0, %edx
	cmovel	%ecx, %eax
	movl	%eax, -8(%rbp)
	movw	$3200, BasicBlockSignatureTracker # imm = 0xC80
	movw	$229, RunTimeSignatureAdjuster
	jmp	.LBB6_14
.LBB6_8:
	movw	BasicBlockSignatureTracker, %ax
	movw	RunTimeSignatureAdjuster, %cx
	xorw	$231, %ax
	xorw	%cx, %ax
	cmpw	$3207, %ax              # imm = 0xC87
	jne	.LBB6_16
# %bb.9:                                # %text_to_piece.split37
	movl	$8, %eax
	movl	$7, %ecx
	movl	-12(%rbp), %edx
	cmpl	$0, %edx
	cmovel	%ecx, %eax
	movl	%eax, -8(%rbp)
	movw	$3207, BasicBlockSignatureTracker # imm = 0xC87
	movw	$226, RunTimeSignatureAdjuster
	jmp	.LBB6_14
.LBB6_10:
	movw	BasicBlockSignatureTracker, %ax
	movw	RunTimeSignatureAdjuster, %cx
	xorw	$232, %ax
	xorw	%cx, %ax
	cmpw	$3208, %ax              # imm = 0xC88
	jne	.LBB6_16
# %bb.11:                               # %text_to_piece.split39
	movl	$10, %eax
	movl	$9, %ecx
	movl	-12(%rbp), %edx
	cmpl	$0, %edx
	cmovel	%ecx, %eax
	movl	%eax, -8(%rbp)
	movw	$3208, BasicBlockSignatureTracker # imm = 0xC88
	movw	$237, RunTimeSignatureAdjuster
	jmp	.LBB6_14
.LBB6_12:
	movw	BasicBlockSignatureTracker, %ax
	xorw	$244, %ax
	cmpw	$3220, %ax              # imm = 0xC94
	jne	.LBB6_16
# %bb.13:                               # %text_to_piece.split
	movl	$13, -8(%rbp)
	movw	$3220, BasicBlockSignatureTracker # imm = 0xC94
	movw	$241, RunTimeSignatureAdjuster
.LBB6_14:
	movw	BasicBlockSignatureTracker, %ax
	movw	RunTimeSignatureAdjuster, %cx
	xorw	$198, %ax
	xorw	%cx, %ax
	cmpw	$3235, %ax              # imm = 0xCA3
	jne	.LBB6_16
# %bb.15:                               # %text_to_piece.split41
	movl	-8(%rbp), %eax
	movw	$3235, BasicBlockSignatureTracker # imm = 0xCA3
	movw	$0, RunTimeSignatureAdjuster
	addq	$16, %rsp
	popq	%rbp
	retq
.LBB6_16:                               # %CFerrorHandler.text_to_piece
	callq	FAULT_DETECTED_CFC
.Lfunc_end6:
	.size	text_to_piece, .Lfunc_end6-text_to_piece
	.cfi_endproc
	.section	.rodata,"a",@progbits
	.p2align	3
.LJTI6_0:
	.quad	.LBB6_4
	.quad	.LBB6_12
	.quad	.LBB6_12
	.quad	.LBB6_12
	.quad	.LBB6_12
	.quad	.LBB6_12
	.quad	.LBB6_12
	.quad	.LBB6_12
	.quad	.LBB6_12
	.quad	.LBB6_12
	.quad	.LBB6_12
	.quad	.LBB6_12
	.quad	.LBB6_6
	.quad	.LBB6_12
	.quad	.LBB6_2
	.quad	.LBB6_10
	.quad	.LBB6_8
	.quad	.LBB6_12
	.quad	.LBB6_12
	.quad	.LBB6_12
	.quad	.LBB6_12
	.quad	.LBB6_12
	.quad	.LBB6_12
	.quad	.LBB6_12
	.quad	.LBB6_12
	.quad	.LBB6_12
	.quad	.LBB6_12
	.quad	.LBB6_12
	.quad	.LBB6_12
	.quad	.LBB6_12
	.quad	.LBB6_12
	.quad	.LBB6_12
	.quad	.LBB6_4
	.quad	.LBB6_12
	.quad	.LBB6_12
	.quad	.LBB6_12
	.quad	.LBB6_12
	.quad	.LBB6_12
	.quad	.LBB6_12
	.quad	.LBB6_12
	.quad	.LBB6_12
	.quad	.LBB6_12
	.quad	.LBB6_12
	.quad	.LBB6_12
	.quad	.LBB6_6
	.quad	.LBB6_12
	.quad	.LBB6_2
	.quad	.LBB6_10
	.quad	.LBB6_8
                                        # -- End function
	.text
	.globl	SwitchColor             # -- Begin function SwitchColor
	.p2align	4, 0x90
	.type	SwitchColor,@function
SwitchColor:                            # @SwitchColor
	.cfi_startproc
# %bb.0:
	pushq	%rbp
	.cfi_def_cfa_offset 16
	.cfi_offset %rbp, -16
	movq	%rsp, %rbp
	.cfi_def_cfa_register %rbp
	pushq	%r14
	pushq	%rbx
	.cfi_offset %rbx, -32
	.cfi_offset %r14, -24
	movw	BasicBlockSignatureTracker, %ax
	movw	RunTimeSignatureAdjuster, %cx
	xorw	$27068, %ax             # imm = 0x69BC
	xorw	%cx, %ax
	cmpw	$3259, %ax              # imm = 0xCBB
	jne	.LBB7_3
# %bb.1:                                # %SwitchColor.split8
	movw	BasicBlockSignatureTracker, %ax
	movw	RunTimeSignatureAdjuster, %cx
	xorw	$27068, %ax             # imm = 0x69BC
	xorw	%cx, %ax
	cmpw	$3259, %ax              # imm = 0xCBB
	jne	.LBB7_3
# %bb.2:                                # %SwitchColor.split
	movabsq	$.LSwitchColor.t, %rsi
	movq	%rsp, %r14
	addq	$-16, %r14
	movq	%r14, %rsp
	movq	%rsp, %rbx
	addq	$-64, %rbx
	movq	%rbx, %rsp
	movl	%edi, (%r14)
	movq	%rbx, %rdi
	movl	$52, %edx
	callq	memcpy
	movslq	(%r14), %rax
	movl	(%rbx,%rax,4), %eax
	movw	$3259, BasicBlockSignatureTracker # imm = 0xCBB
	movw	$26726, RunTimeSignatureAdjuster # imm = 0x6866
	leaq	-16(%rbp), %rsp
	popq	%rbx
	popq	%r14
	popq	%rbp
	retq
.LBB7_3:                                # %CFerrorHandler.SwitchColor
	callq	FAULT_DETECTED_CFC
.Lfunc_end7:
	.size	SwitchColor, .Lfunc_end7-SwitchColor
	.cfi_endproc
                                        # -- End function
	.globl	SwitchPromoted          # -- Begin function SwitchPromoted
	.p2align	4, 0x90
	.type	SwitchPromoted,@function
SwitchPromoted:                         # @SwitchPromoted
	.cfi_startproc
# %bb.0:
	pushq	%rbp
	.cfi_def_cfa_offset 16
	.cfi_offset %rbp, -16
	movq	%rsp, %rbp
	.cfi_def_cfa_register %rbp
	pushq	%r14
	pushq	%rbx
	.cfi_offset %rbx, -32
	.cfi_offset %r14, -24
	movw	BasicBlockSignatureTracker, %ax
	movw	RunTimeSignatureAdjuster, %cx
	xorw	$26667, %ax             # imm = 0x682B
	xorw	%cx, %ax
	cmpw	$3270, %ax              # imm = 0xCC6
	jne	.LBB8_3
# %bb.1:                                # %SwitchPromoted.split8
	movw	BasicBlockSignatureTracker, %ax
	movw	RunTimeSignatureAdjuster, %cx
	xorw	$26667, %ax             # imm = 0x682B
	xorw	%cx, %ax
	cmpw	$3270, %ax              # imm = 0xCC6
	jne	.LBB8_3
# %bb.2:                                # %SwitchPromoted.split
	movabsq	$.LSwitchPromoted.t, %rsi
	movq	%rsp, %r14
	addq	$-16, %r14
	movq	%r14, %rsp
	movq	%rsp, %rbx
	addq	$-64, %rbx
	movq	%rbx, %rsp
	movl	%edi, (%r14)
	movq	%rbx, %rdi
	movl	$52, %edx
	callq	memcpy
	movslq	(%r14), %rax
	movl	(%rbx,%rax,4), %eax
	movw	$3270, BasicBlockSignatureTracker # imm = 0xCC6
	movw	$26651, RunTimeSignatureAdjuster # imm = 0x681B
	leaq	-16(%rbp), %rsp
	popq	%rbx
	popq	%r14
	popq	%rbp
	retq
.LBB8_3:                                # %CFerrorHandler.SwitchPromoted
	callq	FAULT_DETECTED_CFC
.Lfunc_end8:
	.size	SwitchPromoted, .Lfunc_end8-SwitchPromoted
	.cfi_endproc
                                        # -- End function
	.globl	addHolding              # -- Begin function addHolding
	.p2align	4, 0x90
	.type	addHolding,@function
addHolding:                             # @addHolding
	.cfi_startproc
# %bb.0:
	pushq	%rbp
	.cfi_def_cfa_offset 16
	.cfi_offset %rbp, -16
	movq	%rsp, %rbp
	.cfi_def_cfa_register %rbp
	movw	BasicBlockSignatureTracker, %ax
	movw	RunTimeSignatureAdjuster, %cx
	xorw	$26687, %ax             # imm = 0x683F
	xorw	%cx, %ax
	cmpw	$3282, %ax              # imm = 0xCD2
	jne	.LBB9_15
# %bb.1:                                # %addHolding.split51
	movw	BasicBlockSignatureTracker, %ax
	movw	RunTimeSignatureAdjuster, %cx
	xorw	$26687, %ax             # imm = 0x683F
	xorw	%cx, %ax
	cmpw	$3282, %ax              # imm = 0xCD2
	jne	.LBB9_15
# %bb.2:                                # %addHolding.split49
	movw	BasicBlockSignatureTracker, %ax
	movw	RunTimeSignatureAdjuster, %cx
	xorw	$26687, %ax             # imm = 0x683F
	xorw	%cx, %ax
	cmpw	$3282, %ax              # imm = 0xCD2
	jne	.LBB9_15
# %bb.3:                                # %addHolding.split47
	movw	BasicBlockSignatureTracker, %ax
	movw	RunTimeSignatureAdjuster, %cx
	xorw	$26687, %ax             # imm = 0x683F
	xorw	%cx, %ax
	cmpw	$3282, %ax              # imm = 0xCD2
	jne	.LBB9_15
# %bb.4:                                # %addHolding.split45
	movq	%rsp, %rax
	addq	$-16, %rax
	movq	%rax, %rsp
	movq	%rsp, %rcx
	addq	$-16, %rcx
	movq	%rcx, %rsp
	movl	%edi, (%rax)
	movl	%esi, (%rcx)
	movl	Variant, %edx
	movw	$3282, BasicBlockSignatureTracker # imm = 0xCD2
	movw	$0, RunTimeSignatureAdjuster
	cmpl	$0, %edx
	jne	.LBB9_7
# %bb.5:
	movw	BasicBlockSignatureTracker, %dx
	xorw	$7, %dx
	cmpw	$3285, %dx              # imm = 0xCD5
	jne	.LBB9_15
# %bb.6:                                # %addHolding.split
	movabsq	$holding, %r9
	movabsq	$zobrist, %r8
	movslq	(%rcx), %rdi
	shlq	$6, %rdi
	movq	%r9, %rdx
	addq	%rdi, %rdx
	movslq	(%rax), %rdi
	movl	(%rdx,%rdi,4), %esi
	addl	$1, %esi
	movl	%esi, (%rdx,%rdi,4)
	movslq	(%rcx), %rdx
	movl	num_holding(,%rdx,4), %esi
	addl	$1, %esi
	movl	%esi, num_holding(,%rdx,4)
	movslq	(%rax), %rdx
	imulq	$576, %rdx, %rdx        # imm = 0x240
	addq	%rdx, %r8
	movslq	(%rcx), %rdx
	shlq	$6, %rdx
	addq	%rdx, %r9
	movslq	(%rax), %rdx
	movslq	(%r9,%rdx,4), %rdx
	movl	(%r8,%rdx,4), %edx
	xorl	hold_hash, %edx
	movl	%edx, hold_hash
	movw	$3285, BasicBlockSignatureTracker # imm = 0xCD5
	movw	$7, RunTimeSignatureAdjuster
.LBB9_7:
	movw	BasicBlockSignatureTracker, %dx
	movw	RunTimeSignatureAdjuster, %si
	xorw	$60, %dx
	xorw	%si, %dx
	cmpw	$3310, %dx              # imm = 0xCEE
	jne	.LBB9_15
# %bb.8:                                # %addHolding.split37
	movl	(%rcx), %ecx
	movw	$3310, BasicBlockSignatureTracker # imm = 0xCEE
	movw	$0, RunTimeSignatureAdjuster
	cmpl	$0, %ecx
	jne	.LBB9_11
# %bb.9:
	movw	BasicBlockSignatureTracker, %cx
	xorw	$25, %cx
	cmpw	$3319, %cx              # imm = 0xCF7
	jne	.LBB9_15
# %bb.10:                               # %addHolding.split39
	movslq	(%rax), %rcx
	movl	hand_value(,%rcx,4), %ecx
	addl	white_hand_eval, %ecx
	movl	%ecx, white_hand_eval
	movw	$3319, BasicBlockSignatureTracker # imm = 0xCF7
	movw	$0, RunTimeSignatureAdjuster
	jmp	.LBB9_13
.LBB9_11:
	movw	BasicBlockSignatureTracker, %cx
	xorw	$20, %cx
	cmpw	$3322, %cx              # imm = 0xCFA
	jne	.LBB9_15
# %bb.12:                               # %addHolding.split41
	movslq	(%rax), %rcx
	movl	hand_value(,%rcx,4), %ecx
	addl	black_hand_eval, %ecx
	movl	%ecx, black_hand_eval
	movw	$3322, BasicBlockSignatureTracker # imm = 0xCFA
	movw	$13, RunTimeSignatureAdjuster
.LBB9_13:
	movw	BasicBlockSignatureTracker, %cx
	movw	RunTimeSignatureAdjuster, %dx
	xorw	$9, %cx
	xorw	%dx, %cx
	cmpw	$3326, %cx              # imm = 0xCFE
	jne	.LBB9_15
# %bb.14:                               # %addHolding.split43
	movslq	(%rax), %rax
	movl	material(,%rax,4), %eax
	addl	Material, %eax
	movl	%eax, Material
	movw	$3326, BasicBlockSignatureTracker # imm = 0xCFE
	movw	$26659, RunTimeSignatureAdjuster # imm = 0x6823
	movq	%rbp, %rsp
	popq	%rbp
	retq
.LBB9_15:                               # %CFerrorHandler.addHolding
	callq	FAULT_DETECTED_CFC
.Lfunc_end9:
	.size	addHolding, .Lfunc_end9-addHolding
	.cfi_endproc
                                        # -- End function
	.globl	removeHolding           # -- Begin function removeHolding
	.p2align	4, 0x90
	.type	removeHolding,@function
removeHolding:                          # @removeHolding
	.cfi_startproc
# %bb.0:
	pushq	%rbp
	.cfi_def_cfa_offset 16
	.cfi_offset %rbp, -16
	movq	%rsp, %rbp
	.cfi_def_cfa_register %rbp
	movw	BasicBlockSignatureTracker, %ax
	movw	RunTimeSignatureAdjuster, %cx
	xorw	$27633, %ax             # imm = 0x6BF1
	xorw	%cx, %ax
	cmpw	$3400, %ax              # imm = 0xD48
	jne	.LBB10_15
# %bb.1:                                # %removeHolding.split51
	movw	BasicBlockSignatureTracker, %ax
	movw	RunTimeSignatureAdjuster, %cx
	xorw	$27633, %ax             # imm = 0x6BF1
	xorw	%cx, %ax
	cmpw	$3400, %ax              # imm = 0xD48
	jne	.LBB10_15
# %bb.2:                                # %removeHolding.split49
	movw	BasicBlockSignatureTracker, %ax
	movw	RunTimeSignatureAdjuster, %cx
	xorw	$27633, %ax             # imm = 0x6BF1
	xorw	%cx, %ax
	cmpw	$3400, %ax              # imm = 0xD48
	jne	.LBB10_15
# %bb.3:                                # %removeHolding.split47
	movw	BasicBlockSignatureTracker, %ax
	movw	RunTimeSignatureAdjuster, %cx
	xorw	$27633, %ax             # imm = 0x6BF1
	xorw	%cx, %ax
	cmpw	$3400, %ax              # imm = 0xD48
	jne	.LBB10_15
# %bb.4:                                # %removeHolding.split45
	movq	%rsp, %rax
	addq	$-16, %rax
	movq	%rax, %rsp
	movq	%rsp, %rcx
	addq	$-16, %rcx
	movq	%rcx, %rsp
	movl	%edi, (%rax)
	movl	%esi, (%rcx)
	movl	Variant, %edx
	movw	$3400, BasicBlockSignatureTracker # imm = 0xD48
	movw	$0, RunTimeSignatureAdjuster
	cmpl	$0, %edx
	jne	.LBB10_7
# %bb.5:
	movw	BasicBlockSignatureTracker, %dx
	xorw	$6, %dx
	cmpw	$3406, %dx              # imm = 0xD4E
	jne	.LBB10_15
# %bb.6:                                # %removeHolding.split
	movabsq	$holding, %rsi
	movabsq	$zobrist, %r8
	movslq	(%rax), %rdi
	imulq	$576, %rdi, %rdi        # imm = 0x240
	addq	%rdi, %r8
	movslq	(%rcx), %rdi
	shlq	$6, %rdi
	movq	%rsi, %rdx
	addq	%rdi, %rdx
	movslq	(%rax), %rdi
	movslq	(%rdx,%rdi,4), %rdx
	movl	(%r8,%rdx,4), %edx
	xorl	hold_hash, %edx
	movl	%edx, hold_hash
	movslq	(%rcx), %rdx
	shlq	$6, %rdx
	addq	%rdx, %rsi
	movslq	(%rax), %rdx
	movl	(%rsi,%rdx,4), %edi
	addl	$-1, %edi
	movl	%edi, (%rsi,%rdx,4)
	movslq	(%rcx), %rdx
	movl	num_holding(,%rdx,4), %esi
	addl	$-1, %esi
	movl	%esi, num_holding(,%rdx,4)
	movw	$3406, BasicBlockSignatureTracker # imm = 0xD4E
	movw	$6, RunTimeSignatureAdjuster
.LBB10_7:
	movw	BasicBlockSignatureTracker, %dx
	movw	RunTimeSignatureAdjuster, %si
	xorw	$19, %dx
	xorw	%si, %dx
	cmpw	$3419, %dx              # imm = 0xD5B
	jne	.LBB10_15
# %bb.8:                                # %removeHolding.split37
	movl	(%rcx), %ecx
	movw	$3419, BasicBlockSignatureTracker # imm = 0xD5B
	movw	$0, RunTimeSignatureAdjuster
	cmpl	$0, %ecx
	jne	.LBB10_11
# %bb.9:
	movw	BasicBlockSignatureTracker, %cx
	xorw	$63, %cx
	cmpw	$3428, %cx              # imm = 0xD64
	jne	.LBB10_15
# %bb.10:                               # %removeHolding.split39
	movslq	(%rax), %rcx
	movl	hand_value(,%rcx,4), %ecx
	movl	white_hand_eval, %edx
	subl	%ecx, %edx
	movl	%edx, white_hand_eval
	movw	$3428, BasicBlockSignatureTracker # imm = 0xD64
	movw	$0, RunTimeSignatureAdjuster
	jmp	.LBB10_13
.LBB10_11:
	movw	BasicBlockSignatureTracker, %cx
	xorw	$62, %cx
	cmpw	$3429, %cx              # imm = 0xD65
	jne	.LBB10_15
# %bb.12:                               # %removeHolding.split41
	movslq	(%rax), %rcx
	movl	hand_value(,%rcx,4), %ecx
	movl	black_hand_eval, %edx
	subl	%ecx, %edx
	movl	%edx, black_hand_eval
	movw	$3429, BasicBlockSignatureTracker # imm = 0xD65
	movw	$1, RunTimeSignatureAdjuster
.LBB10_13:
	movw	BasicBlockSignatureTracker, %cx
	movw	RunTimeSignatureAdjuster, %dx
	xorw	$15, %cx
	xorw	%dx, %cx
	cmpw	$3435, %cx              # imm = 0xD6B
	jne	.LBB10_15
# %bb.14:                               # %removeHolding.split43
	movslq	(%rax), %rax
	movl	material(,%rax,4), %eax
	movl	Material, %ecx
	subl	%eax, %ecx
	movl	%ecx, Material
	movw	$3435, BasicBlockSignatureTracker # imm = 0xD6B
	movw	$27603, RunTimeSignatureAdjuster # imm = 0x6BD3
	movq	%rbp, %rsp
	popq	%rbp
	retq
.LBB10_15:                              # %CFerrorHandler.removeHolding
	callq	FAULT_DETECTED_CFC
.Lfunc_end10:
	.size	removeHolding, .Lfunc_end10-removeHolding
	.cfi_endproc
                                        # -- End function
	.globl	DropaddHolding          # -- Begin function DropaddHolding
	.p2align	4, 0x90
	.type	DropaddHolding,@function
DropaddHolding:                         # @DropaddHolding
	.cfi_startproc
# %bb.0:
	pushq	%rbp
	.cfi_def_cfa_offset 16
	.cfi_offset %rbp, -16
	movq	%rsp, %rbp
	.cfi_def_cfa_register %rbp
	movw	BasicBlockSignatureTracker, %ax
	movw	RunTimeSignatureAdjuster, %cx
	xorw	$27408, %ax             # imm = 0x6B10
	xorw	%cx, %ax
	cmpw	$3484, %ax              # imm = 0xD9C
	jne	.LBB11_13
# %bb.1:                                # %DropaddHolding.split53
	movw	BasicBlockSignatureTracker, %ax
	movw	RunTimeSignatureAdjuster, %cx
	xorw	$27408, %ax             # imm = 0x6B10
	xorw	%cx, %ax
	cmpw	$3484, %ax              # imm = 0xD9C
	jne	.LBB11_13
# %bb.2:                                # %DropaddHolding.split51
	movw	BasicBlockSignatureTracker, %ax
	movw	RunTimeSignatureAdjuster, %cx
	xorw	$27408, %ax             # imm = 0x6B10
	xorw	%cx, %ax
	cmpw	$3484, %ax              # imm = 0xD9C
	jne	.LBB11_13
# %bb.3:                                # %DropaddHolding.split49
	movw	BasicBlockSignatureTracker, %ax
	movw	RunTimeSignatureAdjuster, %cx
	xorw	$27408, %ax             # imm = 0x6B10
	xorw	%cx, %ax
	cmpw	$3484, %ax              # imm = 0xD9C
	jne	.LBB11_13
# %bb.4:                                # %DropaddHolding.split47
	movw	BasicBlockSignatureTracker, %ax
	movw	RunTimeSignatureAdjuster, %cx
	xorw	$27408, %ax             # imm = 0x6B10
	xorw	%cx, %ax
	cmpw	$3484, %ax              # imm = 0xD9C
	jne	.LBB11_13
# %bb.5:                                # %DropaddHolding.split45
	movw	BasicBlockSignatureTracker, %ax
	movw	RunTimeSignatureAdjuster, %cx
	xorw	$27408, %ax             # imm = 0x6B10
	xorw	%cx, %ax
	cmpw	$3484, %ax              # imm = 0xD9C
	jne	.LBB11_13
# %bb.6:                                # %DropaddHolding.split43
	movabsq	$holding, %r9
	movabsq	$zobrist, %r8
	movq	%rsp, %rax
	addq	$-16, %rax
	movq	%rax, %rsp
	movq	%rsp, %rdx
	addq	$-16, %rdx
	movq	%rdx, %rsp
	movl	%edi, (%rax)
	movl	%esi, (%rdx)
	movslq	(%rdx), %rsi
	shlq	$6, %rsi
	movq	%r9, %rdi
	addq	%rsi, %rdi
	movslq	(%rax), %rsi
	movl	(%rdi,%rsi,4), %ecx
	addl	$1, %ecx
	movl	%ecx, (%rdi,%rsi,4)
	movslq	(%rdx), %rcx
	movl	num_holding(,%rcx,4), %esi
	addl	$1, %esi
	movl	%esi, num_holding(,%rcx,4)
	movslq	(%rax), %rcx
	imulq	$576, %rcx, %rcx        # imm = 0x240
	addq	%rcx, %r8
	movslq	(%rdx), %rcx
	shlq	$6, %rcx
	addq	%rcx, %r9
	movslq	(%rax), %rcx
	movslq	(%r9,%rcx,4), %rcx
	movl	(%r8,%rcx,4), %ecx
	xorl	hold_hash, %ecx
	movl	%ecx, hold_hash
	movl	(%rdx), %ecx
	movw	$3484, BasicBlockSignatureTracker # imm = 0xD9C
	movw	$0, RunTimeSignatureAdjuster
	cmpl	$0, %ecx
	jne	.LBB11_9
# %bb.7:
	movw	BasicBlockSignatureTracker, %cx
	xorw	$56, %cx
	cmpw	$3492, %cx              # imm = 0xDA4
	jne	.LBB11_13
# %bb.8:                                # %DropaddHolding.split
	movslq	(%rax), %rcx
	movl	hand_value(,%rcx,4), %ecx
	addl	white_hand_eval, %ecx
	movl	%ecx, white_hand_eval
	movw	$3492, BasicBlockSignatureTracker # imm = 0xDA4
	movw	$0, RunTimeSignatureAdjuster
	jmp	.LBB11_11
.LBB11_9:
	movw	BasicBlockSignatureTracker, %cx
	xorw	$34, %cx
	cmpw	$3518, %cx              # imm = 0xDBE
	jne	.LBB11_13
# %bb.10:                               # %DropaddHolding.split39
	movslq	(%rax), %rcx
	movl	hand_value(,%rcx,4), %ecx
	addl	black_hand_eval, %ecx
	movl	%ecx, black_hand_eval
	movw	$3518, BasicBlockSignatureTracker # imm = 0xDBE
	movw	$26, RunTimeSignatureAdjuster
.LBB11_11:
	movw	BasicBlockSignatureTracker, %cx
	movw	RunTimeSignatureAdjuster, %dx
	xorw	$103, %cx
	xorw	%dx, %cx
	cmpw	$3523, %cx              # imm = 0xDC3
	jne	.LBB11_13
# %bb.12:                               # %DropaddHolding.split41
	movslq	(%rax), %rax
	movl	material(,%rax,4), %eax
	addl	Material, %eax
	movl	%eax, Material
	movw	$3523, BasicBlockSignatureTracker # imm = 0xDC3
	movw	$27459, RunTimeSignatureAdjuster # imm = 0x6B43
	movq	%rbp, %rsp
	popq	%rbp
	retq
.LBB11_13:                              # %CFerrorHandler.DropaddHolding
	callq	FAULT_DETECTED_CFC
.Lfunc_end11:
	.size	DropaddHolding, .Lfunc_end11-DropaddHolding
	.cfi_endproc
                                        # -- End function
	.globl	DropremoveHolding       # -- Begin function DropremoveHolding
	.p2align	4, 0x90
	.type	DropremoveHolding,@function
DropremoveHolding:                      # @DropremoveHolding
	.cfi_startproc
# %bb.0:
	pushq	%rbp
	.cfi_def_cfa_offset 16
	.cfi_offset %rbp, -16
	movq	%rsp, %rbp
	.cfi_def_cfa_register %rbp
	movw	BasicBlockSignatureTracker, %ax
	movw	RunTimeSignatureAdjuster, %cx
	xorw	$26968, %ax             # imm = 0x6958
	xorw	%cx, %ax
	cmpw	$3574, %ax              # imm = 0xDF6
	jne	.LBB12_13
# %bb.1:                                # %DropremoveHolding.split53
	movw	BasicBlockSignatureTracker, %ax
	movw	RunTimeSignatureAdjuster, %cx
	xorw	$26968, %ax             # imm = 0x6958
	xorw	%cx, %ax
	cmpw	$3574, %ax              # imm = 0xDF6
	jne	.LBB12_13
# %bb.2:                                # %DropremoveHolding.split51
	movw	BasicBlockSignatureTracker, %ax
	movw	RunTimeSignatureAdjuster, %cx
	xorw	$26968, %ax             # imm = 0x6958
	xorw	%cx, %ax
	cmpw	$3574, %ax              # imm = 0xDF6
	jne	.LBB12_13
# %bb.3:                                # %DropremoveHolding.split49
	movw	BasicBlockSignatureTracker, %ax
	movw	RunTimeSignatureAdjuster, %cx
	xorw	$26968, %ax             # imm = 0x6958
	xorw	%cx, %ax
	cmpw	$3574, %ax              # imm = 0xDF6
	jne	.LBB12_13
# %bb.4:                                # %DropremoveHolding.split47
	movw	BasicBlockSignatureTracker, %ax
	movw	RunTimeSignatureAdjuster, %cx
	xorw	$26968, %ax             # imm = 0x6958
	xorw	%cx, %ax
	cmpw	$3574, %ax              # imm = 0xDF6
	jne	.LBB12_13
# %bb.5:                                # %DropremoveHolding.split45
	movw	BasicBlockSignatureTracker, %ax
	movw	RunTimeSignatureAdjuster, %cx
	xorw	$26968, %ax             # imm = 0x6958
	xorw	%cx, %ax
	cmpw	$3574, %ax              # imm = 0xDF6
	jne	.LBB12_13
# %bb.6:                                # %DropremoveHolding.split43
	movabsq	$holding, %rcx
	movabsq	$zobrist, %rax
	movq	%rsp, %r8
	addq	$-16, %r8
	movq	%r8, %rsp
	movq	%rsp, %rdx
	addq	$-16, %rdx
	movq	%rdx, %rsp
	movl	%edi, (%r8)
	movl	%esi, (%rdx)
	movslq	(%r8), %rsi
	imulq	$576, %rsi, %rsi        # imm = 0x240
	addq	%rsi, %rax
	movslq	(%rdx), %rsi
	shlq	$6, %rsi
	movq	%rcx, %rdi
	addq	%rsi, %rdi
	movslq	(%r8), %rsi
	movslq	(%rdi,%rsi,4), %rsi
	movl	(%rax,%rsi,4), %eax
	xorl	hold_hash, %eax
	movl	%eax, hold_hash
	movslq	(%rdx), %rax
	shlq	$6, %rax
	addq	%rax, %rcx
	movslq	(%r8), %rax
	movl	(%rcx,%rax,4), %esi
	addl	$-1, %esi
	movl	%esi, (%rcx,%rax,4)
	movslq	(%rdx), %rax
	movl	num_holding(,%rax,4), %ecx
	addl	$-1, %ecx
	movl	%ecx, num_holding(,%rax,4)
	movl	(%rdx), %eax
	movw	$3574, BasicBlockSignatureTracker # imm = 0xDF6
	movw	$0, RunTimeSignatureAdjuster
	cmpl	$0, %eax
	jne	.LBB12_9
# %bb.7:
	movw	BasicBlockSignatureTracker, %ax
	xorw	$11, %ax
	cmpw	$3581, %ax              # imm = 0xDFD
	jne	.LBB12_13
# %bb.8:                                # %DropremoveHolding.split
	movslq	(%r8), %rax
	movl	hand_value(,%rax,4), %eax
	movl	white_hand_eval, %ecx
	subl	%eax, %ecx
	movl	%ecx, white_hand_eval
	movw	$3581, BasicBlockSignatureTracker # imm = 0xDFD
	movw	$0, RunTimeSignatureAdjuster
	jmp	.LBB12_11
.LBB12_9:
	movw	BasicBlockSignatureTracker, %ax
	xorw	$1013, %ax              # imm = 0x3F5
	cmpw	$3587, %ax              # imm = 0xE03
	jne	.LBB12_13
# %bb.10:                               # %DropremoveHolding.split39
	movslq	(%r8), %rax
	movl	hand_value(,%rax,4), %eax
	movl	black_hand_eval, %ecx
	subl	%eax, %ecx
	movl	%ecx, black_hand_eval
	movw	$3587, BasicBlockSignatureTracker # imm = 0xE03
	movw	$1022, RunTimeSignatureAdjuster # imm = 0x3FE
.LBB12_11:
	movw	BasicBlockSignatureTracker, %ax
	movw	RunTimeSignatureAdjuster, %cx
	xorw	$972, %ax               # imm = 0x3CC
	xorw	%cx, %ax
	cmpw	$3633, %ax              # imm = 0xE31
	jne	.LBB12_13
# %bb.12:                               # %DropremoveHolding.split41
	movslq	(%r8), %rax
	movl	material(,%rax,4), %eax
	movl	Material, %ecx
	subl	%eax, %ecx
	movl	%ecx, Material
	movw	$3633, BasicBlockSignatureTracker # imm = 0xE31
	movw	$27284, RunTimeSignatureAdjuster # imm = 0x6A94
	movq	%rbp, %rsp
	popq	%rbp
	retq
.LBB12_13:                              # %CFerrorHandler.DropremoveHolding
	callq	FAULT_DETECTED_CFC
.Lfunc_end12:
	.size	DropremoveHolding, .Lfunc_end12-DropremoveHolding
	.cfi_endproc
                                        # -- End function
	.globl	printHolding            # -- Begin function printHolding
	.p2align	4, 0x90
	.type	printHolding,@function
printHolding:                           # @printHolding
	.cfi_startproc
# %bb.0:
	pushq	%rbp
	.cfi_def_cfa_offset 16
	.cfi_offset %rbp, -16
	movq	%rsp, %rbp
	.cfi_def_cfa_register %rbp
	movabsq	$.L.str, %rdi
	movl	holding+4, %esi
	movl	holding+28, %edx
	movl	holding+44, %ecx
	movl	holding+12, %r8d
	movl	holding+36, %r9d
	movb	$0, %al
	callq	printf
	movabsq	$.L.str.1, %rdi
	movl	holding+72, %esi
	movl	holding+96, %edx
	movl	holding+112, %ecx
	movl	holding+80, %r8d
	movl	holding+104, %r9d
	movb	$0, %al
	callq	printf
	movw	$3655, BasicBlockSignatureTracker # imm = 0xE47
	movw	$0, RunTimeSignatureAdjuster
	popq	%rbp
	retq
.Lfunc_end13:
	.size	printHolding, .Lfunc_end13-printHolding
	.cfi_endproc
                                        # -- End function
	.globl	is_draw                 # -- Begin function is_draw
	.p2align	4, 0x90
	.type	is_draw,@function
is_draw:                                # @is_draw
	.cfi_startproc
# %bb.0:
	pushq	%rbp
	.cfi_def_cfa_offset 16
	.cfi_offset %rbp, -16
	movq	%rsp, %rbp
	.cfi_def_cfa_register %rbp
	movw	BasicBlockSignatureTracker, %ax
	movw	RunTimeSignatureAdjuster, %cx
	xorw	$-26856, %ax            # imm = 0x9718
	xorw	%cx, %ax
	cmpw	$3706, %ax              # imm = 0xE7A
	jne	.LBB14_59
# %bb.1:                                # %is_draw.split170
	movw	BasicBlockSignatureTracker, %ax
	movw	RunTimeSignatureAdjuster, %cx
	xorw	$-26856, %ax            # imm = 0x9718
	xorw	%cx, %ax
	cmpw	$3706, %ax              # imm = 0xE7A
	jne	.LBB14_59
# %bb.2:                                # %is_draw.split168
	movw	BasicBlockSignatureTracker, %ax
	movw	RunTimeSignatureAdjuster, %cx
	xorw	$-26856, %ax            # imm = 0x9718
	xorw	%cx, %ax
	cmpw	$3706, %ax              # imm = 0xE7A
	jne	.LBB14_59
# %bb.3:                                # %is_draw.split166
	movw	BasicBlockSignatureTracker, %ax
	movw	RunTimeSignatureAdjuster, %cx
	xorw	$-26856, %ax            # imm = 0x9718
	xorw	%cx, %ax
	cmpw	$3706, %ax              # imm = 0xE7A
	jne	.LBB14_59
# %bb.4:                                # %is_draw.split164
	movq	%rsp, %r8
	addq	$-16, %r8
	movq	%r8, %rsp
	movq	%rsp, %r9
	addq	$-16, %r9
	movq	%r9, %rsp
	movq	%rsp, %rdi
	addq	$-16, %rdi
	movq	%rdi, %rsp
	movq	%rsp, %rcx
	addq	$-16, %rcx
	movq	%rcx, %rsp
	movq	%rsp, %rsi
	addq	$-16, %rsi
	movq	%rsi, %rsp
	movl	$0, (%rdi)
	movl	fifty, %eax
	movw	$3706, BasicBlockSignatureTracker # imm = 0xE7A
	movw	$0, RunTimeSignatureAdjuster
	cmpl	$4, %eax
	jl	.LBB14_29
# %bb.5:
	movw	BasicBlockSignatureTracker, %ax
	xorw	$1, %ax
	cmpw	$3707, %ax              # imm = 0xE7B
	jne	.LBB14_59
# %bb.6:                                # %is_draw.split
	movl	move_number, %eax
	movl	move_number, %edx
	addl	ply, %edx
	subl	$1, %edx
	subl	fifty, %edx
	movw	$3707, BasicBlockSignatureTracker # imm = 0xE7B
	movw	$0, RunTimeSignatureAdjuster
	cmpl	%edx, %eax
	jge	.LBB14_9
# %bb.7:
	movw	BasicBlockSignatureTracker, %ax
	xorw	$229, %ax
	cmpw	$3742, %ax              # imm = 0xE9E
	jne	.LBB14_59
# %bb.8:                                # %is_draw.split116
	movl	move_number, %eax
	addl	ply, %eax
	subl	$1, %eax
	subl	fifty, %eax
	movl	%eax, (%rcx)
	movw	$3742, BasicBlockSignatureTracker # imm = 0xE9E
	movw	$0, RunTimeSignatureAdjuster
	jmp	.LBB14_11
.LBB14_9:
	movw	BasicBlockSignatureTracker, %ax
	xorw	$222, %ax
	cmpw	$3749, %ax              # imm = 0xEA5
	jne	.LBB14_59
# %bb.10:                               # %is_draw.split118
	movl	move_number, %eax
	movl	%eax, (%rcx)
	movw	$3749, BasicBlockSignatureTracker # imm = 0xEA5
	movw	$59, RunTimeSignatureAdjuster
.LBB14_11:
	movw	BasicBlockSignatureTracker, %ax
	movw	RunTimeSignatureAdjuster, %dx
	xorw	$53, %ax
	xorw	%dx, %ax
	cmpw	$3755, %ax              # imm = 0xEAB
	jne	.LBB14_59
# %bb.12:                               # %is_draw.split120
	movl	move_number, %eax
	addl	ply, %eax
	subl	$3, %eax
	movl	%eax, (%r9)
	movw	$3755, BasicBlockSignatureTracker # imm = 0xEAB
	movw	$0, RunTimeSignatureAdjuster
.LBB14_13:                              # =>This Inner Loop Header: Depth=1
	movw	BasicBlockSignatureTracker, %ax
	movw	RunTimeSignatureAdjuster, %dx
	xorw	$27, %ax
	xorw	%dx, %ax
	cmpw	$3760, %ax              # imm = 0xEB0
	jne	.LBB14_58
# %bb.14:                               # %is_draw.split122
                                        #   in Loop: Header=BB14_13 Depth=1
	xorl	%r10d, %r10d
	movl	(%r9), %edx
	movw	$3760, BasicBlockSignatureTracker # imm = 0xEB0
	movw	$0, RunTimeSignatureAdjuster
	cmpl	$0, %edx
	jl	.LBB14_17
# %bb.15:                               #   in Loop: Header=BB14_13 Depth=1
	movw	BasicBlockSignatureTracker, %ax
	xorw	$8, %ax
	cmpw	$3768, %ax              # imm = 0xEB8
	jne	.LBB14_58
# %bb.16:                               # %is_draw.split124
                                        #   in Loop: Header=BB14_13 Depth=1
	movl	(%r9), %eax
	cmpl	(%rcx), %eax
	setge	%r10b
	movw	$3768, BasicBlockSignatureTracker # imm = 0xEB8
	movw	$8, RunTimeSignatureAdjuster
.LBB14_17:                              #   in Loop: Header=BB14_13 Depth=1
	movw	BasicBlockSignatureTracker, %dx
	movw	RunTimeSignatureAdjuster, %ax
	xorw	$122, %dx
	xorw	%ax, %dx
	cmpw	$3786, %dx              # imm = 0xECA
	jne	.LBB14_58
# %bb.18:                               # %is_draw.split126
                                        #   in Loop: Header=BB14_13 Depth=1
	movw	$3786, BasicBlockSignatureTracker # imm = 0xECA
	movw	$0, RunTimeSignatureAdjuster
	testb	$1, %r10b
	jne	.LBB14_19
	jmp	.LBB14_27
.LBB14_19:                              #   in Loop: Header=BB14_13 Depth=1
	movw	BasicBlockSignatureTracker, %ax
	xorw	$17, %ax
	cmpw	$3803, %ax              # imm = 0xEDB
	jne	.LBB14_58
# %bb.20:                               # %is_draw.split128
                                        #   in Loop: Header=BB14_13 Depth=1
	movl	hash, %eax
	movslq	(%r9), %rdx
	movl	hash_history(,%rdx,4), %edx
	movw	$3803, BasicBlockSignatureTracker # imm = 0xEDB
	movw	$0, RunTimeSignatureAdjuster
	cmpl	%edx, %eax
	jne	.LBB14_23
# %bb.21:
	movw	BasicBlockSignatureTracker, %ax
	xorw	$5, %ax
	cmpw	$3806, %ax              # imm = 0xEDE
	jne	.LBB14_59
# %bb.22:                               # %is_draw.split132
	movl	$1, (%r8)
	movw	$3806, BasicBlockSignatureTracker # imm = 0xEDE
	movw	$0, RunTimeSignatureAdjuster
	jmp	.LBB14_55
.LBB14_23:                              #   in Loop: Header=BB14_13 Depth=1
	movw	BasicBlockSignatureTracker, %ax
	xorw	$57, %ax
	cmpw	$3810, %ax              # imm = 0xEE2
	jne	.LBB14_58
# %bb.24:                               # %is_draw.split134
                                        #   in Loop: Header=BB14_13 Depth=1
	movw	$3810, BasicBlockSignatureTracker # imm = 0xEE2
	movw	$0, RunTimeSignatureAdjuster
# %bb.25:                               #   in Loop: Header=BB14_13 Depth=1
	movw	BasicBlockSignatureTracker, %ax
	xorw	$1, %ax
	cmpw	$3811, %ax              # imm = 0xEE3
	jne	.LBB14_58
# %bb.26:                               # %is_draw.split138
                                        #   in Loop: Header=BB14_13 Depth=1
	movl	(%r9), %eax
	subl	$2, %eax
	movl	%eax, (%r9)
	movw	$3811, BasicBlockSignatureTracker # imm = 0xEE3
	movw	$72, RunTimeSignatureAdjuster
	jmp	.LBB14_13
.LBB14_27:
	movw	BasicBlockSignatureTracker, %ax
	xorw	$35, %ax
	cmpw	$3817, %ax              # imm = 0xEE9
	jne	.LBB14_59
# %bb.28:                               # %is_draw.split130
	movw	$3817, BasicBlockSignatureTracker # imm = 0xEE9
	movw	$147, RunTimeSignatureAdjuster
.LBB14_29:
	movw	BasicBlockSignatureTracker, %ax
	movw	RunTimeSignatureAdjuster, %dx
	xorw	$143, %ax
	xorw	%dx, %ax
	cmpw	$3829, %ax              # imm = 0xEF5
	jne	.LBB14_59
# %bb.30:                               # %is_draw.split114
	movl	fifty, %eax
	movw	$3829, BasicBlockSignatureTracker # imm = 0xEF5
	movw	$0, RunTimeSignatureAdjuster
	cmpl	$6, %eax
	jl	.LBB14_53
# %bb.31:
	movw	BasicBlockSignatureTracker, %ax
	xorw	$2, %ax
	cmpw	$3831, %ax              # imm = 0xEF7
	jne	.LBB14_59
# %bb.32:                               # %is_draw.split140
	movl	$2, %r10d
	movl	move_number, %r11d
	subl	$1, %r11d
	movl	ply, %eax
	cltd
	idivl	%r10d
	subl	%edx, %r11d
	movl	%r11d, (%rsi)
	movl	move_number, %eax
	addl	ply, %eax
	subl	$1, %eax
	subl	fifty, %eax
	movl	%eax, (%rcx)
	movl	(%rsi), %eax
	movl	%eax, (%r9)
	movw	$3831, BasicBlockSignatureTracker # imm = 0xEF7
	movw	$0, RunTimeSignatureAdjuster
.LBB14_33:                              # =>This Inner Loop Header: Depth=1
	movw	BasicBlockSignatureTracker, %ax
	movw	RunTimeSignatureAdjuster, %dx
	xorw	$14, %ax
	xorw	%dx, %ax
	cmpw	$3833, %ax              # imm = 0xEF9
	jne	.LBB14_57
# %bb.34:                               # %is_draw.split144
                                        #   in Loop: Header=BB14_33 Depth=1
	xorl	%eax, %eax
	movl	(%r9), %edx
	movw	$3833, BasicBlockSignatureTracker # imm = 0xEF9
	movw	$0, RunTimeSignatureAdjuster
	cmpl	$0, %edx
	jl	.LBB14_37
# %bb.35:                               #   in Loop: Header=BB14_33 Depth=1
	movw	BasicBlockSignatureTracker, %ax
	xorw	$508, %ax               # imm = 0x1FC
	cmpw	$3845, %ax              # imm = 0xF05
	jne	.LBB14_57
# %bb.36:                               # %is_draw.split146
                                        #   in Loop: Header=BB14_33 Depth=1
	movl	(%r9), %eax
	cmpl	(%rcx), %eax
	setge	%al
	movw	$3845, BasicBlockSignatureTracker # imm = 0xF05
	movw	$508, RunTimeSignatureAdjuster # imm = 0x1FC
.LBB14_37:                              #   in Loop: Header=BB14_33 Depth=1
	movw	BasicBlockSignatureTracker, %dx
	movw	RunTimeSignatureAdjuster, %si
	xorw	$494, %dx               # imm = 0x1EE
	xorw	%si, %dx
	cmpw	$3863, %dx              # imm = 0xF17
	jne	.LBB14_57
# %bb.38:                               # %is_draw.split148
                                        #   in Loop: Header=BB14_33 Depth=1
	movw	$3863, BasicBlockSignatureTracker # imm = 0xF17
	movw	$0, RunTimeSignatureAdjuster
	testb	$1, %al
	jne	.LBB14_39
	jmp	.LBB14_51
.LBB14_39:                              #   in Loop: Header=BB14_33 Depth=1
	movw	BasicBlockSignatureTracker, %ax
	xorw	$15, %ax
	cmpw	$3864, %ax              # imm = 0xF18
	jne	.LBB14_57
# %bb.40:                               # %is_draw.split150
                                        #   in Loop: Header=BB14_33 Depth=1
	movl	hash, %eax
	movslq	(%r9), %rdx
	movl	hash_history(,%rdx,4), %edx
	movw	$3864, BasicBlockSignatureTracker # imm = 0xF18
	movw	$0, RunTimeSignatureAdjuster
	cmpl	%edx, %eax
	jne	.LBB14_43
# %bb.41:                               #   in Loop: Header=BB14_33 Depth=1
	movw	BasicBlockSignatureTracker, %ax
	xorw	$40, %ax
	cmpw	$3888, %ax              # imm = 0xF30
	jne	.LBB14_57
# %bb.42:                               # %is_draw.split154
                                        #   in Loop: Header=BB14_33 Depth=1
	movl	(%rdi), %eax
	addl	$1, %eax
	movl	%eax, (%rdi)
	movw	$3888, BasicBlockSignatureTracker # imm = 0xF30
	movw	$40, RunTimeSignatureAdjuster
.LBB14_43:                              #   in Loop: Header=BB14_33 Depth=1
	movw	BasicBlockSignatureTracker, %ax
	movw	RunTimeSignatureAdjuster, %dx
	xorw	$42, %ax
	xorw	%dx, %ax
	cmpw	$3890, %ax              # imm = 0xF32
	jne	.LBB14_57
# %bb.44:                               # %is_draw.split156
                                        #   in Loop: Header=BB14_33 Depth=1
	movl	(%rdi), %eax
	movw	$3890, BasicBlockSignatureTracker # imm = 0xF32
	movw	$0, RunTimeSignatureAdjuster
	cmpl	$2, %eax
	jl	.LBB14_47
# %bb.45:
	movw	BasicBlockSignatureTracker, %ax
	xorw	$117, %ax
	cmpw	$3911, %ax              # imm = 0xF47
	jne	.LBB14_59
# %bb.46:                               # %is_draw.split158
	movl	$1, (%r8)
	movw	$3911, BasicBlockSignatureTracker # imm = 0xF47
	movw	$409, RunTimeSignatureAdjuster # imm = 0x199
	jmp	.LBB14_55
.LBB14_47:                              #   in Loop: Header=BB14_33 Depth=1
	movw	BasicBlockSignatureTracker, %ax
	xorw	$101, %ax
	cmpw	$3927, %ax              # imm = 0xF57
	jne	.LBB14_57
# %bb.48:                               # %is_draw.split160
                                        #   in Loop: Header=BB14_33 Depth=1
	movw	$3927, BasicBlockSignatureTracker # imm = 0xF57
	movw	$0, RunTimeSignatureAdjuster
# %bb.49:                               #   in Loop: Header=BB14_33 Depth=1
	movw	BasicBlockSignatureTracker, %ax
	xorw	$9, %ax
	cmpw	$3934, %ax              # imm = 0xF5E
	jne	.LBB14_57
# %bb.50:                               # %is_draw.split162
                                        #   in Loop: Header=BB14_33 Depth=1
	movl	(%r9), %eax
	subl	$2, %eax
	movl	%eax, (%r9)
	movw	$3934, BasicBlockSignatureTracker # imm = 0xF5E
	movw	$425, RunTimeSignatureAdjuster # imm = 0x1A9
	jmp	.LBB14_33
.LBB14_51:
	movw	BasicBlockSignatureTracker, %ax
	xorw	$97, %ax
	cmpw	$3958, %ax              # imm = 0xF76
	jne	.LBB14_59
# %bb.52:                               # %is_draw.split152
	movw	$3958, BasicBlockSignatureTracker # imm = 0xF76
	movw	$387, RunTimeSignatureAdjuster # imm = 0x183
.LBB14_53:
	movw	BasicBlockSignatureTracker, %ax
	movw	RunTimeSignatureAdjuster, %cx
	xorw	$370, %ax               # imm = 0x172
	xorw	%cx, %ax
	cmpw	$3975, %ax              # imm = 0xF87
	jne	.LBB14_59
# %bb.54:                               # %is_draw.split142
	movl	$0, (%r8)
	movw	$3975, BasicBlockSignatureTracker # imm = 0xF87
	movw	$345, RunTimeSignatureAdjuster # imm = 0x159
.LBB14_55:
	movw	BasicBlockSignatureTracker, %ax
	movw	RunTimeSignatureAdjuster, %cx
	xorw	$369, %ax               # imm = 0x171
	xorw	%cx, %ax
	cmpw	$4015, %ax              # imm = 0xFAF
	jne	.LBB14_59
# %bb.56:                               # %is_draw.split136
	movl	(%r8), %eax
	movw	$4015, BasicBlockSignatureTracker # imm = 0xFAF
	movw	$-26891, RunTimeSignatureAdjuster # imm = 0x96F5
	movq	%rbp, %rsp
	popq	%rbp
	retq
.LBB14_57:                              # %CFerrorHandler.is_draw.loopexit
	jmp	.LBB14_59
.LBB14_58:                              # %CFerrorHandler.is_draw.loopexit1
	jmp	.LBB14_59
.LBB14_59:                              # %CFerrorHandler.is_draw
	callq	FAULT_DETECTED_CFC
.Lfunc_end14:
	.size	is_draw, .Lfunc_end14-is_draw
	.cfi_endproc
                                        # -- End function
	.globl	storeECache             # -- Begin function storeECache
	.p2align	4, 0x90
	.type	storeECache,@function
storeECache:                            # @storeECache
	.cfi_startproc
# %bb.0:
	pushq	%rbp
	.cfi_def_cfa_offset 16
	.cfi_offset %rbp, -16
	movq	%rsp, %rbp
	.cfi_def_cfa_register %rbp
	movw	BasicBlockSignatureTracker, %ax
	movw	RunTimeSignatureAdjuster, %cx
	xorw	$10932, %ax             # imm = 0x2AB4
	xorw	%cx, %ax
	cmpw	$4019, %ax              # imm = 0xFB3
	jne	.LBB15_5
# %bb.1:                                # %storeECache.split22
	movw	BasicBlockSignatureTracker, %ax
	movw	RunTimeSignatureAdjuster, %cx
	xorw	$10932, %ax             # imm = 0x2AB4
	xorw	%cx, %ax
	cmpw	$4019, %ax              # imm = 0xFB3
	jne	.LBB15_5
# %bb.2:                                # %storeECache.split20
	movw	BasicBlockSignatureTracker, %ax
	movw	RunTimeSignatureAdjuster, %cx
	xorw	$10932, %ax             # imm = 0x2AB4
	xorw	%cx, %ax
	cmpw	$4019, %ax              # imm = 0xFB3
	jne	.LBB15_5
# %bb.3:                                # %storeECache.split18
	movw	BasicBlockSignatureTracker, %ax
	movw	RunTimeSignatureAdjuster, %cx
	xorw	$10932, %ax             # imm = 0x2AB4
	xorw	%cx, %ax
	cmpw	$4019, %ax              # imm = 0xFB3
	jne	.LBB15_5
# %bb.4:                                # %storeECache.split
	movq	%rsp, %rcx
	addq	$-16, %rcx
	movq	%rcx, %rsp
	movq	%rsp, %rsi
	addq	$-16, %rsi
	movq	%rsi, %rsp
	movl	%edi, (%rcx)
	movl	hash, %eax
	xorl	%edx, %edx
	divl	ECacheSize
	movl	%edx, (%rsi)
	movl	hash, %eax
	movq	ECache, %rdx
	movslq	(%rsi), %rdi
	imulq	$12, %rdi, %rdi
	addq	%rdi, %rdx
	movl	%eax, (%rdx)
	movl	hold_hash, %eax
	movq	ECache, %rdx
	movslq	(%rsi), %rdi
	imulq	$12, %rdi, %rdi
	addq	%rdi, %rdx
	movl	%eax, 4(%rdx)
	movl	(%rcx), %eax
	movq	ECache, %rcx
	movslq	(%rsi), %rdx
	imulq	$12, %rdx, %rdx
	addq	%rdx, %rcx
	movl	%eax, 8(%rcx)
	movw	$4019, BasicBlockSignatureTracker # imm = 0xFB3
	movw	$11541, RunTimeSignatureAdjuster # imm = 0x2D15
	movq	%rbp, %rsp
	popq	%rbp
	retq
.LBB15_5:                               # %CFerrorHandler.storeECache
	callq	FAULT_DETECTED_CFC
.Lfunc_end15:
	.size	storeECache, .Lfunc_end15-storeECache
	.cfi_endproc
                                        # -- End function
	.globl	checkECache             # -- Begin function checkECache
	.p2align	4, 0x90
	.type	checkECache,@function
checkECache:                            # @checkECache
	.cfi_startproc
# %bb.0:
	pushq	%rbp
	.cfi_def_cfa_offset 16
	.cfi_offset %rbp, -16
	movq	%rsp, %rbp
	.cfi_def_cfa_register %rbp
	movw	BasicBlockSignatureTracker, %ax
	movw	RunTimeSignatureAdjuster, %cx
	xorw	$6312, %ax              # imm = 0x18A8
	xorw	%cx, %ax
	cmpw	$4033, %ax              # imm = 0xFC1
	jne	.LBB16_13
# %bb.1:                                # %checkECache.split44
	movw	BasicBlockSignatureTracker, %ax
	movw	RunTimeSignatureAdjuster, %cx
	xorw	$6312, %ax              # imm = 0x18A8
	xorw	%cx, %ax
	cmpw	$4033, %ax              # imm = 0xFC1
	jne	.LBB16_13
# %bb.2:                                # %checkECache.split42
	movw	BasicBlockSignatureTracker, %ax
	movw	RunTimeSignatureAdjuster, %cx
	xorw	$6312, %ax              # imm = 0x18A8
	xorw	%cx, %ax
	cmpw	$4033, %ax              # imm = 0xFC1
	jne	.LBB16_13
# %bb.3:                                # %checkECache.split40
	movw	BasicBlockSignatureTracker, %ax
	movw	RunTimeSignatureAdjuster, %cx
	xorw	$6312, %ax              # imm = 0x18A8
	xorw	%cx, %ax
	cmpw	$4033, %ax              # imm = 0xFC1
	jne	.LBB16_13
# %bb.4:                                # %checkECache.split38
	movq	%rsp, %r8
	addq	$-16, %r8
	movq	%r8, %rsp
	movq	%rsp, %r9
	addq	$-16, %r9
	movq	%r9, %rsp
	movq	%rsp, %rcx
	addq	$-16, %rcx
	movq	%rcx, %rsp
	movq	%rdi, (%r8)
	movq	%rsi, (%r9)
	movl	ECacheProbes, %eax
	addl	$1, %eax
	movl	%eax, ECacheProbes
	movl	hash, %eax
	xorl	%edx, %edx
	divl	ECacheSize
	movl	%edx, (%rcx)
	movq	ECache, %rax
	movslq	(%rcx), %rdx
	imulq	$12, %rdx, %rdx
	addq	%rdx, %rax
	movl	(%rax), %eax
	movl	hash, %edx
	movw	$4033, BasicBlockSignatureTracker # imm = 0xFC1
	movw	$0, RunTimeSignatureAdjuster
	cmpl	%edx, %eax
	jne	.LBB16_11
# %bb.5:
	movw	BasicBlockSignatureTracker, %ax
	xorw	$17, %ax
	cmpw	$4048, %ax              # imm = 0xFD0
	jne	.LBB16_13
# %bb.6:                                # %checkECache.split
	movq	ECache, %rax
	movslq	(%rcx), %rdx
	imulq	$12, %rdx, %rdx
	addq	%rdx, %rax
	movl	4(%rax), %eax
	movl	hold_hash, %edx
	movw	$4048, BasicBlockSignatureTracker # imm = 0xFD0
	movw	$17, RunTimeSignatureAdjuster
	cmpl	%edx, %eax
	jne	.LBB16_11
# %bb.7:                                # %Buffer__
	movw	BasicBlockSignatureTracker, %ax
	xorw	$-14450, %ax            # imm = 0xC78E
	cmpw	$-14242, %ax            # imm = 0xC85E
	jne	.LBB16_13
# %bb.8:                                # %checkECache.split36
	movw	$-14242, BasicBlockSignatureTracker # imm = 0xC85E
	movw	$-14450, RunTimeSignatureAdjuster # imm = 0xC78E
# %bb.9:
	movw	BasicBlockSignatureTracker, %ax
	movw	RunTimeSignatureAdjuster, %dx
	xorw	$8, %ax
	xorw	%dx, %ax
	cmpw	$4056, %ax              # imm = 0xFD8
	jne	.LBB16_13
# %bb.10:                               # %checkECache.split46
	movl	ECacheHits, %eax
	addl	$1, %eax
	movl	%eax, ECacheHits
	movq	(%r9), %rax
	movl	$1, (%rax)
	movq	ECache, %rax
	movslq	(%rcx), %rcx
	imulq	$12, %rcx, %rcx
	addq	%rcx, %rax
	movl	8(%rax), %eax
	movq	(%r8), %rcx
	movl	%eax, (%rcx)
	movw	$4056, BasicBlockSignatureTracker # imm = 0xFD8
	movw	$25, RunTimeSignatureAdjuster
.LBB16_11:
	movw	BasicBlockSignatureTracker, %ax
	movw	RunTimeSignatureAdjuster, %cx
	xorw	$36, %ax
	xorw	%cx, %ax
	cmpw	$4069, %ax              # imm = 0xFE5
	jne	.LBB16_13
# %bb.12:                               # %checkECache.split34
	movw	$4069, BasicBlockSignatureTracker # imm = 0xFE5
	movw	$6323, RunTimeSignatureAdjuster # imm = 0x18B3
	movq	%rbp, %rsp
	popq	%rbp
	retq
.LBB16_13:                              # %CFerrorHandler.checkECache
	callq	FAULT_DETECTED_CFC
.Lfunc_end16:
	.size	checkECache, .Lfunc_end16-checkECache
	.cfi_endproc
                                        # -- End function
	.globl	reset_ecache            # -- Begin function reset_ecache
	.p2align	4, 0x90
	.type	reset_ecache,@function
reset_ecache:                           # @reset_ecache
	.cfi_startproc
# %bb.0:
	pushq	%rbp
	.cfi_def_cfa_offset 16
	.cfi_offset %rbp, -16
	movq	%rsp, %rbp
	.cfi_def_cfa_register %rbp
	movw	BasicBlockSignatureTracker, %ax
	movw	RunTimeSignatureAdjuster, %cx
	xorw	$1383, %ax              # imm = 0x567
	xorw	%cx, %ax
	cmpw	$4084, %ax              # imm = 0xFF4
	jne	.LBB17_7
# %bb.1:                                # %reset_ecache.split36
	movw	BasicBlockSignatureTracker, %ax
	movw	RunTimeSignatureAdjuster, %cx
	xorw	$1383, %ax              # imm = 0x567
	xorw	%cx, %ax
	cmpw	$4084, %ax              # imm = 0xFF4
	jne	.LBB17_7
# %bb.2:                                # %reset_ecache.split34
	movw	BasicBlockSignatureTracker, %ax
	movw	RunTimeSignatureAdjuster, %cx
	xorw	$1383, %ax              # imm = 0x567
	xorw	%cx, %ax
	cmpw	$4084, %ax              # imm = 0xFF4
	jne	.LBB17_7
# %bb.3:                                # %reset_ecache.split32
	movw	BasicBlockSignatureTracker, %ax
	movw	RunTimeSignatureAdjuster, %cx
	xorw	$1383, %ax              # imm = 0x567
	xorw	%cx, %ax
	cmpw	$4084, %ax              # imm = 0xFF4
	jne	.LBB17_7
# %bb.4:                                # %reset_ecache.split30
	movw	BasicBlockSignatureTracker, %ax
	movw	RunTimeSignatureAdjuster, %cx
	xorw	$1383, %ax              # imm = 0x567
	xorw	%cx, %ax
	cmpw	$4084, %ax              # imm = 0xFF4
	jne	.LBB17_7
# %bb.5:                                # %reset_ecache.split28
	movw	BasicBlockSignatureTracker, %ax
	movw	RunTimeSignatureAdjuster, %cx
	xorw	$1383, %ax              # imm = 0x567
	xorw	%cx, %ax
	cmpw	$4084, %ax              # imm = 0xFF4
	jne	.LBB17_7
# %bb.6:                                # %reset_ecache.split
	movq	ECache, %rdi
	movslq	ECacheSize, %rax
	imulq	$12, %rax, %rdx
	xorl	%esi, %esi
	callq	memset
	movw	$4084, BasicBlockSignatureTracker # imm = 0xFF4
	movw	$0, RunTimeSignatureAdjuster
	popq	%rbp
	retq
.LBB17_7:                               # %CFerrorHandler.reset_ecache
	callq	FAULT_DETECTED_CFC
.Lfunc_end17:
	.size	reset_ecache, .Lfunc_end17-reset_ecache
	.cfi_endproc
                                        # -- End function
	.globl	alloc_ecache            # -- Begin function alloc_ecache
	.p2align	4, 0x90
	.type	alloc_ecache,@function
alloc_ecache:                           # @alloc_ecache
	.cfi_startproc
# %bb.0:
	pushq	%rbp
	.cfi_def_cfa_offset 16
	.cfi_offset %rbp, -16
	movq	%rsp, %rbp
	.cfi_def_cfa_register %rbp
	movw	BasicBlockSignatureTracker, %ax
	movw	RunTimeSignatureAdjuster, %cx
	xorw	$-18785, %ax            # imm = 0xB69F
	xorw	%cx, %ax
	cmpw	$4097, %ax              # imm = 0x1001
	jne	.LBB18_6
# %bb.1:                                # %alloc_ecache.split11
	movslq	ECacheSize, %rax
	imulq	$12, %rax, %rdi
	callq	malloc
	movq	%rax, ECache
	movq	ECache, %rax
	movw	$4097, BasicBlockSignatureTracker # imm = 0x1001
	movw	$0, RunTimeSignatureAdjuster
	cmpq	$0, %rax
	jne	.LBB18_4
# %bb.2:
	movw	BasicBlockSignatureTracker, %ax
	xorw	$3, %ax
	cmpw	$4098, %ax              # imm = 0x1002
	jne	.LBB18_6
# %bb.3:                                # %alloc_ecache.split
	movabsq	$.L.str.3, %rdi
	movb	$0, %al
	callq	printf
	movl	$1, %edi
	callq	exit
	movw	$4098, BasicBlockSignatureTracker # imm = 0x1002
	movw	$0, RunTimeSignatureAdjuster
.LBB18_4:
	movw	BasicBlockSignatureTracker, %ax
	xorw	$12, %ax
	cmpw	$4109, %ax              # imm = 0x100D
	jne	.LBB18_6
# %bb.5:                                # %alloc_ecache.split9
	movw	$4109, BasicBlockSignatureTracker # imm = 0x100D
	movw	$1794, RunTimeSignatureAdjuster # imm = 0x702
	popq	%rbp
	retq
.LBB18_6:                               # %CFerrorHandler.alloc_ecache
	callq	FAULT_DETECTED_CFC
.Lfunc_end18:
	.size	alloc_ecache, .Lfunc_end18-alloc_ecache
	.cfi_endproc
                                        # -- End function
	.globl	free_ecache             # -- Begin function free_ecache
	.p2align	4, 0x90
	.type	free_ecache,@function
free_ecache:                            # @free_ecache
	.cfi_startproc
# %bb.0:
	pushq	%rbp
	.cfi_def_cfa_offset 16
	.cfi_offset %rbp, -16
	movq	%rsp, %rbp
	.cfi_def_cfa_register %rbp
	movw	BasicBlockSignatureTracker, %ax
	movw	RunTimeSignatureAdjuster, %cx
	xorw	$-12677, %ax            # imm = 0xCE7B
	xorw	%cx, %ax
	cmpw	$4119, %ax              # imm = 0x1017
	jne	.LBB19_3
# %bb.1:                                # %free_ecache.split8
	movw	BasicBlockSignatureTracker, %ax
	movw	RunTimeSignatureAdjuster, %cx
	xorw	$-12677, %ax            # imm = 0xCE7B
	xorw	%cx, %ax
	cmpw	$4119, %ax              # imm = 0x1017
	jne	.LBB19_3
# %bb.2:                                # %free_ecache.split
	movq	ECache, %rdi
	callq	free
	movw	$4119, BasicBlockSignatureTracker # imm = 0x1017
	movw	$-12684, RunTimeSignatureAdjuster # imm = 0xCE74
	popq	%rbp
	retq
.LBB19_3:                               # %CFerrorHandler.free_ecache
	callq	FAULT_DETECTED_CFC
.Lfunc_end19:
	.size	free_ecache, .Lfunc_end19-free_ecache
	.cfi_endproc
                                        # -- End function
	.globl	setup_epd_line          # -- Begin function setup_epd_line
	.p2align	4, 0x90
	.type	setup_epd_line,@function
setup_epd_line:                         # @setup_epd_line
	.cfi_startproc
# %bb.0:
	pushq	%rbp
	.cfi_def_cfa_offset 16
	.cfi_offset %rbp, -16
	movq	%rsp, %rbp
	.cfi_def_cfa_register %rbp
	pushq	%r15
	pushq	%r14
	pushq	%r13
	pushq	%r12
	pushq	%rbx
	subq	$72, %rsp
	.cfi_offset %rbx, -56
	.cfi_offset %r12, -48
	.cfi_offset %r13, -40
	.cfi_offset %r14, -32
	.cfi_offset %r15, -24
	movw	BasicBlockSignatureTracker, %ax
	movw	RunTimeSignatureAdjuster, %cx
	xorw	$1263, %ax              # imm = 0x4EF
	xorw	%cx, %ax
	cmpw	$4145, %ax              # imm = 0x1031
	jne	.LBB20_182
# %bb.1:                                # %setup_epd_line.split482
	movw	BasicBlockSignatureTracker, %ax
	movw	RunTimeSignatureAdjuster, %cx
	xorw	$1263, %ax              # imm = 0x4EF
	xorw	%cx, %ax
	cmpw	$4145, %ax              # imm = 0x1031
	jne	.LBB20_182
# %bb.2:                                # %setup_epd_line.split480
	movw	BasicBlockSignatureTracker, %ax
	movw	RunTimeSignatureAdjuster, %cx
	xorw	$1263, %ax              # imm = 0x4EF
	xorw	%cx, %ax
	cmpw	$4145, %ax              # imm = 0x1031
	jne	.LBB20_182
# %bb.3:                                # %setup_epd_line.split478
	movabsq	$board, %r8
	movq	%rsp, %r14
	addq	$-16, %r14
	movq	%r14, %rsp
	movq	%rsp, %r12
	addq	$-16, %r12
	movq	%r12, %rsp
	movq	%rsp, %rcx
	addq	$-16, %rcx
	movq	%rcx, %rsp
	movq	%rsp, %r13
	addq	$-16, %r13
	movq	%r13, %rsp
	movq	%rsp, %rdx
	addq	$-16, %rdx
	movq	%rdx, %rsp
	movq	%rsp, %rsi
	addq	$-16, %rsi
	movq	%rsi, -64(%rbp)         # 8-byte Spill
	movq	%rsi, %rsp
	movq	%rsp, %rsi
	addq	$-16, %rsi
	movq	%rsi, %rsp
	movq	%rsp, %rax
	addq	$-16, %rax
	movq	%rax, %rsp
	movq	%rsp, %r15
	addq	$-16, %r15
	movq	%r15, %rsp
	movq	%rsp, %rbx
	addq	$-16, %rbx
	movq	%rbx, -104(%rbp)        # 8-byte Spill
	movq	%rbx, %rsp
	movq	%rsp, %rbx
	addq	$-16, %rbx
	movq	%rbx, -96(%rbp)         # 8-byte Spill
	movq	%rbx, %rsp
	movq	%rsp, %rbx
	addq	$-16, %rbx
	movq	%rbx, -88(%rbp)         # 8-byte Spill
	movq	%rbx, %rsp
	movq	%rsp, %rbx
	addq	$-16, %rbx
	movq	%rbx, -80(%rbp)         # 8-byte Spill
	movq	%rbx, %rsp
	movq	%rdi, (%r14)
	movl	$0, (%r12)
	movq	%rcx, -112(%rbp)        # 8-byte Spill
	movl	$0, (%rcx)
	movl	$0, (%r13)
	movq	%rdx, -48(%rbp)         # 8-byte Spill
	movl	$0, (%rdx)
	movq	%rsi, -56(%rbp)         # 8-byte Spill
	movl	$0, (%rsi)
	movq	%rax, %rbx
	movl	$97, (%rax)
	movl	$49, (%r15)
	movq	%r8, %rdi
	xorl	%esi, %esi
	movl	$576, %edx              # imm = 0x240
	callq	memset
	movl	$0, white_castled
	movl	$0, black_castled
	movl	$50, book_ply
	movl	setup_epd_line.rankoffsets, %eax
	movl	%eax, (%r13)
	movw	$4145, BasicBlockSignatureTracker # imm = 0x1031
	movw	$0, RunTimeSignatureAdjuster
.LBB20_4:                               # =>This Inner Loop Header: Depth=1
	movw	BasicBlockSignatureTracker, %ax
	movw	RunTimeSignatureAdjuster, %cx
	xorw	$12, %ax
	xorw	%cx, %ax
	cmpw	$4157, %ax              # imm = 0x103D
	jne	.LBB20_181
# %bb.5:                                # %setup_epd_line.split
                                        #   in Loop: Header=BB20_4 Depth=1
	movq	(%r14), %rax
	movslq	(%r12), %rcx
	movsbl	(%rax,%rcx), %eax
	movw	$4157, BasicBlockSignatureTracker # imm = 0x103D
	movw	$0, RunTimeSignatureAdjuster
	cmpl	$32, %eax
	jne	.LBB20_8
# %bb.6:                                #   in Loop: Header=BB20_4 Depth=1
	movw	BasicBlockSignatureTracker, %ax
	xorw	$108, %ax
	cmpw	$4177, %ax              # imm = 0x1051
	jne	.LBB20_181
# %bb.7:                                # %setup_epd_line.split320
                                        #   in Loop: Header=BB20_4 Depth=1
	movl	(%r12), %eax
	addl	$1, %eax
	movl	%eax, (%r12)
	movw	$4177, BasicBlockSignatureTracker # imm = 0x1051
	movw	$96, RunTimeSignatureAdjuster
	jmp	.LBB20_4
.LBB20_8:
	movw	BasicBlockSignatureTracker, %ax
	xorw	$99, %ax
	cmpw	$4190, %ax              # imm = 0x105E
	jne	.LBB20_182
# %bb.9:                                # %setup_epd_line.split322
	movw	$4190, BasicBlockSignatureTracker # imm = 0x105E
	movw	$0, RunTimeSignatureAdjuster
.LBB20_10:                              # =>This Loop Header: Depth=1
                                        #     Child Loop BB20_24 Depth 2
                                        #     Child Loop BB20_81 Depth 2
                                        #     Child Loop BB20_97 Depth 2
                                        #     Child Loop BB20_103 Depth 2
                                        #     Child Loop BB20_129 Depth 2
	movw	BasicBlockSignatureTracker, %ax
	movw	RunTimeSignatureAdjuster, %cx
	xorw	$50, %ax
	xorw	%cx, %ax
	cmpw	$4204, %ax              # imm = 0x106C
	jne	.LBB20_180
# %bb.11:                               # %setup_epd_line.split324
                                        #   in Loop: Header=BB20_10 Depth=1
	xorl	%eax, %eax
	movq	(%r14), %rcx
	movslq	(%r12), %rdx
	movsbl	(%rcx,%rdx), %ecx
	movw	$4204, BasicBlockSignatureTracker # imm = 0x106C
	movw	$0, RunTimeSignatureAdjuster
	cmpl	$10, %ecx
	je	.LBB20_14
# %bb.12:                               #   in Loop: Header=BB20_10 Depth=1
	movw	BasicBlockSignatureTracker, %ax
	xorw	$25, %ax
	cmpw	$4213, %ax              # imm = 0x1075
	jne	.LBB20_180
# %bb.13:                               # %setup_epd_line.split326
                                        #   in Loop: Header=BB20_10 Depth=1
	movq	(%r14), %rax
	movslq	(%r12), %rcx
	movsbl	(%rax,%rcx), %eax
	cmpl	$0, %eax
	setne	%al
	movw	$4213, BasicBlockSignatureTracker # imm = 0x1075
	movw	$25, RunTimeSignatureAdjuster
.LBB20_14:                              #   in Loop: Header=BB20_10 Depth=1
	movw	BasicBlockSignatureTracker, %cx
	movw	RunTimeSignatureAdjuster, %dx
	xorw	$226, %cx
	xorw	%dx, %cx
	cmpw	$4238, %cx              # imm = 0x108E
	jne	.LBB20_180
# %bb.15:                               # %setup_epd_line.split328
                                        #   in Loop: Header=BB20_10 Depth=1
	movw	$4238, BasicBlockSignatureTracker # imm = 0x108E
	movw	$0, RunTimeSignatureAdjuster
	testb	$1, %al
	jne	.LBB20_16
	jmp	.LBB20_173
.LBB20_16:                              #   in Loop: Header=BB20_10 Depth=1
	movw	BasicBlockSignatureTracker, %ax
	xorw	$31, %ax
	cmpw	$4241, %ax              # imm = 0x1091
	jne	.LBB20_180
# %bb.17:                               # %setup_epd_line.split330
                                        #   in Loop: Header=BB20_10 Depth=1
	movq	-56(%rbp), %rax         # 8-byte Reload
	movl	(%rax), %eax
	movw	$4241, BasicBlockSignatureTracker # imm = 0x1091
	movw	$0, RunTimeSignatureAdjuster
	cmpl	$0, %eax
	jne	.LBB20_32
# %bb.18:                               #   in Loop: Header=BB20_10 Depth=1
	movw	BasicBlockSignatureTracker, %ax
	xorw	$48, %ax
	cmpw	$4257, %ax              # imm = 0x10A1
	jne	.LBB20_180
# %bb.19:                               # %setup_epd_line.split334
                                        #   in Loop: Header=BB20_10 Depth=1
	callq	__ctype_b_loc
	movq	(%rax), %rax
	movq	(%r14), %rcx
	movslq	(%r12), %rdx
	movsbl	(%rcx,%rdx), %ecx
	movslq	%ecx, %rcx
	movzwl	(%rax,%rcx,2), %eax
	andl	$2048, %eax             # imm = 0x800
	movw	$4257, BasicBlockSignatureTracker # imm = 0x10A1
	movw	$48, RunTimeSignatureAdjuster
	cmpl	$0, %eax
	je	.LBB20_32
# %bb.20:                               # %Buffer__
                                        #   in Loop: Header=BB20_10 Depth=1
	movw	BasicBlockSignatureTracker, %ax
	xorw	$-16862, %ax            # imm = 0xBE22
	cmpw	$-20861, %ax            # imm = 0xAE83
	jne	.LBB20_180
# %bb.21:                               # %setup_epd_line.split338
                                        #   in Loop: Header=BB20_10 Depth=1
	movw	$-20861, BasicBlockSignatureTracker # imm = 0xAE83
	movw	$-16862, RunTimeSignatureAdjuster # imm = 0xBE22
# %bb.22:                               #   in Loop: Header=BB20_10 Depth=1
	movw	BasicBlockSignatureTracker, %ax
	movw	RunTimeSignatureAdjuster, %cx
	xorw	$2, %ax
	xorw	%cx, %ax
	cmpw	$4259, %ax              # imm = 0x10A3
	jne	.LBB20_180
# %bb.23:                               # %setup_epd_line.split484
                                        #   in Loop: Header=BB20_10 Depth=1
	movq	-64(%rbp), %rax         # 8-byte Reload
	movl	$0, (%rax)
	movw	$4259, BasicBlockSignatureTracker # imm = 0x10A3
	movw	$0, RunTimeSignatureAdjuster
.LBB20_24:                              #   Parent Loop BB20_10 Depth=1
                                        # =>  This Inner Loop Header: Depth=2
	movw	BasicBlockSignatureTracker, %ax
	movw	RunTimeSignatureAdjuster, %cx
	xorw	$100, %ax
	xorw	%cx, %ax
	cmpw	$4295, %ax              # imm = 0x10C7
	jne	.LBB20_175
# %bb.25:                               # %setup_epd_line.split340
                                        #   in Loop: Header=BB20_24 Depth=2
	movq	-64(%rbp), %rax         # 8-byte Reload
	movl	(%rax), %eax
	movl	%eax, -68(%rbp)         # 4-byte Spill
	movq	(%r14), %rdi
	movslq	(%r12), %rax
	addq	%rax, %rdi
	callq	atoi
	movw	$4295, BasicBlockSignatureTracker # imm = 0x10C7
	movw	$0, RunTimeSignatureAdjuster
	cmpl	%eax, -68(%rbp)         # 4-byte Folded Reload
	jge	.LBB20_30
# %bb.26:                               #   in Loop: Header=BB20_24 Depth=2
	movw	BasicBlockSignatureTracker, %ax
	xorw	$11, %ax
	cmpw	$4300, %ax              # imm = 0x10CC
	jne	.LBB20_175
# %bb.27:                               # %setup_epd_line.split342
                                        #   in Loop: Header=BB20_24 Depth=2
	movl	(%r13), %eax
	movq	-64(%rbp), %rcx         # 8-byte Reload
	addl	(%rcx), %eax
	movq	-48(%rbp), %rcx         # 8-byte Reload
	addl	(%rcx), %eax
	cltq
	movl	$13, board(,%rax,4)
	movw	$4300, BasicBlockSignatureTracker # imm = 0x10CC
	movw	$0, RunTimeSignatureAdjuster
# %bb.28:                               #   in Loop: Header=BB20_24 Depth=2
	movw	BasicBlockSignatureTracker, %ax
	xorw	$27, %ax
	cmpw	$4311, %ax              # imm = 0x10D7
	jne	.LBB20_175
# %bb.29:                               # %setup_epd_line.split346
                                        #   in Loop: Header=BB20_24 Depth=2
	movq	-64(%rbp), %rcx         # 8-byte Reload
	movl	(%rcx), %eax
	addl	$1, %eax
	movl	%eax, (%rcx)
	movw	$4311, BasicBlockSignatureTracker # imm = 0x10D7
	movw	$116, RunTimeSignatureAdjuster
	jmp	.LBB20_24
.LBB20_30:                              #   in Loop: Header=BB20_10 Depth=1
	movw	BasicBlockSignatureTracker, %ax
	xorw	$462, %ax               # imm = 0x1CE
	cmpw	$4361, %ax              # imm = 0x1109
	jne	.LBB20_180
# %bb.31:                               # %setup_epd_line.split344
                                        #   in Loop: Header=BB20_10 Depth=1
	movq	(%r14), %rdi
	movslq	(%r12), %rax
	addq	%rax, %rdi
	callq	atoi
	movq	-48(%rbp), %rcx         # 8-byte Reload
	addl	(%rcx), %eax
	movl	%eax, (%rcx)
	movw	$4361, BasicBlockSignatureTracker # imm = 0x1109
	movw	$0, RunTimeSignatureAdjuster
	jmp	.LBB20_171
.LBB20_32:                              #   in Loop: Header=BB20_10 Depth=1
	movw	BasicBlockSignatureTracker, %ax
	movw	RunTimeSignatureAdjuster, %cx
	xorw	$414, %ax               # imm = 0x19E
	xorw	%cx, %ax
	cmpw	$4367, %ax              # imm = 0x110F
	jne	.LBB20_180
# %bb.33:                               # %setup_epd_line.split336
                                        #   in Loop: Header=BB20_10 Depth=1
	movq	-56(%rbp), %rax         # 8-byte Reload
	movl	(%rax), %eax
	movw	$4367, BasicBlockSignatureTracker # imm = 0x110F
	movw	$0, RunTimeSignatureAdjuster
	cmpl	$0, %eax
	jne	.LBB20_40
# %bb.34:                               #   in Loop: Header=BB20_10 Depth=1
	movw	BasicBlockSignatureTracker, %ax
	xorw	$28, %ax
	cmpw	$4371, %ax              # imm = 0x1113
	jne	.LBB20_180
# %bb.35:                               # %setup_epd_line.split350
                                        #   in Loop: Header=BB20_10 Depth=1
	movq	(%r14), %rax
	movslq	(%r12), %rcx
	movsbl	(%rax,%rcx), %eax
	movw	$4371, BasicBlockSignatureTracker # imm = 0x1113
	movw	$28, RunTimeSignatureAdjuster
	cmpl	$47, %eax
	jne	.LBB20_40
# %bb.36:                               # %Buffer__1
                                        #   in Loop: Header=BB20_10 Depth=1
	movw	BasicBlockSignatureTracker, %ax
	xorw	$11291, %ax             # imm = 0x2C1B
	cmpw	$15624, %ax             # imm = 0x3D08
	jne	.LBB20_180
# %bb.37:                               # %setup_epd_line.split354
                                        #   in Loop: Header=BB20_10 Depth=1
	movw	$15624, BasicBlockSignatureTracker # imm = 0x3D08
	movw	$11291, RunTimeSignatureAdjuster # imm = 0x2C1B
# %bb.38:                               #   in Loop: Header=BB20_10 Depth=1
	movw	BasicBlockSignatureTracker, %ax
	movw	RunTimeSignatureAdjuster, %cx
	xorw	$9, %ax
	xorw	%cx, %ax
	cmpw	$4378, %ax              # imm = 0x111A
	jne	.LBB20_180
# %bb.39:                               # %setup_epd_line.split486
                                        #   in Loop: Header=BB20_10 Depth=1
	movq	-112(%rbp), %rcx        # 8-byte Reload
	movl	(%rcx), %eax
	addl	$1, %eax
	movl	%eax, (%rcx)
	movslq	(%rcx), %rax
	movl	setup_epd_line.rankoffsets(,%rax,4), %eax
	movl	%eax, (%r13)
	movq	-48(%rbp), %rax         # 8-byte Reload
	movl	$0, (%rax)
	movw	$4378, BasicBlockSignatureTracker # imm = 0x111A
	movw	$0, RunTimeSignatureAdjuster
	jmp	.LBB20_169
.LBB20_40:                              #   in Loop: Header=BB20_10 Depth=1
	movw	BasicBlockSignatureTracker, %ax
	movw	RunTimeSignatureAdjuster, %cx
	xorw	$40, %ax
	xorw	%cx, %ax
	cmpw	$4391, %ax              # imm = 0x1127
	jne	.LBB20_180
# %bb.41:                               # %setup_epd_line.split352
                                        #   in Loop: Header=BB20_10 Depth=1
	movq	-56(%rbp), %rax         # 8-byte Reload
	movl	(%rax), %eax
	movw	$4391, BasicBlockSignatureTracker # imm = 0x1127
	movw	$0, RunTimeSignatureAdjuster
	cmpl	$0, %eax
	jne	.LBB20_75
# %bb.42:                               #   in Loop: Header=BB20_10 Depth=1
	movw	BasicBlockSignatureTracker, %ax
	xorw	$27, %ax
	cmpw	$4412, %ax              # imm = 0x113C
	jne	.LBB20_180
# %bb.43:                               # %setup_epd_line.split358
                                        #   in Loop: Header=BB20_10 Depth=1
	callq	__ctype_b_loc
	movq	(%rax), %rax
	movq	(%r14), %rcx
	movslq	(%r12), %rdx
	movsbl	(%rcx,%rdx), %ecx
	movslq	%ecx, %rcx
	movzwl	(%rax,%rcx,2), %eax
	andl	$1024, %eax             # imm = 0x400
	movw	$4412, BasicBlockSignatureTracker # imm = 0x113C
	movw	$27, RunTimeSignatureAdjuster
	cmpl	$0, %eax
	je	.LBB20_75
# %bb.44:                               # %Buffer__2
                                        #   in Loop: Header=BB20_10 Depth=1
	movw	BasicBlockSignatureTracker, %ax
	xorw	$28222, %ax             # imm = 0x6E3E
	cmpw	$32514, %ax             # imm = 0x7F02
	jne	.LBB20_180
# %bb.45:                               # %setup_epd_line.split362
                                        #   in Loop: Header=BB20_10 Depth=1
	movw	$32514, BasicBlockSignatureTracker # imm = 0x7F02
	movw	$28222, RunTimeSignatureAdjuster # imm = 0x6E3E
# %bb.46:                               #   in Loop: Header=BB20_10 Depth=1
	movw	BasicBlockSignatureTracker, %ax
	movw	RunTimeSignatureAdjuster, %cx
	xorw	$119, %ax
	xorw	%cx, %ax
	cmpw	$4427, %ax              # imm = 0x114B
	jne	.LBB20_180
# %bb.47:                               # %setup_epd_line.split488
                                        #   in Loop: Header=BB20_10 Depth=1
	movq	(%r14), %rax
	movslq	(%r12), %rcx
	movsbl	(%rax,%rcx), %eax
	movw	$4427, BasicBlockSignatureTracker(%rip) # imm = 0x114B
	movw	$0, RunTimeSignatureAdjuster(%rip)
	addl	$-66, %eax
	movl	%eax, %ecx
	subl	$48, %ecx
	ja	.LBB20_73
# %bb.48:                               # %setup_epd_line.split488
                                        #   in Loop: Header=BB20_10 Depth=1
	movq	.LJTI20_0(,%rax,8), %rax
	jmpq	*%rax
.LBB20_49:                              #   in Loop: Header=BB20_10 Depth=1
	movw	BasicBlockSignatureTracker, %ax
	xorw	$23, %ax
	cmpw	$4444, %ax              # imm = 0x115C
	jne	.LBB20_180
# %bb.50:                               # %setup_epd_line.split366
                                        #   in Loop: Header=BB20_10 Depth=1
	movl	(%r13), %eax
	movq	-48(%rbp), %rcx         # 8-byte Reload
	addl	(%rcx), %eax
	cltq
	movl	$2, board(,%rax,4)
	movw	$4444, BasicBlockSignatureTracker # imm = 0x115C
	movw	$23, RunTimeSignatureAdjuster
	jmp	.LBB20_73
.LBB20_51:                              #   in Loop: Header=BB20_10 Depth=1
	movw	BasicBlockSignatureTracker, %ax
	xorw	$45, %ax
	cmpw	$4454, %ax              # imm = 0x1166
	jne	.LBB20_180
# %bb.52:                               # %setup_epd_line.split368
                                        #   in Loop: Header=BB20_10 Depth=1
	movl	(%r13), %eax
	movq	-48(%rbp), %rcx         # 8-byte Reload
	addl	(%rcx), %eax
	cltq
	movl	$1, board(,%rax,4)
	movw	$4454, BasicBlockSignatureTracker # imm = 0x1166
	movw	$45, RunTimeSignatureAdjuster
	jmp	.LBB20_73
.LBB20_53:                              #   in Loop: Header=BB20_10 Depth=1
	movw	BasicBlockSignatureTracker, %ax
	xorw	$200, %ax
	cmpw	$4483, %ax              # imm = 0x1183
	jne	.LBB20_180
# %bb.54:                               # %setup_epd_line.split370
                                        #   in Loop: Header=BB20_10 Depth=1
	movl	(%r13), %eax
	movq	-48(%rbp), %rcx         # 8-byte Reload
	addl	(%rcx), %eax
	cltq
	movl	$4, board(,%rax,4)
	movw	$4483, BasicBlockSignatureTracker # imm = 0x1183
	movw	$200, RunTimeSignatureAdjuster
	jmp	.LBB20_73
.LBB20_55:                              #   in Loop: Header=BB20_10 Depth=1
	movw	BasicBlockSignatureTracker, %ax
	xorw	$192, %ax
	cmpw	$4491, %ax              # imm = 0x118B
	jne	.LBB20_180
# %bb.56:                               # %setup_epd_line.split372
                                        #   in Loop: Header=BB20_10 Depth=1
	movl	(%r13), %eax
	movq	-48(%rbp), %rcx         # 8-byte Reload
	addl	(%rcx), %eax
	cltq
	movl	$3, board(,%rax,4)
	movw	$4491, BasicBlockSignatureTracker # imm = 0x118B
	movw	$192, RunTimeSignatureAdjuster
	jmp	.LBB20_73
.LBB20_57:                              #   in Loop: Header=BB20_10 Depth=1
	movw	BasicBlockSignatureTracker, %ax
	xorw	$216, %ax
	cmpw	$4499, %ax              # imm = 0x1193
	jne	.LBB20_180
# %bb.58:                               # %setup_epd_line.split374
                                        #   in Loop: Header=BB20_10 Depth=1
	movl	(%r13), %eax
	movq	-48(%rbp), %rcx         # 8-byte Reload
	addl	(%rcx), %eax
	cltq
	movl	$12, board(,%rax,4)
	movw	$4499, BasicBlockSignatureTracker # imm = 0x1193
	movw	$216, RunTimeSignatureAdjuster
	jmp	.LBB20_73
.LBB20_59:                              #   in Loop: Header=BB20_10 Depth=1
	movw	BasicBlockSignatureTracker, %ax
	xorw	$223, %ax
	cmpw	$4500, %ax              # imm = 0x1194
	jne	.LBB20_180
# %bb.60:                               # %setup_epd_line.split376
                                        #   in Loop: Header=BB20_10 Depth=1
	movl	(%r13), %eax
	movq	-48(%rbp), %rcx         # 8-byte Reload
	addl	(%rcx), %eax
	cltq
	movl	$11, board(,%rax,4)
	movw	$4500, BasicBlockSignatureTracker # imm = 0x1194
	movw	$223, RunTimeSignatureAdjuster
	jmp	.LBB20_73
.LBB20_61:                              #   in Loop: Header=BB20_10 Depth=1
	movw	BasicBlockSignatureTracker, %ax
	xorw	$213, %ax
	cmpw	$4510, %ax              # imm = 0x119E
	jne	.LBB20_180
# %bb.62:                               # %setup_epd_line.split378
                                        #   in Loop: Header=BB20_10 Depth=1
	movl	(%r13), %eax
	movq	-48(%rbp), %rcx         # 8-byte Reload
	addl	(%rcx), %eax
	cltq
	movl	$8, board(,%rax,4)
	movw	$4510, BasicBlockSignatureTracker # imm = 0x119E
	movw	$213, RunTimeSignatureAdjuster
	jmp	.LBB20_73
.LBB20_63:                              #   in Loop: Header=BB20_10 Depth=1
	movw	BasicBlockSignatureTracker, %ax
	xorw	$227, %ax
	cmpw	$4520, %ax              # imm = 0x11A8
	jne	.LBB20_180
# %bb.64:                               # %setup_epd_line.split380
                                        #   in Loop: Header=BB20_10 Depth=1
	movl	(%r13), %eax
	movq	-48(%rbp), %rcx         # 8-byte Reload
	addl	(%rcx), %eax
	cltq
	movl	$7, board(,%rax,4)
	movw	$4520, BasicBlockSignatureTracker # imm = 0x11A8
	movw	$227, RunTimeSignatureAdjuster
	jmp	.LBB20_73
.LBB20_65:                              #   in Loop: Header=BB20_10 Depth=1
	movw	BasicBlockSignatureTracker, %ax
	xorw	$249, %ax
	cmpw	$4530, %ax              # imm = 0x11B2
	jne	.LBB20_180
# %bb.66:                               # %setup_epd_line.split382
                                        #   in Loop: Header=BB20_10 Depth=1
	movl	(%r13), %eax
	movq	-48(%rbp), %rcx         # 8-byte Reload
	addl	(%rcx), %eax
	cltq
	movl	$10, board(,%rax,4)
	movw	$4530, BasicBlockSignatureTracker # imm = 0x11B2
	movw	$249, RunTimeSignatureAdjuster
	jmp	.LBB20_73
.LBB20_67:                              #   in Loop: Header=BB20_10 Depth=1
	movw	BasicBlockSignatureTracker, %ax
	xorw	$136, %ax
	cmpw	$4547, %ax              # imm = 0x11C3
	jne	.LBB20_180
# %bb.68:                               # %setup_epd_line.split384
                                        #   in Loop: Header=BB20_10 Depth=1
	movl	(%r13), %eax
	movq	-48(%rbp), %rcx         # 8-byte Reload
	addl	(%rcx), %eax
	cltq
	movl	$9, board(,%rax,4)
	movw	$4547, BasicBlockSignatureTracker # imm = 0x11C3
	movw	$136, RunTimeSignatureAdjuster
	jmp	.LBB20_73
.LBB20_69:                              #   in Loop: Header=BB20_10 Depth=1
	movw	BasicBlockSignatureTracker, %ax
	xorw	$169, %ax
	cmpw	$4578, %ax              # imm = 0x11E2
	jne	.LBB20_180
# %bb.70:                               # %setup_epd_line.split386
                                        #   in Loop: Header=BB20_10 Depth=1
	movl	(%r13), %eax
	movq	-48(%rbp), %rcx         # 8-byte Reload
	addl	(%rcx), %eax
	movl	%eax, bking_loc
	movslq	bking_loc, %rax
	movl	$6, board(,%rax,4)
	movw	$4578, BasicBlockSignatureTracker # imm = 0x11E2
	movw	$169, RunTimeSignatureAdjuster
	jmp	.LBB20_73
.LBB20_71:                              #   in Loop: Header=BB20_10 Depth=1
	movw	BasicBlockSignatureTracker, %ax
	xorw	$185, %ax
	cmpw	$4594, %ax              # imm = 0x11F2
	jne	.LBB20_180
# %bb.72:                               # %setup_epd_line.split388
                                        #   in Loop: Header=BB20_10 Depth=1
	movl	(%r13), %eax
	movq	-48(%rbp), %rcx         # 8-byte Reload
	addl	(%rcx), %eax
	movl	%eax, wking_loc
	movslq	wking_loc, %rax
	movl	$5, board(,%rax,4)
	movw	$4594, BasicBlockSignatureTracker # imm = 0x11F2
	movw	$185, RunTimeSignatureAdjuster
.LBB20_73:                              #   in Loop: Header=BB20_10 Depth=1
	movw	BasicBlockSignatureTracker, %ax
	movw	RunTimeSignatureAdjuster, %cx
	xorw	$184, %ax
	xorw	%cx, %ax
	cmpw	$4595, %ax              # imm = 0x11F3
	jne	.LBB20_180
# %bb.74:                               # %setup_epd_line.split364
                                        #   in Loop: Header=BB20_10 Depth=1
	movq	-48(%rbp), %rcx         # 8-byte Reload
	movl	(%rcx), %eax
	addl	$1, %eax
	movl	%eax, (%rcx)
	movw	$4595, BasicBlockSignatureTracker # imm = 0x11F3
	movw	$0, RunTimeSignatureAdjuster
	jmp	.LBB20_167
.LBB20_75:                              #   in Loop: Header=BB20_10 Depth=1
	movw	BasicBlockSignatureTracker, %ax
	movw	RunTimeSignatureAdjuster, %cx
	xorw	$208, %ax
	xorw	%cx, %ax
	cmpw	$4599, %ax              # imm = 0x11F7
	jne	.LBB20_180
# %bb.76:                               # %setup_epd_line.split360
                                        #   in Loop: Header=BB20_10 Depth=1
	movq	(%r14), %rax
	movslq	(%r12), %rcx
	movsbl	(%rax,%rcx), %eax
	movw	$4599, BasicBlockSignatureTracker # imm = 0x11F7
	movw	$0, RunTimeSignatureAdjuster
	cmpl	$32, %eax
	jne	.LBB20_165
# %bb.77:                               #   in Loop: Header=BB20_10 Depth=1
	movw	BasicBlockSignatureTracker, %ax
	xorw	$1017, %ax              # imm = 0x3F9
	cmpw	$4622, %ax              # imm = 0x120E
	jne	.LBB20_180
# %bb.78:                               # %setup_epd_line.split392
                                        #   in Loop: Header=BB20_10 Depth=1
	movq	-56(%rbp), %rcx         # 8-byte Reload
	movl	(%rcx), %eax
	addl	$1, %eax
	movl	%eax, (%rcx)
	movl	(%rcx), %eax
	movw	$4622, BasicBlockSignatureTracker # imm = 0x120E
	movw	$0, RunTimeSignatureAdjuster
	cmpl	$1, %eax
	jne	.LBB20_93
# %bb.79:                               #   in Loop: Header=BB20_10 Depth=1
	movw	BasicBlockSignatureTracker, %ax
	xorw	$1, %ax
	cmpw	$4623, %ax              # imm = 0x120F
	jne	.LBB20_180
# %bb.80:                               # %setup_epd_line.split396
                                        #   in Loop: Header=BB20_10 Depth=1
	movw	$4623, BasicBlockSignatureTracker # imm = 0x120F
	movw	$0, RunTimeSignatureAdjuster
.LBB20_81:                              #   Parent Loop BB20_10 Depth=1
                                        # =>  This Inner Loop Header: Depth=2
	movw	BasicBlockSignatureTracker, %ax
	movw	RunTimeSignatureAdjuster, %cx
	xorw	$16, %ax
	xorw	%cx, %ax
	cmpw	$4639, %ax              # imm = 0x121F
	jne	.LBB20_176
# %bb.82:                               # %setup_epd_line.split400
                                        #   in Loop: Header=BB20_81 Depth=2
	movq	(%r14), %rax
	movslq	(%r12), %rcx
	movsbl	(%rax,%rcx), %eax
	movw	$4639, BasicBlockSignatureTracker # imm = 0x121F
	movw	$0, RunTimeSignatureAdjuster
	cmpl	$32, %eax
	jne	.LBB20_85
# %bb.83:                               #   in Loop: Header=BB20_81 Depth=2
	movw	BasicBlockSignatureTracker, %ax
	xorw	$33, %ax
	cmpw	$4670, %ax              # imm = 0x123E
	jne	.LBB20_176
# %bb.84:                               # %setup_epd_line.split402
                                        #   in Loop: Header=BB20_81 Depth=2
	movl	(%r12), %eax
	addl	$1, %eax
	movl	%eax, (%r12)
	movw	$4670, BasicBlockSignatureTracker # imm = 0x123E
	movw	$49, RunTimeSignatureAdjuster
	jmp	.LBB20_81
.LBB20_85:                              #   in Loop: Header=BB20_10 Depth=1
	movw	BasicBlockSignatureTracker, %ax
	xorw	$89, %ax
	cmpw	$4678, %ax              # imm = 0x1246
	jne	.LBB20_180
# %bb.86:                               # %setup_epd_line.split404
                                        #   in Loop: Header=BB20_10 Depth=1
	movq	(%r14), %rax
	movslq	(%r12), %rcx
	movsbl	(%rax,%rcx), %eax
	movw	$4678, BasicBlockSignatureTracker # imm = 0x1246
	movw	$0, RunTimeSignatureAdjuster
	cmpl	$119, %eax
	jne	.LBB20_89
# %bb.87:                               #   in Loop: Header=BB20_10 Depth=1
	movw	BasicBlockSignatureTracker, %ax
	xorw	$30, %ax
	cmpw	$4696, %ax              # imm = 0x1258
	jne	.LBB20_180
# %bb.88:                               # %setup_epd_line.split406
                                        #   in Loop: Header=BB20_10 Depth=1
	movl	$1, white_to_move
	movw	$4696, BasicBlockSignatureTracker # imm = 0x1258
	movw	$0, RunTimeSignatureAdjuster
	jmp	.LBB20_91
.LBB20_89:                              #   in Loop: Header=BB20_10 Depth=1
	movw	BasicBlockSignatureTracker, %ax
	xorw	$26, %ax
	cmpw	$4700, %ax              # imm = 0x125C
	jne	.LBB20_180
# %bb.90:                               # %setup_epd_line.split408
                                        #   in Loop: Header=BB20_10 Depth=1
	movl	$0, white_to_move
	movw	$4700, BasicBlockSignatureTracker # imm = 0x125C
	movw	$4, RunTimeSignatureAdjuster
.LBB20_91:                              #   in Loop: Header=BB20_10 Depth=1
	movw	BasicBlockSignatureTracker, %ax
	movw	RunTimeSignatureAdjuster, %cx
	xorw	$58, %ax
	xorw	%cx, %ax
	cmpw	$4706, %ax              # imm = 0x1262
	jne	.LBB20_180
# %bb.92:                               # %setup_epd_line.split410
                                        #   in Loop: Header=BB20_10 Depth=1
	movw	$4706, BasicBlockSignatureTracker # imm = 0x1262
	movw	$0, RunTimeSignatureAdjuster
	jmp	.LBB20_163
.LBB20_93:                              #   in Loop: Header=BB20_10 Depth=1
	movw	BasicBlockSignatureTracker, %ax
	xorw	$100, %ax
	cmpw	$4714, %ax              # imm = 0x126A
	jne	.LBB20_180
# %bb.94:                               # %setup_epd_line.split398
                                        #   in Loop: Header=BB20_10 Depth=1
	movq	-56(%rbp), %rax         # 8-byte Reload
	movl	(%rax), %eax
	movw	$4714, BasicBlockSignatureTracker # imm = 0x126A
	movw	$0, RunTimeSignatureAdjuster
	cmpl	$2, %eax
	jne	.LBB20_125
# %bb.95:                               #   in Loop: Header=BB20_10 Depth=1
	movw	BasicBlockSignatureTracker, %ax
	xorw	$6, %ax
	cmpw	$4716, %ax              # imm = 0x126C
	jne	.LBB20_180
# %bb.96:                               # %setup_epd_line.split414
                                        #   in Loop: Header=BB20_10 Depth=1
	movl	$1, moved+120
	movl	$1, moved+132
	movl	$1, moved+104
	movl	$1, moved+468
	movl	$1, moved+456
