	.text
	.file	"llvm-link"
	.globl	calc_attackers          # -- Begin function calc_attackers
	.p2align	4, 0x90
	.type	calc_attackers,@function
calc_attackers:                         # @calc_attackers
	.cfi_startproc
# %bb.0:
	pushq	%rbp
	.cfi_def_cfa_offset 16
	.cfi_offset %rbp, -16
	movq	%rsp, %rbp
	.cfi_def_cfa_register %rbp
	movl	%edi, -16(%rbp)
	movl	%esi, -24(%rbp)
	movl	$0, -12(%rbp)
	movslq	-16(%rbp), %rax
	cmpl	$0, board(,%rax,4)
	jne	.LBB0_2
# %bb.1:
	movl	$0, -20(%rbp)
	jmp	.LBB0_97
.LBB0_2:
	movl	$2, %ecx
	movl	-24(%rbp), %eax
	cltd
	idivl	%ecx
	cmpl	$0, %edx
	je	.LBB0_50
# %bb.3:
	movl	$0, -8(%rbp)
.LBB0_4:                                # =>This Loop Header: Depth=1
                                        #     Child Loop BB0_8 Depth 2
	cmpl	$4, -8(%rbp)
	jge	.LBB0_20
# %bb.5:                                #   in Loop: Header=BB0_4 Depth=1
	movl	-16(%rbp), %eax
	movslq	-8(%rbp), %rcx
	addl	calc_attackers.rook_o(,%rcx,4), %eax
	movl	%eax, -4(%rbp)
	movslq	-4(%rbp), %rax
	cmpl	$5, board(,%rax,4)
	jne	.LBB0_7
# %bb.6:
	movl	-12(%rbp), %eax
	addl	$1, %eax
	movl	%eax, -12(%rbp)
	jmp	.LBB0_21
.LBB0_7:                                #   in Loop: Header=BB0_4 Depth=1
	jmp	.LBB0_8
.LBB0_8:                                #   Parent Loop BB0_4 Depth=1
                                        # =>  This Inner Loop Header: Depth=2
	movslq	-4(%rbp), %rax
	cmpl	$0, board(,%rax,4)
	je	.LBB0_16
# %bb.9:                                #   in Loop: Header=BB0_8 Depth=2
	movslq	-4(%rbp), %rax
	cmpl	$7, board(,%rax,4)
	je	.LBB0_11
# %bb.10:                               #   in Loop: Header=BB0_8 Depth=2
	movslq	-4(%rbp), %rax
	cmpl	$9, board(,%rax,4)
	jne	.LBB0_12
.LBB0_11:                               #   in Loop: Header=BB0_4 Depth=1
	movl	-12(%rbp), %eax
	addl	$1, %eax
	movl	%eax, -12(%rbp)
	jmp	.LBB0_17
.LBB0_12:                               #   in Loop: Header=BB0_8 Depth=2
	movslq	-4(%rbp), %rax
	cmpl	$13, board(,%rax,4)
	je	.LBB0_14
# %bb.13:                               #   in Loop: Header=BB0_4 Depth=1
	jmp	.LBB0_17
.LBB0_14:                               #   in Loop: Header=BB0_8 Depth=2
	jmp	.LBB0_15
.LBB0_15:                               #   in Loop: Header=BB0_8 Depth=2
	movslq	-8(%rbp), %rax
	movl	calc_attackers.rook_o(,%rax,4), %eax
	addl	-4(%rbp), %eax
	movl	%eax, -4(%rbp)
	jmp	.LBB0_8
.LBB0_16:                               # %.loopexit2
                                        #   in Loop: Header=BB0_4 Depth=1
	jmp	.LBB0_17
.LBB0_17:                               #   in Loop: Header=BB0_4 Depth=1
	jmp	.LBB0_18
.LBB0_18:                               #   in Loop: Header=BB0_4 Depth=1
	jmp	.LBB0_19
.LBB0_19:                               #   in Loop: Header=BB0_4 Depth=1
	movl	-8(%rbp), %eax
	addl	$1, %eax
	movl	%eax, -8(%rbp)
	jmp	.LBB0_4
.LBB0_20:                               # %.loopexit3
	jmp	.LBB0_21
.LBB0_21:
	movl	$0, -8(%rbp)
.LBB0_22:                               # =>This Loop Header: Depth=1
                                        #     Child Loop BB0_29 Depth 2
	cmpl	$4, -8(%rbp)
	jge	.LBB0_42
# %bb.23:                               #   in Loop: Header=BB0_22 Depth=1
	movl	-16(%rbp), %eax
	movslq	-8(%rbp), %rcx
	addl	calc_attackers.bishop_o(,%rcx,4), %eax
	movl	%eax, -4(%rbp)
	movslq	-4(%rbp), %rax
	cmpl	$1, board(,%rax,4)
	jne	.LBB0_26
# %bb.24:                               #   in Loop: Header=BB0_22 Depth=1
	movl	$2, %ecx
	movl	-8(%rbp), %eax
	cltd
	idivl	%ecx
	cmpl	$0, %edx
	je	.LBB0_26
# %bb.25:
	movl	-12(%rbp), %eax
	addl	$1, %eax
	movl	%eax, -12(%rbp)
	jmp	.LBB0_43
.LBB0_26:                               #   in Loop: Header=BB0_22 Depth=1
	movslq	-4(%rbp), %rax
	cmpl	$5, board(,%rax,4)
	jne	.LBB0_28
# %bb.27:
	movl	-12(%rbp), %eax
	addl	$1, %eax
	movl	%eax, -12(%rbp)
	jmp	.LBB0_43
.LBB0_28:                               #   in Loop: Header=BB0_22 Depth=1
	jmp	.LBB0_29
.LBB0_29:                               #   Parent Loop BB0_22 Depth=1
                                        # =>  This Inner Loop Header: Depth=2
	movslq	-4(%rbp), %rax
	cmpl	$0, board(,%rax,4)
	je	.LBB0_37
# %bb.30:                               #   in Loop: Header=BB0_29 Depth=2
	movslq	-4(%rbp), %rax
	cmpl	$11, board(,%rax,4)
	je	.LBB0_32
# %bb.31:                               #   in Loop: Header=BB0_29 Depth=2
	movslq	-4(%rbp), %rax
	cmpl	$9, board(,%rax,4)
	jne	.LBB0_33
.LBB0_32:                               #   in Loop: Header=BB0_22 Depth=1
	movl	-12(%rbp), %eax
	addl	$1, %eax
	movl	%eax, -12(%rbp)
	jmp	.LBB0_38
.LBB0_33:                               #   in Loop: Header=BB0_29 Depth=2
	movslq	-4(%rbp), %rax
	cmpl	$13, board(,%rax,4)
	je	.LBB0_35
# %bb.34:                               #   in Loop: Header=BB0_22 Depth=1
	jmp	.LBB0_38
.LBB0_35:                               #   in Loop: Header=BB0_29 Depth=2
	jmp	.LBB0_36
.LBB0_36:                               #   in Loop: Header=BB0_29 Depth=2
	movslq	-8(%rbp), %rax
	movl	calc_attackers.bishop_o(,%rax,4), %eax
	addl	-4(%rbp), %eax
	movl	%eax, -4(%rbp)
	jmp	.LBB0_29
.LBB0_37:                               # %.loopexit
                                        #   in Loop: Header=BB0_22 Depth=1
	jmp	.LBB0_38
.LBB0_38:                               #   in Loop: Header=BB0_22 Depth=1
	jmp	.LBB0_39
.LBB0_39:                               #   in Loop: Header=BB0_22 Depth=1
	jmp	.LBB0_40
.LBB0_40:                               #   in Loop: Header=BB0_22 Depth=1
	jmp	.LBB0_41
.LBB0_41:                               #   in Loop: Header=BB0_22 Depth=1
	movl	-8(%rbp), %eax
	addl	$1, %eax
	movl	%eax, -8(%rbp)
	jmp	.LBB0_22
.LBB0_42:                               # %.loopexit1
	jmp	.LBB0_43
.LBB0_43:
	movl	$0, -8(%rbp)
.LBB0_44:                               # =>This Inner Loop Header: Depth=1
	cmpl	$8, -8(%rbp)
	jge	.LBB0_49
# %bb.45:                               #   in Loop: Header=BB0_44 Depth=1
	movl	-16(%rbp), %eax
	movslq	-8(%rbp), %rcx
	addl	calc_attackers.knight_o(,%rcx,4), %eax
	movl	%eax, -4(%rbp)
	movslq	-4(%rbp), %rax
	cmpl	$3, board(,%rax,4)
	jne	.LBB0_47
# %bb.46:                               #   in Loop: Header=BB0_44 Depth=1
	movl	-12(%rbp), %eax
	addl	$1, %eax
	movl	%eax, -12(%rbp)
.LBB0_47:                               #   in Loop: Header=BB0_44 Depth=1
	jmp	.LBB0_48
.LBB0_48:                               #   in Loop: Header=BB0_44 Depth=1
	movl	-8(%rbp), %eax
	addl	$1, %eax
	movl	%eax, -8(%rbp)
	jmp	.LBB0_44
.LBB0_49:
	jmp	.LBB0_96
.LBB0_50:
	movl	$0, -8(%rbp)
.LBB0_51:                               # =>This Loop Header: Depth=1
                                        #     Child Loop BB0_55 Depth 2
	cmpl	$4, -8(%rbp)
	jge	.LBB0_66
# %bb.52:                               #   in Loop: Header=BB0_51 Depth=1
	movl	-16(%rbp), %eax
	movslq	-8(%rbp), %rcx
	addl	calc_attackers.rook_o(,%rcx,4), %eax
	movl	%eax, -4(%rbp)
	movslq	-4(%rbp), %rax
	cmpl	$6, board(,%rax,4)
	jne	.LBB0_54
# %bb.53:
	movl	-12(%rbp), %eax
	addl	$1, %eax
	movl	%eax, -12(%rbp)
	jmp	.LBB0_67
.LBB0_54:                               #   in Loop: Header=BB0_51 Depth=1
	jmp	.LBB0_55
.LBB0_55:                               #   Parent Loop BB0_51 Depth=1
                                        # =>  This Inner Loop Header: Depth=2
	movslq	-4(%rbp), %rax
	cmpl	$0, board(,%rax,4)
	je	.LBB0_62
# %bb.56:                               #   in Loop: Header=BB0_55 Depth=2
	movslq	-4(%rbp), %rax
	cmpl	$8, board(,%rax,4)
	je	.LBB0_58
# %bb.57:                               #   in Loop: Header=BB0_55 Depth=2
	movslq	-4(%rbp), %rax
	cmpl	$10, board(,%rax,4)
	jne	.LBB0_59
.LBB0_58:                               #   in Loop: Header=BB0_51 Depth=1
	movl	-12(%rbp), %eax
	addl	$1, %eax
	movl	%eax, -12(%rbp)
	jmp	.LBB0_63
.LBB0_59:                               #   in Loop: Header=BB0_55 Depth=2
	movslq	-4(%rbp), %rax
	cmpl	$13, board(,%rax,4)
	je	.LBB0_61
# %bb.60:                               #   in Loop: Header=BB0_51 Depth=1
	jmp	.LBB0_63
.LBB0_61:                               #   in Loop: Header=BB0_55 Depth=2
	movslq	-8(%rbp), %rax
	movl	calc_attackers.rook_o(,%rax,4), %eax
	addl	-4(%rbp), %eax
	movl	%eax, -4(%rbp)
	jmp	.LBB0_55
.LBB0_62:                               # %.loopexit6
                                        #   in Loop: Header=BB0_51 Depth=1
	jmp	.LBB0_63
.LBB0_63:                               #   in Loop: Header=BB0_51 Depth=1
	jmp	.LBB0_64
.LBB0_64:                               #   in Loop: Header=BB0_51 Depth=1
	jmp	.LBB0_65
.LBB0_65:                               #   in Loop: Header=BB0_51 Depth=1
	movl	-8(%rbp), %eax
	addl	$1, %eax
	movl	%eax, -8(%rbp)
	jmp	.LBB0_51
.LBB0_66:                               # %.loopexit7
	jmp	.LBB0_67
.LBB0_67:
	movl	$0, -8(%rbp)
.LBB0_68:                               # =>This Loop Header: Depth=1
                                        #     Child Loop BB0_75 Depth 2
	cmpl	$4, -8(%rbp)
	jge	.LBB0_88
# %bb.69:                               #   in Loop: Header=BB0_68 Depth=1
	movl	-16(%rbp), %eax
	movslq	-8(%rbp), %rcx
	addl	calc_attackers.bishop_o(,%rcx,4), %eax
	movl	%eax, -4(%rbp)
	movslq	-4(%rbp), %rax
	cmpl	$2, board(,%rax,4)
	jne	.LBB0_72
# %bb.70:                               #   in Loop: Header=BB0_68 Depth=1
	movl	$2, %ecx
	movl	-8(%rbp), %eax
	cltd
	idivl	%ecx
	cmpl	$0, %edx
	jne	.LBB0_72
# %bb.71:
	movl	-12(%rbp), %eax
	addl	$1, %eax
	movl	%eax, -12(%rbp)
	jmp	.LBB0_89
.LBB0_72:                               #   in Loop: Header=BB0_68 Depth=1
	movslq	-4(%rbp), %rax
	cmpl	$6, board(,%rax,4)
	jne	.LBB0_74
# %bb.73:
	movl	-12(%rbp), %eax
	addl	$1, %eax
	movl	%eax, -12(%rbp)
	jmp	.LBB0_89
.LBB0_74:                               #   in Loop: Header=BB0_68 Depth=1
	jmp	.LBB0_75
.LBB0_75:                               #   Parent Loop BB0_68 Depth=1
                                        # =>  This Inner Loop Header: Depth=2
	movslq	-4(%rbp), %rax
	cmpl	$0, board(,%rax,4)
	je	.LBB0_83
# %bb.76:                               #   in Loop: Header=BB0_75 Depth=2
	movslq	-4(%rbp), %rax
	cmpl	$12, board(,%rax,4)
	je	.LBB0_78
# %bb.77:                               #   in Loop: Header=BB0_75 Depth=2
	movslq	-4(%rbp), %rax
	cmpl	$10, board(,%rax,4)
	jne	.LBB0_79
.LBB0_78:                               #   in Loop: Header=BB0_68 Depth=1
	movl	-12(%rbp), %eax
	addl	$1, %eax
	movl	%eax, -12(%rbp)
	jmp	.LBB0_84
.LBB0_79:                               #   in Loop: Header=BB0_75 Depth=2
	movslq	-4(%rbp), %rax
	cmpl	$13, board(,%rax,4)
	je	.LBB0_81
# %bb.80:                               #   in Loop: Header=BB0_68 Depth=1
	jmp	.LBB0_84
.LBB0_81:                               #   in Loop: Header=BB0_75 Depth=2
	jmp	.LBB0_82
.LBB0_82:                               #   in Loop: Header=BB0_75 Depth=2
	movslq	-8(%rbp), %rax
	movl	calc_attackers.bishop_o(,%rax,4), %eax
	addl	-4(%rbp), %eax
	movl	%eax, -4(%rbp)
	jmp	.LBB0_75
.LBB0_83:                               # %.loopexit4
                                        #   in Loop: Header=BB0_68 Depth=1
	jmp	.LBB0_84
.LBB0_84:                               #   in Loop: Header=BB0_68 Depth=1
	jmp	.LBB0_85
.LBB0_85:                               #   in Loop: Header=BB0_68 Depth=1
	jmp	.LBB0_86
.LBB0_86:                               #   in Loop: Header=BB0_68 Depth=1
	jmp	.LBB0_87
.LBB0_87:                               #   in Loop: Header=BB0_68 Depth=1
	movl	-8(%rbp), %eax
	addl	$1, %eax
	movl	%eax, -8(%rbp)
	jmp	.LBB0_68
.LBB0_88:                               # %.loopexit5
	jmp	.LBB0_89
.LBB0_89:
	movl	$0, -8(%rbp)
.LBB0_90:                               # =>This Inner Loop Header: Depth=1
	cmpl	$8, -8(%rbp)
	jge	.LBB0_95
# %bb.91:                               #   in Loop: Header=BB0_90 Depth=1
	movl	-16(%rbp), %eax
	movslq	-8(%rbp), %rcx
	addl	calc_attackers.knight_o(,%rcx,4), %eax
	movl	%eax, -4(%rbp)
	movslq	-4(%rbp), %rax
	cmpl	$4, board(,%rax,4)
	jne	.LBB0_93
# %bb.92:                               #   in Loop: Header=BB0_90 Depth=1
	movl	-12(%rbp), %eax
	addl	$1, %eax
	movl	%eax, -12(%rbp)
.LBB0_93:                               #   in Loop: Header=BB0_90 Depth=1
	jmp	.LBB0_94
.LBB0_94:                               #   in Loop: Header=BB0_90 Depth=1
	movl	-8(%rbp), %eax
	addl	$1, %eax
	movl	%eax, -8(%rbp)
	jmp	.LBB0_90
.LBB0_95:
	jmp	.LBB0_96
.LBB0_96:
	movl	-12(%rbp), %eax
	movl	%eax, -20(%rbp)
.LBB0_97:
	movl	-20(%rbp), %eax
	popq	%rbp
	retq
.Lfunc_end0:
	.size	calc_attackers, .Lfunc_end0-calc_attackers
	.cfi_endproc
                                        # -- End function
	.globl	is_attacked             # -- Begin function is_attacked
	.p2align	4, 0x90
	.type	is_attacked,@function
is_attacked:                            # @is_attacked
	.cfi_startproc
# %bb.0:
	pushq	%rbp
	.cfi_def_cfa_offset 16
	.cfi_offset %rbp, -16
	movq	%rsp, %rbp
	.cfi_def_cfa_register %rbp
	movl	%edi, -24(%rbp)
	movl	%esi, -28(%rbp)
	movl	-28(%rbp), %eax
	andl	$1, %eax
	cmpl	$0, %eax
	je	.LBB1_41
# %bb.1:
	movl	$0, -4(%rbp)
.LBB1_2:                                # =>This Loop Header: Depth=1
                                        #     Child Loop BB1_9 Depth 2
	cmpl	$4, -4(%rbp)
	jge	.LBB1_19
# %bb.3:                                #   in Loop: Header=BB1_2 Depth=1
	movslq	-4(%rbp), %rax
	movl	is_attacked.bishop_o(,%rax,4), %eax
	movl	%eax, -20(%rbp)
	movl	-24(%rbp), %eax
	addl	-20(%rbp), %eax
	movl	%eax, -12(%rbp)
	movslq	-12(%rbp), %rax
	movl	board(,%rax,4), %eax
	movl	%eax, -8(%rbp)
	cmpl	$1, -8(%rbp)
	jne	.LBB1_6
# %bb.4:                                #   in Loop: Header=BB1_2 Depth=1
	movl	-4(%rbp), %eax
	andl	$1, %eax
	cmpl	$0, %eax
	je	.LBB1_6
# %bb.5:
	movl	$1, -16(%rbp)
	jmp	.LBB1_81
.LBB1_6:                                #   in Loop: Header=BB1_2 Depth=1
	cmpl	$5, -8(%rbp)
	jne	.LBB1_8
# %bb.7:
	movl	$1, -16(%rbp)
	jmp	.LBB1_81
.LBB1_8:                                #   in Loop: Header=BB1_2 Depth=1
	jmp	.LBB1_9
.LBB1_9:                                #   Parent Loop BB1_2 Depth=1
                                        # =>  This Inner Loop Header: Depth=2
	cmpl	$0, -8(%rbp)
	je	.LBB1_16
# %bb.10:                               #   in Loop: Header=BB1_9 Depth=2
	cmpl	$11, -8(%rbp)
	je	.LBB1_12
# %bb.11:                               #   in Loop: Header=BB1_9 Depth=2
	cmpl	$9, -8(%rbp)
	jne	.LBB1_13
.LBB1_12:
	movl	$1, -16(%rbp)
	jmp	.LBB1_81
.LBB1_13:                               #   in Loop: Header=BB1_9 Depth=2
	cmpl	$13, -8(%rbp)
	je	.LBB1_15
# %bb.14:                               #   in Loop: Header=BB1_2 Depth=1
	jmp	.LBB1_17
.LBB1_15:                               #   in Loop: Header=BB1_9 Depth=2
	movl	-20(%rbp), %eax
	addl	-12(%rbp), %eax
	movl	%eax, -12(%rbp)
	movslq	-12(%rbp), %rax
	movl	board(,%rax,4), %eax
	movl	%eax, -8(%rbp)
	jmp	.LBB1_9
.LBB1_16:                               # %.loopexit1
                                        #   in Loop: Header=BB1_2 Depth=1
	jmp	.LBB1_17
.LBB1_17:                               #   in Loop: Header=BB1_2 Depth=1
	jmp	.LBB1_18
.LBB1_18:                               #   in Loop: Header=BB1_2 Depth=1
	movl	-4(%rbp), %eax
	addl	$1, %eax
	movl	%eax, -4(%rbp)
	jmp	.LBB1_2
.LBB1_19:
	movl	$0, -4(%rbp)
.LBB1_20:                               # =>This Inner Loop Header: Depth=1
	cmpl	$8, -4(%rbp)
	jge	.LBB1_25
# %bb.21:                               #   in Loop: Header=BB1_20 Depth=1
	movl	-24(%rbp), %eax
	movslq	-4(%rbp), %rcx
	addl	is_attacked.knight_o(,%rcx,4), %eax
	cltq
	cmpl	$3, board(,%rax,4)
	jne	.LBB1_23
# %bb.22:
	movl	$1, -16(%rbp)
	jmp	.LBB1_81
.LBB1_23:                               #   in Loop: Header=BB1_20 Depth=1
	jmp	.LBB1_24
.LBB1_24:                               #   in Loop: Header=BB1_20 Depth=1
	movl	-4(%rbp), %eax
	addl	$1, %eax
	movl	%eax, -4(%rbp)
	jmp	.LBB1_20
.LBB1_25:
	movl	$0, -4(%rbp)
.LBB1_26:                               # =>This Loop Header: Depth=1
                                        #     Child Loop BB1_30 Depth 2
	cmpl	$4, -4(%rbp)
	jge	.LBB1_40
# %bb.27:                               #   in Loop: Header=BB1_26 Depth=1
	movslq	-4(%rbp), %rax
	movl	is_attacked.rook_o(,%rax,4), %eax
	movl	%eax, -20(%rbp)
	movl	-24(%rbp), %eax
	addl	-20(%rbp), %eax
	movl	%eax, -12(%rbp)
	movslq	-12(%rbp), %rax
	movl	board(,%rax,4), %eax
	movl	%eax, -8(%rbp)
	cmpl	$5, -8(%rbp)
	jne	.LBB1_29
# %bb.28:
	movl	$1, -16(%rbp)
	jmp	.LBB1_81
.LBB1_29:                               #   in Loop: Header=BB1_26 Depth=1
	jmp	.LBB1_30
.LBB1_30:                               #   Parent Loop BB1_26 Depth=1
                                        # =>  This Inner Loop Header: Depth=2
	cmpl	$0, -8(%rbp)
	je	.LBB1_37
# %bb.31:                               #   in Loop: Header=BB1_30 Depth=2
	cmpl	$7, -8(%rbp)
	je	.LBB1_33
# %bb.32:                               #   in Loop: Header=BB1_30 Depth=2
	cmpl	$9, -8(%rbp)
	jne	.LBB1_34
.LBB1_33:
	movl	$1, -16(%rbp)
	jmp	.LBB1_81
.LBB1_34:                               #   in Loop: Header=BB1_30 Depth=2
	cmpl	$13, -8(%rbp)
	je	.LBB1_36
# %bb.35:                               #   in Loop: Header=BB1_26 Depth=1
	jmp	.LBB1_38
.LBB1_36:                               #   in Loop: Header=BB1_30 Depth=2
	movl	-20(%rbp), %eax
	addl	-12(%rbp), %eax
	movl	%eax, -12(%rbp)
	movslq	-12(%rbp), %rax
	movl	board(,%rax,4), %eax
	movl	%eax, -8(%rbp)
	jmp	.LBB1_30
.LBB1_37:                               # %.loopexit
                                        #   in Loop: Header=BB1_26 Depth=1
	jmp	.LBB1_38
.LBB1_38:                               #   in Loop: Header=BB1_26 Depth=1
	jmp	.LBB1_39
.LBB1_39:                               #   in Loop: Header=BB1_26 Depth=1
	movl	-4(%rbp), %eax
	addl	$1, %eax
	movl	%eax, -4(%rbp)
	jmp	.LBB1_26
.LBB1_40:
	movl	$0, -16(%rbp)
	jmp	.LBB1_81
.LBB1_41:
	movl	$0, -4(%rbp)
.LBB1_42:                               # =>This Loop Header: Depth=1
                                        #     Child Loop BB1_49 Depth 2
	cmpl	$4, -4(%rbp)
	jge	.LBB1_59
# %bb.43:                               #   in Loop: Header=BB1_42 Depth=1
	movslq	-4(%rbp), %rax
	movl	is_attacked.bishop_o(,%rax,4), %eax
	movl	%eax, -20(%rbp)
	movl	-24(%rbp), %eax
	addl	-20(%rbp), %eax
	movl	%eax, -12(%rbp)
	movslq	-12(%rbp), %rax
	movl	board(,%rax,4), %eax
	movl	%eax, -8(%rbp)
	cmpl	$2, -8(%rbp)
	jne	.LBB1_46
# %bb.44:                               #   in Loop: Header=BB1_42 Depth=1
	movl	-4(%rbp), %eax
	andl	$1, %eax
	cmpl	$0, %eax
	jne	.LBB1_46
# %bb.45:
	movl	$1, -16(%rbp)
	jmp	.LBB1_81
.LBB1_46:                               #   in Loop: Header=BB1_42 Depth=1
	cmpl	$6, -8(%rbp)
	jne	.LBB1_48
# %bb.47:
	movl	$1, -16(%rbp)
	jmp	.LBB1_81
.LBB1_48:                               #   in Loop: Header=BB1_42 Depth=1
	jmp	.LBB1_49
.LBB1_49:                               #   Parent Loop BB1_42 Depth=1
                                        # =>  This Inner Loop Header: Depth=2
	cmpl	$0, -8(%rbp)
	je	.LBB1_56
# %bb.50:                               #   in Loop: Header=BB1_49 Depth=2
	cmpl	$12, -8(%rbp)
	je	.LBB1_52
# %bb.51:                               #   in Loop: Header=BB1_49 Depth=2
	cmpl	$10, -8(%rbp)
	jne	.LBB1_53
.LBB1_52:
	movl	$1, -16(%rbp)
	jmp	.LBB1_81
.LBB1_53:                               #   in Loop: Header=BB1_49 Depth=2
	cmpl	$13, -8(%rbp)
	je	.LBB1_55
# %bb.54:                               #   in Loop: Header=BB1_42 Depth=1
	jmp	.LBB1_57
.LBB1_55:                               #   in Loop: Header=BB1_49 Depth=2
	movl	-20(%rbp), %eax
	addl	-12(%rbp), %eax
	movl	%eax, -12(%rbp)
	movslq	-12(%rbp), %rax
	movl	board(,%rax,4), %eax
	movl	%eax, -8(%rbp)
	jmp	.LBB1_49
.LBB1_56:                               # %.loopexit3
                                        #   in Loop: Header=BB1_42 Depth=1
	jmp	.LBB1_57
.LBB1_57:                               #   in Loop: Header=BB1_42 Depth=1
	jmp	.LBB1_58
.LBB1_58:                               #   in Loop: Header=BB1_42 Depth=1
	movl	-4(%rbp), %eax
	addl	$1, %eax
	movl	%eax, -4(%rbp)
	jmp	.LBB1_42
.LBB1_59:
	movl	$0, -4(%rbp)
.LBB1_60:                               # =>This Inner Loop Header: Depth=1
	cmpl	$8, -4(%rbp)
	jge	.LBB1_65
# %bb.61:                               #   in Loop: Header=BB1_60 Depth=1
	movl	-24(%rbp), %eax
	movslq	-4(%rbp), %rcx
	addl	is_attacked.knight_o(,%rcx,4), %eax
	cltq
	cmpl	$4, board(,%rax,4)
	jne	.LBB1_63
# %bb.62:
	movl	$1, -16(%rbp)
	jmp	.LBB1_81
.LBB1_63:                               #   in Loop: Header=BB1_60 Depth=1
	jmp	.LBB1_64
.LBB1_64:                               #   in Loop: Header=BB1_60 Depth=1
	movl	-4(%rbp), %eax
	addl	$1, %eax
	movl	%eax, -4(%rbp)
	jmp	.LBB1_60
.LBB1_65:
	movl	$0, -4(%rbp)
.LBB1_66:                               # =>This Loop Header: Depth=1
                                        #     Child Loop BB1_70 Depth 2
	cmpl	$4, -4(%rbp)
	jge	.LBB1_80
# %bb.67:                               #   in Loop: Header=BB1_66 Depth=1
	movslq	-4(%rbp), %rax
	movl	is_attacked.rook_o(,%rax,4), %eax
	movl	%eax, -20(%rbp)
	movl	-24(%rbp), %eax
	movslq	-4(%rbp), %rcx
	addl	is_attacked.rook_o(,%rcx,4), %eax
	movl	%eax, -12(%rbp)
	movslq	-12(%rbp), %rax
	movl	board(,%rax,4), %eax
	movl	%eax, -8(%rbp)
	cmpl	$6, -8(%rbp)
	jne	.LBB1_69
# %bb.68:
	movl	$1, -16(%rbp)
	jmp	.LBB1_81
.LBB1_69:                               #   in Loop: Header=BB1_66 Depth=1
	jmp	.LBB1_70
.LBB1_70:                               #   Parent Loop BB1_66 Depth=1
                                        # =>  This Inner Loop Header: Depth=2
	cmpl	$0, -8(%rbp)
	je	.LBB1_77
# %bb.71:                               #   in Loop: Header=BB1_70 Depth=2
	cmpl	$8, -8(%rbp)
	je	.LBB1_73
# %bb.72:                               #   in Loop: Header=BB1_70 Depth=2
	cmpl	$10, -8(%rbp)
	jne	.LBB1_74
.LBB1_73:
	movl	$1, -16(%rbp)
	jmp	.LBB1_81
.LBB1_74:                               #   in Loop: Header=BB1_70 Depth=2
	cmpl	$13, -8(%rbp)
	je	.LBB1_76
# %bb.75:                               #   in Loop: Header=BB1_66 Depth=1
	jmp	.LBB1_78
.LBB1_76:                               #   in Loop: Header=BB1_70 Depth=2
	movl	-20(%rbp), %eax
	addl	-12(%rbp), %eax
	movl	%eax, -12(%rbp)
	movslq	-12(%rbp), %rax
	movl	board(,%rax,4), %eax
	movl	%eax, -8(%rbp)
	jmp	.LBB1_70
.LBB1_77:                               # %.loopexit2
                                        #   in Loop: Header=BB1_66 Depth=1
	jmp	.LBB1_78
.LBB1_78:                               #   in Loop: Header=BB1_66 Depth=1
	jmp	.LBB1_79
.LBB1_79:                               #   in Loop: Header=BB1_66 Depth=1
	movl	-4(%rbp), %eax
	addl	$1, %eax
	movl	%eax, -4(%rbp)
	jmp	.LBB1_66
.LBB1_80:
	movl	$0, -16(%rbp)
.LBB1_81:
	movl	-16(%rbp), %eax
	popq	%rbp
	retq
.Lfunc_end1:
	.size	is_attacked, .Lfunc_end1-is_attacked
	.cfi_endproc
                                        # -- End function
	.globl	nk_attacked             # -- Begin function nk_attacked
	.p2align	4, 0x90
	.type	nk_attacked,@function
nk_attacked:                            # @nk_attacked
	.cfi_startproc
# %bb.0:
	pushq	%rbp
	.cfi_def_cfa_offset 16
	.cfi_offset %rbp, -16
	movq	%rsp, %rbp
	.cfi_def_cfa_register %rbp
	movl	%edi, -24(%rbp)
	movl	%esi, -28(%rbp)
	movl	-28(%rbp), %eax
	andl	$1, %eax
	cmpl	$0, %eax
	je	.LBB2_37
# %bb.1:
	movl	$0, -4(%rbp)
.LBB2_2:                                # =>This Loop Header: Depth=1
                                        #     Child Loop BB2_7 Depth 2
	cmpl	$4, -4(%rbp)
	jge	.LBB2_17
# %bb.3:                                #   in Loop: Header=BB2_2 Depth=1
	movslq	-4(%rbp), %rax
	movl	nk_attacked.bishop_o(,%rax,4), %eax
	movl	%eax, -16(%rbp)
	movl	-24(%rbp), %eax
	addl	-16(%rbp), %eax
	movl	%eax, -12(%rbp)
	movslq	-12(%rbp), %rax
	movl	board(,%rax,4), %eax
	movl	%eax, -8(%rbp)
	cmpl	$1, -8(%rbp)
	jne	.LBB2_6
# %bb.4:                                #   in Loop: Header=BB2_2 Depth=1
	movl	-4(%rbp), %eax
	andl	$1, %eax
	cmpl	$0, %eax
	je	.LBB2_6
# %bb.5:
	movl	$1, -20(%rbp)
	jmp	.LBB2_73
.LBB2_6:                                #   in Loop: Header=BB2_2 Depth=1
	jmp	.LBB2_7
.LBB2_7:                                #   Parent Loop BB2_2 Depth=1
                                        # =>  This Inner Loop Header: Depth=2
	cmpl	$0, -8(%rbp)
	je	.LBB2_14
# %bb.8:                                #   in Loop: Header=BB2_7 Depth=2
	cmpl	$11, -8(%rbp)
	je	.LBB2_10
# %bb.9:                                #   in Loop: Header=BB2_7 Depth=2
	cmpl	$9, -8(%rbp)
	jne	.LBB2_11
.LBB2_10:
	movl	$1, -20(%rbp)
	jmp	.LBB2_73
.LBB2_11:                               #   in Loop: Header=BB2_7 Depth=2
	cmpl	$13, -8(%rbp)
	je	.LBB2_13
# %bb.12:                               #   in Loop: Header=BB2_2 Depth=1
	jmp	.LBB2_15
.LBB2_13:                               #   in Loop: Header=BB2_7 Depth=2
	movl	-16(%rbp), %eax
	addl	-12(%rbp), %eax
	movl	%eax, -12(%rbp)
	movslq	-12(%rbp), %rax
	movl	board(,%rax,4), %eax
	movl	%eax, -8(%rbp)
	jmp	.LBB2_7
.LBB2_14:                               # %.loopexit1
                                        #   in Loop: Header=BB2_2 Depth=1
	jmp	.LBB2_15
.LBB2_15:                               #   in Loop: Header=BB2_2 Depth=1
	jmp	.LBB2_16
.LBB2_16:                               #   in Loop: Header=BB2_2 Depth=1
	movl	-4(%rbp), %eax
	addl	$1, %eax
	movl	%eax, -4(%rbp)
	jmp	.LBB2_2
.LBB2_17:
	movl	$0, -4(%rbp)
.LBB2_18:                               # =>This Inner Loop Header: Depth=1
	cmpl	$8, -4(%rbp)
	jge	.LBB2_23
# %bb.19:                               #   in Loop: Header=BB2_18 Depth=1
	movl	-24(%rbp), %eax
	movslq	-4(%rbp), %rcx
	addl	nk_attacked.knight_o(,%rcx,4), %eax
	cltq
	cmpl	$3, board(,%rax,4)
	jne	.LBB2_21
# %bb.20:
	movl	$1, -20(%rbp)
	jmp	.LBB2_73
.LBB2_21:                               #   in Loop: Header=BB2_18 Depth=1
	jmp	.LBB2_22
.LBB2_22:                               #   in Loop: Header=BB2_18 Depth=1
	movl	-4(%rbp), %eax
	addl	$1, %eax
	movl	%eax, -4(%rbp)
	jmp	.LBB2_18
.LBB2_23:
	movl	$0, -4(%rbp)
.LBB2_24:                               # =>This Loop Header: Depth=1
                                        #     Child Loop BB2_26 Depth 2
	cmpl	$4, -4(%rbp)
	jge	.LBB2_36
# %bb.25:                               #   in Loop: Header=BB2_24 Depth=1
	movslq	-4(%rbp), %rax
	movl	nk_attacked.rook_o(,%rax,4), %eax
	movl	%eax, -16(%rbp)
	movl	-24(%rbp), %eax
	addl	-16(%rbp), %eax
	movl	%eax, -12(%rbp)
	movslq	-12(%rbp), %rax
	movl	board(,%rax,4), %eax
	movl	%eax, -8(%rbp)
.LBB2_26:                               #   Parent Loop BB2_24 Depth=1
                                        # =>  This Inner Loop Header: Depth=2
	cmpl	$0, -8(%rbp)
	je	.LBB2_33
# %bb.27:                               #   in Loop: Header=BB2_26 Depth=2
	cmpl	$7, -8(%rbp)
	je	.LBB2_29
# %bb.28:                               #   in Loop: Header=BB2_26 Depth=2
	cmpl	$9, -8(%rbp)
	jne	.LBB2_30
.LBB2_29:
	movl	$1, -20(%rbp)
	jmp	.LBB2_73
.LBB2_30:                               #   in Loop: Header=BB2_26 Depth=2
	cmpl	$13, -8(%rbp)
	je	.LBB2_32
# %bb.31:                               #   in Loop: Header=BB2_24 Depth=1
	jmp	.LBB2_34
.LBB2_32:                               #   in Loop: Header=BB2_26 Depth=2
	movl	-16(%rbp), %eax
	addl	-12(%rbp), %eax
	movl	%eax, -12(%rbp)
	movslq	-12(%rbp), %rax
	movl	board(,%rax,4), %eax
	movl	%eax, -8(%rbp)
	jmp	.LBB2_26
.LBB2_33:                               # %.loopexit
                                        #   in Loop: Header=BB2_24 Depth=1
	jmp	.LBB2_34
.LBB2_34:                               #   in Loop: Header=BB2_24 Depth=1
	jmp	.LBB2_35
.LBB2_35:                               #   in Loop: Header=BB2_24 Depth=1
	movl	-4(%rbp), %eax
	addl	$1, %eax
	movl	%eax, -4(%rbp)
	jmp	.LBB2_24
.LBB2_36:
	movl	$0, -20(%rbp)
	jmp	.LBB2_73
.LBB2_37:
	movl	$0, -4(%rbp)
.LBB2_38:                               # =>This Loop Header: Depth=1
                                        #     Child Loop BB2_43 Depth 2
	cmpl	$4, -4(%rbp)
	jge	.LBB2_53
# %bb.39:                               #   in Loop: Header=BB2_38 Depth=1
	movslq	-4(%rbp), %rax
	movl	nk_attacked.bishop_o(,%rax,4), %eax
	movl	%eax, -16(%rbp)
	movl	-24(%rbp), %eax
	addl	-16(%rbp), %eax
	movl	%eax, -12(%rbp)
	movslq	-12(%rbp), %rax
	movl	board(,%rax,4), %eax
	movl	%eax, -8(%rbp)
	cmpl	$2, -8(%rbp)
	jne	.LBB2_42
# %bb.40:                               #   in Loop: Header=BB2_38 Depth=1
	movl	-4(%rbp), %eax
	andl	$1, %eax
	cmpl	$0, %eax
	jne	.LBB2_42
# %bb.41:
	movl	$1, -20(%rbp)
	jmp	.LBB2_73
.LBB2_42:                               #   in Loop: Header=BB2_38 Depth=1
	jmp	.LBB2_43
.LBB2_43:                               #   Parent Loop BB2_38 Depth=1
                                        # =>  This Inner Loop Header: Depth=2
	cmpl	$0, -8(%rbp)
	je	.LBB2_50
# %bb.44:                               #   in Loop: Header=BB2_43 Depth=2
	cmpl	$12, -8(%rbp)
	je	.LBB2_46
# %bb.45:                               #   in Loop: Header=BB2_43 Depth=2
	cmpl	$10, -8(%rbp)
	jne	.LBB2_47
.LBB2_46:
	movl	$1, -20(%rbp)
	jmp	.LBB2_73
.LBB2_47:                               #   in Loop: Header=BB2_43 Depth=2
	cmpl	$13, -8(%rbp)
	je	.LBB2_49
# %bb.48:                               #   in Loop: Header=BB2_38 Depth=1
	jmp	.LBB2_51
.LBB2_49:                               #   in Loop: Header=BB2_43 Depth=2
	movl	-16(%rbp), %eax
	addl	-12(%rbp), %eax
	movl	%eax, -12(%rbp)
	movslq	-12(%rbp), %rax
	movl	board(,%rax,4), %eax
	movl	%eax, -8(%rbp)
	jmp	.LBB2_43
.LBB2_50:                               # %.loopexit3
                                        #   in Loop: Header=BB2_38 Depth=1
	jmp	.LBB2_51
.LBB2_51:                               #   in Loop: Header=BB2_38 Depth=1
	jmp	.LBB2_52
.LBB2_52:                               #   in Loop: Header=BB2_38 Depth=1
	movl	-4(%rbp), %eax
	addl	$1, %eax
	movl	%eax, -4(%rbp)
	jmp	.LBB2_38
.LBB2_53:
	movl	$0, -4(%rbp)
.LBB2_54:                               # =>This Inner Loop Header: Depth=1
	cmpl	$8, -4(%rbp)
	jge	.LBB2_59
# %bb.55:                               #   in Loop: Header=BB2_54 Depth=1
	movl	-24(%rbp), %eax
	movslq	-4(%rbp), %rcx
	addl	nk_attacked.knight_o(,%rcx,4), %eax
	cltq
	cmpl	$4, board(,%rax,4)
	jne	.LBB2_57
# %bb.56:
	movl	$1, -20(%rbp)
	jmp	.LBB2_73
.LBB2_57:                               #   in Loop: Header=BB2_54 Depth=1
	jmp	.LBB2_58
.LBB2_58:                               #   in Loop: Header=BB2_54 Depth=1
	movl	-4(%rbp), %eax
	addl	$1, %eax
	movl	%eax, -4(%rbp)
	jmp	.LBB2_54
.LBB2_59:
	movl	$0, -4(%rbp)
.LBB2_60:                               # =>This Loop Header: Depth=1
                                        #     Child Loop BB2_62 Depth 2
	cmpl	$4, -4(%rbp)
	jge	.LBB2_72
# %bb.61:                               #   in Loop: Header=BB2_60 Depth=1
	movslq	-4(%rbp), %rax
	movl	nk_attacked.rook_o(,%rax,4), %eax
	movl	%eax, -16(%rbp)
	movl	-24(%rbp), %eax
	movslq	-4(%rbp), %rcx
	addl	nk_attacked.rook_o(,%rcx,4), %eax
	movl	%eax, -12(%rbp)
	movslq	-12(%rbp), %rax
	movl	board(,%rax,4), %eax
	movl	%eax, -8(%rbp)
.LBB2_62:                               #   Parent Loop BB2_60 Depth=1
                                        # =>  This Inner Loop Header: Depth=2
	cmpl	$0, -8(%rbp)
	je	.LBB2_69
# %bb.63:                               #   in Loop: Header=BB2_62 Depth=2
	cmpl	$8, -8(%rbp)
	je	.LBB2_65
# %bb.64:                               #   in Loop: Header=BB2_62 Depth=2
	cmpl	$10, -8(%rbp)
	jne	.LBB2_66
.LBB2_65:
	movl	$1, -20(%rbp)
	jmp	.LBB2_73
.LBB2_66:                               #   in Loop: Header=BB2_62 Depth=2
	cmpl	$13, -8(%rbp)
	je	.LBB2_68
# %bb.67:                               #   in Loop: Header=BB2_60 Depth=1
	jmp	.LBB2_70
.LBB2_68:                               #   in Loop: Header=BB2_62 Depth=2
	movl	-16(%rbp), %eax
	addl	-12(%rbp), %eax
	movl	%eax, -12(%rbp)
	movslq	-12(%rbp), %rax
	movl	board(,%rax,4), %eax
	movl	%eax, -8(%rbp)
	jmp	.LBB2_62
.LBB2_69:                               # %.loopexit2
                                        #   in Loop: Header=BB2_60 Depth=1
	jmp	.LBB2_70
.LBB2_70:                               #   in Loop: Header=BB2_60 Depth=1
	jmp	.LBB2_71
.LBB2_71:                               #   in Loop: Header=BB2_60 Depth=1
	movl	-4(%rbp), %eax
	addl	$1, %eax
	movl	%eax, -4(%rbp)
	jmp	.LBB2_60
.LBB2_72:
	movl	$0, -20(%rbp)
.LBB2_73:
	movl	-20(%rbp), %eax
	popq	%rbp
	retq
.Lfunc_end2:
	.size	nk_attacked, .Lfunc_end2-nk_attacked
	.cfi_endproc
                                        # -- End function
	.globl	init_book               # -- Begin function init_book
	.p2align	4, 0x90
	.type	init_book,@function
init_book:                              # @init_book
	.cfi_startproc
# %bb.0:
	pushq	%rbp
	.cfi_def_cfa_offset 16
	.cfi_offset %rbp, -16
	movq	%rsp, %rbp
	.cfi_def_cfa_register %rbp
	movl	$1, %eax
	popq	%rbp
	retq
.Lfunc_end3:
	.size	init_book, .Lfunc_end3-init_book
	.cfi_endproc
                                        # -- End function
	.globl	choose_book_move        # -- Begin function choose_book_move
	.p2align	4, 0x90
	.type	choose_book_move,@function
choose_book_move:                       # @choose_book_move
	.cfi_startproc
# %bb.0:
	pushq	%rbp
	.cfi_def_cfa_offset 16
	.cfi_offset %rbp, -16
	movq	%rsp, %rbp
	.cfi_def_cfa_register %rbp
	movq	dummy, %rax
	movq	%rax, (%rdi)
	movq	dummy+8, %rax
	movq	%rax, 8(%rdi)
	movq	dummy+16, %rax
	movq	%rax, 16(%rdi)
	movq	%rdi, %rax
	popq	%rbp
	retq
.Lfunc_end4:
	.size	choose_book_move, .Lfunc_end4-choose_book_move
	.cfi_endproc
                                        # -- End function
	.globl	ProcessHoldings         # -- Begin function ProcessHoldings
	.p2align	4, 0x90
	.type	ProcessHoldings,@function
ProcessHoldings:                        # @ProcessHoldings
	.cfi_startproc
# %bb.0:
	pushq	%rbp
	.cfi_def_cfa_offset 16
	.cfi_offset %rbp, -16
	movq	%rsp, %rbp
	.cfi_def_cfa_register %rbp
	subq	$16, %rsp
	movabsq	$holding, %rax
	movq	%rdi, -16(%rbp)
	movl	$0, -8(%rbp)
	movq	%rax, %rdi
	xorl	%esi, %esi
	movl	$128, %edx
	callq	memset
	movl	$-1056969216, hold_hash # imm = 0xC0FFEE00
	movl	$0, white_hand_eval
	movl	$0, black_hand_eval
	callq	reset_ecache
	movl	$0, num_holding
	movl	$0, num_holding+4
	movl	$0, -4(%rbp)
.LBB5_1:                                # =>This Loop Header: Depth=1
                                        #     Child Loop BB5_3 Depth 2
                                        #     Child Loop BB5_8 Depth 2
	cmpl	$1, -4(%rbp)
	jg	.LBB5_20
# %bb.2:                                #   in Loop: Header=BB5_1 Depth=1
	jmp	.LBB5_3
.LBB5_3:                                #   Parent Loop BB5_1 Depth=1
                                        # =>  This Inner Loop Header: Depth=2
	movq	-16(%rbp), %rax
	movl	-8(%rbp), %ecx
	movl	%ecx, %edx
	addl	$1, %edx
	movl	%edx, -8(%rbp)
	movslq	%ecx, %rcx
	movsbl	(%rax,%rcx), %eax
	cmpl	$91, %eax
	je	.LBB5_7
# %bb.4:                                #   in Loop: Header=BB5_3 Depth=2
	movq	-16(%rbp), %rax
	movslq	-8(%rbp), %rcx
	movsbl	(%rax,%rcx), %eax
	cmpl	$0, %eax
	jne	.LBB5_6
# %bb.5:
	jmp	.LBB5_46
.LBB5_6:                                #   in Loop: Header=BB5_3 Depth=2
	jmp	.LBB5_3
.LBB5_7:                                #   in Loop: Header=BB5_1 Depth=1
	jmp	.LBB5_8
.LBB5_8:                                #   Parent Loop BB5_1 Depth=1
                                        # =>  This Inner Loop Header: Depth=2
	movq	-16(%rbp), %rax
	movslq	-8(%rbp), %rcx
	movsbl	(%rax,%rcx), %eax
	cmpl	$93, %eax
	je	.LBB5_18
# %bb.9:                                #   in Loop: Header=BB5_8 Depth=2
	movq	-16(%rbp), %rax
	movslq	-8(%rbp), %rcx
	movl	%ecx, %edx
	addl	$1, %edx
	movl	%edx, -8(%rbp)
	movsbl	(%rax,%rcx), %eax
	addl	$-66, %eax
	movl	%eax, %ecx
	subl	$48, %ecx
	ja	.LBB5_16
# %bb.10:                               #   in Loop: Header=BB5_8 Depth=2
	movq	.LJTI5_0(,%rax,8), %rax
	jmpq	*%rax
.LBB5_11:                               #   in Loop: Header=BB5_8 Depth=2
	movl	$2, %r9d
	movl	$1, %r8d
	movabsq	$holding, %rsi
	movabsq	$zobrist, %rdx
	movslq	-4(%rbp), %rdi
	shlq	$6, %rdi
	movq	%rsi, %rcx
	addq	%rdi, %rcx
	movl	-4(%rbp), %edi
	cmpl	$0, %edi
	movl	$2, %edi
	cmovel	%r8d, %edi
	movslq	%edi, %rdi
	movl	(%rcx,%rdi,4), %eax
	addl	$1, %eax
	movl	%eax, (%rcx,%rdi,4)
	movslq	-4(%rbp), %rax
	movl	num_holding(,%rax,4), %ecx
	addl	$1, %ecx
	movl	%ecx, num_holding(,%rax,4)
	movl	-4(%rbp), %eax
	cmpl	$0, %eax
	movl	$2, %eax
	cmovel	%r8d, %eax
	cltq
	imulq	$576, %rax, %rax        # imm = 0x240
	addq	%rax, %rdx
	movslq	-4(%rbp), %rax
	shlq	$6, %rax
	addq	%rax, %rsi
	movl	-4(%rbp), %eax
	cmpl	$0, %eax
	cmovel	%r8d, %r9d
	movslq	%r9d, %rax
	movslq	(%rsi,%rax,4), %rax
	movl	(%rdx,%rax,4), %eax
	xorl	hold_hash, %eax
	movl	%eax, hold_hash
	jmp	.LBB5_17
.LBB5_12:                               #   in Loop: Header=BB5_8 Depth=2
	movl	$10, %r9d
	movl	$9, %r8d
	movabsq	$holding, %rsi
	movabsq	$zobrist, %rdx
	movslq	-4(%rbp), %rdi
	shlq	$6, %rdi
	movq	%rsi, %rcx
	addq	%rdi, %rcx
	movl	-4(%rbp), %edi
	cmpl	$0, %edi
	movl	$10, %edi
	cmovel	%r8d, %edi
	movslq	%edi, %rdi
	movl	(%rcx,%rdi,4), %eax
	addl	$1, %eax
	movl	%eax, (%rcx,%rdi,4)
	movslq	-4(%rbp), %rax
	movl	num_holding(,%rax,4), %ecx
	addl	$1, %ecx
	movl	%ecx, num_holding(,%rax,4)
	movl	-4(%rbp), %eax
	cmpl	$0, %eax
	movl	$10, %eax
	cmovel	%r8d, %eax
	cltq
	imulq	$576, %rax, %rax        # imm = 0x240
	addq	%rax, %rdx
	movslq	-4(%rbp), %rax
	shlq	$6, %rax
	addq	%rax, %rsi
	movl	-4(%rbp), %eax
	cmpl	$0, %eax
	cmovel	%r8d, %r9d
	movslq	%r9d, %rax
	movslq	(%rsi,%rax,4), %rax
	movl	(%rdx,%rax,4), %eax
	xorl	hold_hash, %eax
	movl	%eax, hold_hash
	jmp	.LBB5_17
.LBB5_13:                               #   in Loop: Header=BB5_8 Depth=2
	movl	$8, %r9d
	movl	$7, %r8d
	movabsq	$holding, %rsi
	movabsq	$zobrist, %rdx
	movslq	-4(%rbp), %rdi
	shlq	$6, %rdi
	movq	%rsi, %rcx
	addq	%rdi, %rcx
	movl	-4(%rbp), %edi
	cmpl	$0, %edi
	movl	$8, %edi
	cmovel	%r8d, %edi
	movslq	%edi, %rdi
	movl	(%rcx,%rdi,4), %eax
	addl	$1, %eax
	movl	%eax, (%rcx,%rdi,4)
	movslq	-4(%rbp), %rax
	movl	num_holding(,%rax,4), %ecx
	addl	$1, %ecx
	movl	%ecx, num_holding(,%rax,4)
	movl	-4(%rbp), %eax
	cmpl	$0, %eax
	movl	$8, %eax
	cmovel	%r8d, %eax
	cltq
	imulq	$576, %rax, %rax        # imm = 0x240
	addq	%rax, %rdx
	movslq	-4(%rbp), %rax
	shlq	$6, %rax
	addq	%rax, %rsi
	movl	-4(%rbp), %eax
	cmpl	$0, %eax
	cmovel	%r8d, %r9d
	movslq	%r9d, %rax
	movslq	(%rsi,%rax,4), %rax
	movl	(%rdx,%rax,4), %eax
	xorl	hold_hash, %eax
	movl	%eax, hold_hash
	jmp	.LBB5_17
.LBB5_14:                               #   in Loop: Header=BB5_8 Depth=2
	movl	$12, %r9d
	movl	$11, %r8d
	movabsq	$holding, %rsi
	movabsq	$zobrist, %rdx
	movslq	-4(%rbp), %rdi
	shlq	$6, %rdi
	movq	%rsi, %rcx
	addq	%rdi, %rcx
	movl	-4(%rbp), %edi
	cmpl	$0, %edi
	movl	$12, %edi
	cmovel	%r8d, %edi
	movslq	%edi, %rdi
	movl	(%rcx,%rdi,4), %eax
	addl	$1, %eax
	movl	%eax, (%rcx,%rdi,4)
	movslq	-4(%rbp), %rax
	movl	num_holding(,%rax,4), %ecx
	addl	$1, %ecx
	movl	%ecx, num_holding(,%rax,4)
	movl	-4(%rbp), %eax
	cmpl	$0, %eax
	movl	$12, %eax
	cmovel	%r8d, %eax
	cltq
	imulq	$576, %rax, %rax        # imm = 0x240
	addq	%rax, %rdx
	movslq	-4(%rbp), %rax
	shlq	$6, %rax
	addq	%rax, %rsi
	movl	-4(%rbp), %eax
	cmpl	$0, %eax
	cmovel	%r8d, %r9d
	movslq	%r9d, %rax
	movslq	(%rsi,%rax,4), %rax
	movl	(%rdx,%rax,4), %eax
	xorl	hold_hash, %eax
	movl	%eax, hold_hash
	jmp	.LBB5_17
.LBB5_15:                               #   in Loop: Header=BB5_8 Depth=2
	movl	$4, %r9d
	movl	$3, %r8d
	movabsq	$holding, %rsi
	movabsq	$zobrist, %rdx
	movslq	-4(%rbp), %rdi
	shlq	$6, %rdi
	movq	%rsi, %rcx
	addq	%rdi, %rcx
	movl	-4(%rbp), %edi
	cmpl	$0, %edi
	movl	$4, %edi
	cmovel	%r8d, %edi
	movslq	%edi, %rdi
	movl	(%rcx,%rdi,4), %eax
	addl	$1, %eax
	movl	%eax, (%rcx,%rdi,4)
	movslq	-4(%rbp), %rax
	movl	num_holding(,%rax,4), %ecx
	addl	$1, %ecx
	movl	%ecx, num_holding(,%rax,4)
	movl	-4(%rbp), %eax
	cmpl	$0, %eax
	movl	$4, %eax
	cmovel	%r8d, %eax
	cltq
	imulq	$576, %rax, %rax        # imm = 0x240
	addq	%rax, %rdx
	movslq	-4(%rbp), %rax
	shlq	$6, %rax
	addq	%rax, %rsi
	movl	-4(%rbp), %eax
	cmpl	$0, %eax
	cmovel	%r8d, %r9d
	movslq	%r9d, %rax
	movslq	(%rsi,%rax,4), %rax
	movl	(%rdx,%rax,4), %eax
	xorl	hold_hash, %eax
	movl	%eax, hold_hash
	jmp	.LBB5_17
.LBB5_16:
	jmp	.LBB5_46
.LBB5_17:                               #   in Loop: Header=BB5_8 Depth=2
	jmp	.LBB5_8
.LBB5_18:                               #   in Loop: Header=BB5_1 Depth=1
	jmp	.LBB5_19
.LBB5_19:                               #   in Loop: Header=BB5_1 Depth=1
	movl	-4(%rbp), %eax
	addl	$1, %eax
	movl	%eax, -4(%rbp)
	jmp	.LBB5_1
.LBB5_20:
	cmpl	$1, Variant
	jne	.LBB5_46
# %bb.21:
	cmpl	$0, userealholdings
	jne	.LBB5_46
# %bb.22:
	movabsq	$realholdings, %rdi
	movq	-16(%rbp), %rsi
	movl	$200, %edx
	callq	strncpy
	cmpl	$1, comp_color
	jne	.LBB5_34
# %bb.23:
	cmpl	$0, holding+72
	jne	.LBB5_25
# %bb.24:
	movl	holding+72, %eax
	addl	$1, %eax
	movl	%eax, holding+72
	movl	num_holding+4, %eax
	addl	$1, %eax
	movl	%eax, num_holding+4
	movslq	holding+72, %rax
	movl	zobrist+1152(,%rax,4), %eax
	xorl	hold_hash, %eax
	movl	%eax, hold_hash
.LBB5_25:
	cmpl	$0, holding+112
	jne	.LBB5_27
# %bb.26:
	movl	holding+112, %eax
	addl	$1, %eax
	movl	%eax, holding+112
	movl	num_holding+4, %eax
	addl	$1, %eax
	movl	%eax, num_holding+4
	movslq	holding+112, %rax
	movl	zobrist+1152(,%rax,4), %eax
	xorl	hold_hash, %eax
	movl	%eax, hold_hash
.LBB5_27:
	cmpl	$0, holding+80
	jne	.LBB5_29
# %bb.28:
	movl	holding+80, %eax
	addl	$1, %eax
	movl	%eax, holding+80
	movl	num_holding+4, %eax
	addl	$1, %eax
	movl	%eax, num_holding+4
	movslq	holding+80, %rax
	movl	zobrist+2304(,%rax,4), %eax
	xorl	hold_hash, %eax
	movl	%eax, hold_hash
.LBB5_29:
	cmpl	$0, holding+96
	jne	.LBB5_31
# %bb.30:
	movl	holding+96, %eax
	addl	$1, %eax
	movl	%eax, holding+96
	movl	num_holding+4, %eax
	addl	$1, %eax
	movl	%eax, num_holding+4
	movslq	holding+96, %rax
	movl	zobrist+2304(,%rax,4), %eax
	xorl	hold_hash, %eax
	movl	%eax, hold_hash
.LBB5_31:
	cmpl	$0, holding+104
	jne	.LBB5_33
# %bb.32:
	movl	holding+104, %eax
	addl	$1, %eax
	movl	%eax, holding+104
	movl	num_holding+4, %eax
	addl	$1, %eax
	movl	%eax, num_holding+4
	movslq	holding+104, %rax
	movl	zobrist+2304(,%rax,4), %eax
	xorl	hold_hash, %eax
	movl	%eax, hold_hash
.LBB5_33:
	jmp	.LBB5_45
.LBB5_34:
	cmpl	$0, holding+36
	jne	.LBB5_36
# %bb.35:
	movl	holding+36, %eax
	addl	$1, %eax
	movl	%eax, holding+36
	movl	num_holding, %eax
	addl	$1, %eax
	movl	%eax, num_holding
	movslq	holding+36, %rax
	movl	zobrist+5184(,%rax,4), %eax
	xorl	hold_hash, %eax
	movl	%eax, hold_hash
.LBB5_36:
	cmpl	$0, holding+28
	jne	.LBB5_38
# %bb.37:
	movl	holding+28, %eax
	addl	$1, %eax
	movl	%eax, holding+28
	movl	num_holding, %eax
	addl	$1, %eax
	movl	%eax, num_holding
	movslq	holding+28, %rax
	movl	zobrist+5184(,%rax,4), %eax
	xorl	hold_hash, %eax
	movl	%eax, hold_hash
.LBB5_38:
	cmpl	$0, holding+44
	jne	.LBB5_40
# %bb.39:
	movl	holding+44, %eax
	addl	$1, %eax
	movl	%eax, holding+44
	movl	num_holding, %eax
	addl	$1, %eax
	movl	%eax, num_holding
	movslq	holding+44, %rax
	movl	zobrist+5184(,%rax,4), %eax
	xorl	hold_hash, %eax
	movl	%eax, hold_hash
.LBB5_40:
	cmpl	$0, holding+12
	jne	.LBB5_42
# %bb.41:
	movl	holding+12, %eax
	addl	$1, %eax
	movl	%eax, holding+12
	movl	num_holding, %eax
	addl	$1, %eax
	movl	%eax, num_holding
	movslq	holding+12, %rax
	movl	zobrist+5184(,%rax,4), %eax
	xorl	hold_hash, %eax
	movl	%eax, hold_hash
.LBB5_42:
	cmpl	$0, holding+4
	jne	.LBB5_44
# %bb.43:
	movl	holding+4, %eax
	addl	$1, %eax
	movl	%eax, holding+4
	movl	num_holding, %eax
	addl	$1, %eax
	movl	%eax, num_holding
	movslq	holding+4, %rax
	movl	zobrist+5184(,%rax,4), %eax
	xorl	hold_hash, %eax
	movl	%eax, hold_hash
.LBB5_44:
	jmp	.LBB5_45
.LBB5_45:
	jmp	.LBB5_46
.LBB5_46:
	addq	$16, %rsp
	popq	%rbp
	retq
.Lfunc_end5:
	.size	ProcessHoldings, .Lfunc_end5-ProcessHoldings
	.cfi_endproc
	.section	.rodata,"a",@progbits
	.p2align	3
.LJTI5_0:
	.quad	.LBB5_14
	.quad	.LBB5_16
	.quad	.LBB5_16
	.quad	.LBB5_16
	.quad	.LBB5_16
	.quad	.LBB5_16
	.quad	.LBB5_16
	.quad	.LBB5_16
	.quad	.LBB5_16
	.quad	.LBB5_16
	.quad	.LBB5_16
	.quad	.LBB5_16
	.quad	.LBB5_15
	.quad	.LBB5_16
	.quad	.LBB5_11
	.quad	.LBB5_12
	.quad	.LBB5_13
	.quad	.LBB5_16
	.quad	.LBB5_16
	.quad	.LBB5_16
	.quad	.LBB5_16
	.quad	.LBB5_16
	.quad	.LBB5_16
	.quad	.LBB5_16
	.quad	.LBB5_16
	.quad	.LBB5_16
	.quad	.LBB5_16
	.quad	.LBB5_16
	.quad	.LBB5_16
	.quad	.LBB5_16
	.quad	.LBB5_16
	.quad	.LBB5_16
	.quad	.LBB5_14
	.quad	.LBB5_16
	.quad	.LBB5_16
	.quad	.LBB5_16
	.quad	.LBB5_16
	.quad	.LBB5_16
	.quad	.LBB5_16
	.quad	.LBB5_16
	.quad	.LBB5_16
	.quad	.LBB5_16
	.quad	.LBB5_16
	.quad	.LBB5_16
	.quad	.LBB5_15
	.quad	.LBB5_16
	.quad	.LBB5_11
	.quad	.LBB5_12
	.quad	.LBB5_13
                                        # -- End function
	.text
	.globl	text_to_piece           # -- Begin function text_to_piece
	.p2align	4, 0x90
	.type	text_to_piece,@function
text_to_piece:                          # @text_to_piece
	.cfi_startproc
# %bb.0:
	pushq	%rbp
	.cfi_def_cfa_offset 16
	.cfi_offset %rbp, -16
	movq	%rsp, %rbp
	.cfi_def_cfa_register %rbp
	movb	%dil, -1(%rbp)
	movl	%esi, -12(%rbp)
	movsbl	-1(%rbp), %eax
	addl	$-66, %eax
	movl	%eax, %ecx
	subl	$48, %ecx
	ja	.LBB6_7
# %bb.1:
	movq	.LJTI6_0(,%rax,8), %rax
	jmpq	*%rax
.LBB6_2:
	movl	$2, %eax
	movl	$1, %ecx
	movl	-12(%rbp), %edx
	cmpl	$0, %edx
	cmovel	%ecx, %eax
	movl	%eax, -8(%rbp)
	jmp	.LBB6_8
.LBB6_3:
	movl	$12, %eax
	movl	$11, %ecx
	movl	-12(%rbp), %edx
	cmpl	$0, %edx
	cmovel	%ecx, %eax
	movl	%eax, -8(%rbp)
	jmp	.LBB6_8
.LBB6_4:
	movl	$4, %eax
	movl	$3, %ecx
	movl	-12(%rbp), %edx
	cmpl	$0, %edx
	cmovel	%ecx, %eax
	movl	%eax, -8(%rbp)
	jmp	.LBB6_8
.LBB6_5:
	movl	$8, %eax
	movl	$7, %ecx
	movl	-12(%rbp), %edx
	cmpl	$0, %edx
	cmovel	%ecx, %eax
	movl	%eax, -8(%rbp)
	jmp	.LBB6_8
.LBB6_6:
	movl	$10, %eax
	movl	$9, %ecx
	movl	-12(%rbp), %edx
	cmpl	$0, %edx
	cmovel	%ecx, %eax
	movl	%eax, -8(%rbp)
	jmp	.LBB6_8
.LBB6_7:
	movl	$13, -8(%rbp)
.LBB6_8:
	movl	-8(%rbp), %eax
	popq	%rbp
	retq
.Lfunc_end6:
	.size	text_to_piece, .Lfunc_end6-text_to_piece
	.cfi_endproc
	.section	.rodata,"a",@progbits
	.p2align	3
.LJTI6_0:
	.quad	.LBB6_3
	.quad	.LBB6_7
	.quad	.LBB6_7
	.quad	.LBB6_7
	.quad	.LBB6_7
	.quad	.LBB6_7
	.quad	.LBB6_7
	.quad	.LBB6_7
	.quad	.LBB6_7
	.quad	.LBB6_7
	.quad	.LBB6_7
	.quad	.LBB6_7
	.quad	.LBB6_4
	.quad	.LBB6_7
	.quad	.LBB6_2
	.quad	.LBB6_6
	.quad	.LBB6_5
	.quad	.LBB6_7
	.quad	.LBB6_7
	.quad	.LBB6_7
	.quad	.LBB6_7
	.quad	.LBB6_7
	.quad	.LBB6_7
	.quad	.LBB6_7
	.quad	.LBB6_7
	.quad	.LBB6_7
	.quad	.LBB6_7
	.quad	.LBB6_7
	.quad	.LBB6_7
	.quad	.LBB6_7
	.quad	.LBB6_7
	.quad	.LBB6_7
	.quad	.LBB6_3
	.quad	.LBB6_7
	.quad	.LBB6_7
	.quad	.LBB6_7
	.quad	.LBB6_7
	.quad	.LBB6_7
	.quad	.LBB6_7
	.quad	.LBB6_7
	.quad	.LBB6_7
	.quad	.LBB6_7
	.quad	.LBB6_7
	.quad	.LBB6_7
	.quad	.LBB6_4
	.quad	.LBB6_7
	.quad	.LBB6_2
	.quad	.LBB6_6
	.quad	.LBB6_5
                                        # -- End function
	.text
	.globl	SwitchColor             # -- Begin function SwitchColor
	.p2align	4, 0x90
	.type	SwitchColor,@function
SwitchColor:                            # @SwitchColor
	.cfi_startproc
# %bb.0:
	pushq	%rbp
	.cfi_def_cfa_offset 16
	.cfi_offset %rbp, -16
	movq	%rsp, %rbp
	.cfi_def_cfa_register %rbp
	subq	$64, %rsp
	movabsq	$.LSwitchColor.t, %rsi
	leaq	-64(%rbp), %rax
	movl	%edi, -4(%rbp)
	movq	%rax, %rdi
	movl	$52, %edx
	callq	memcpy
	movslq	-4(%rbp), %rax
	movl	-64(%rbp,%rax,4), %eax
	addq	$64, %rsp
	popq	%rbp
	retq
.Lfunc_end7:
	.size	SwitchColor, .Lfunc_end7-SwitchColor
	.cfi_endproc
                                        # -- End function
	.globl	SwitchPromoted          # -- Begin function SwitchPromoted
	.p2align	4, 0x90
	.type	SwitchPromoted,@function
SwitchPromoted:                         # @SwitchPromoted
	.cfi_startproc
# %bb.0:
	pushq	%rbp
	.cfi_def_cfa_offset 16
	.cfi_offset %rbp, -16
	movq	%rsp, %rbp
	.cfi_def_cfa_register %rbp
	subq	$64, %rsp
	movabsq	$.LSwitchPromoted.t, %rsi
	leaq	-64(%rbp), %rax
	movl	%edi, -4(%rbp)
	movq	%rax, %rdi
	movl	$52, %edx
	callq	memcpy
	movslq	-4(%rbp), %rax
	movl	-64(%rbp,%rax,4), %eax
	addq	$64, %rsp
	popq	%rbp
	retq
.Lfunc_end8:
	.size	SwitchPromoted, .Lfunc_end8-SwitchPromoted
	.cfi_endproc
                                        # -- End function
	.globl	addHolding              # -- Begin function addHolding
	.p2align	4, 0x90
	.type	addHolding,@function
addHolding:                             # @addHolding
	.cfi_startproc
# %bb.0:
	pushq	%rbp
	.cfi_def_cfa_offset 16
	.cfi_offset %rbp, -16
	movq	%rsp, %rbp
	.cfi_def_cfa_register %rbp
	movl	%edi, -4(%rbp)
	movl	%esi, -8(%rbp)
	cmpl	$0, Variant
	jne	.LBB9_2
# %bb.1:
	movabsq	$holding, %rax
	movabsq	$zobrist, %rcx
	movslq	-8(%rbp), %rdx
	shlq	$6, %rdx
	movq	%rax, %rsi
	addq	%rdx, %rsi
	movslq	-4(%rbp), %rdx
	movl	(%rsi,%rdx,4), %edi
	addl	$1, %edi
	movl	%edi, (%rsi,%rdx,4)
	movslq	-8(%rbp), %rdx
	movl	num_holding(,%rdx,4), %esi
	addl	$1, %esi
	movl	%esi, num_holding(,%rdx,4)
	movslq	-4(%rbp), %rdx
	imulq	$576, %rdx, %rdx        # imm = 0x240
	addq	%rdx, %rcx
	movslq	-8(%rbp), %rdx
	shlq	$6, %rdx
	addq	%rdx, %rax
	movslq	-4(%rbp), %rdx
	movslq	(%rax,%rdx,4), %rax
	movl	(%rcx,%rax,4), %eax
	xorl	hold_hash, %eax
	movl	%eax, hold_hash
.LBB9_2:
	cmpl	$0, -8(%rbp)
	jne	.LBB9_4
# %bb.3:
	movslq	-4(%rbp), %rax
	movl	hand_value(,%rax,4), %eax
	addl	white_hand_eval, %eax
	movl	%eax, white_hand_eval
	jmp	.LBB9_5
.LBB9_4:
	movslq	-4(%rbp), %rax
	movl	hand_value(,%rax,4), %eax
	addl	black_hand_eval, %eax
	movl	%eax, black_hand_eval
.LBB9_5:
	movslq	-4(%rbp), %rax
	movl	material(,%rax,4), %eax
	addl	Material, %eax
	movl	%eax, Material
	popq	%rbp
	retq
.Lfunc_end9:
	.size	addHolding, .Lfunc_end9-addHolding
	.cfi_endproc
                                        # -- End function
	.globl	removeHolding           # -- Begin function removeHolding
	.p2align	4, 0x90
	.type	removeHolding,@function
removeHolding:                          # @removeHolding
	.cfi_startproc
# %bb.0:
	pushq	%rbp
	.cfi_def_cfa_offset 16
	.cfi_offset %rbp, -16
	movq	%rsp, %rbp
	.cfi_def_cfa_register %rbp
	movl	%edi, -4(%rbp)
	movl	%esi, -8(%rbp)
	cmpl	$0, Variant
	jne	.LBB10_2
# %bb.1:
	movabsq	$holding, %rax
	movabsq	$zobrist, %rcx
	movslq	-4(%rbp), %rdx
	imulq	$576, %rdx, %rdx        # imm = 0x240
	addq	%rdx, %rcx
	movslq	-8(%rbp), %rdx
	shlq	$6, %rdx
	movq	%rax, %rsi
	addq	%rdx, %rsi
	movslq	-4(%rbp), %rdx
	movslq	(%rsi,%rdx,4), %rdx
	movl	(%rcx,%rdx,4), %ecx
	xorl	hold_hash, %ecx
	movl	%ecx, hold_hash
	movslq	-8(%rbp), %rcx
	shlq	$6, %rcx
	addq	%rcx, %rax
	movslq	-4(%rbp), %rcx
	movl	(%rax,%rcx,4), %edx
	addl	$-1, %edx
	movl	%edx, (%rax,%rcx,4)
	movslq	-8(%rbp), %rax
	movl	num_holding(,%rax,4), %ecx
	addl	$-1, %ecx
	movl	%ecx, num_holding(,%rax,4)
.LBB10_2:
	cmpl	$0, -8(%rbp)
	jne	.LBB10_4
# %bb.3:
	movslq	-4(%rbp), %rax
	movl	hand_value(,%rax,4), %eax
	movl	white_hand_eval, %ecx
	subl	%eax, %ecx
	movl	%ecx, white_hand_eval
	jmp	.LBB10_5
.LBB10_4:
	movslq	-4(%rbp), %rax
	movl	hand_value(,%rax,4), %eax
	movl	black_hand_eval, %ecx
	subl	%eax, %ecx
	movl	%ecx, black_hand_eval
.LBB10_5:
	movslq	-4(%rbp), %rax
	movl	material(,%rax,4), %eax
	movl	Material, %ecx
	subl	%eax, %ecx
	movl	%ecx, Material
	popq	%rbp
	retq
.Lfunc_end10:
	.size	removeHolding, .Lfunc_end10-removeHolding
	.cfi_endproc
                                        # -- End function
	.globl	DropaddHolding          # -- Begin function DropaddHolding
	.p2align	4, 0x90
	.type	DropaddHolding,@function
DropaddHolding:                         # @DropaddHolding
	.cfi_startproc
# %bb.0:
	pushq	%rbp
	.cfi_def_cfa_offset 16
	.cfi_offset %rbp, -16
	movq	%rsp, %rbp
	.cfi_def_cfa_register %rbp
	movabsq	$holding, %rax
	movabsq	$zobrist, %rcx
	movl	%edi, -4(%rbp)
	movl	%esi, -8(%rbp)
	movslq	-8(%rbp), %rdx
	shlq	$6, %rdx
	movq	%rax, %rsi
	addq	%rdx, %rsi
	movslq	-4(%rbp), %rdx
	movl	(%rsi,%rdx,4), %edi
	addl	$1, %edi
	movl	%edi, (%rsi,%rdx,4)
	movslq	-8(%rbp), %rdx
	movl	num_holding(,%rdx,4), %esi
	addl	$1, %esi
	movl	%esi, num_holding(,%rdx,4)
	movslq	-4(%rbp), %rdx
	imulq	$576, %rdx, %rdx        # imm = 0x240
	addq	%rdx, %rcx
	movslq	-8(%rbp), %rdx
	shlq	$6, %rdx
	addq	%rdx, %rax
	movslq	-4(%rbp), %rdx
	movslq	(%rax,%rdx,4), %rax
	movl	(%rcx,%rax,4), %eax
	xorl	hold_hash, %eax
	movl	%eax, hold_hash
	cmpl	$0, -8(%rbp)
	jne	.LBB11_2
# %bb.1:
	movslq	-4(%rbp), %rax
	movl	hand_value(,%rax,4), %eax
	addl	white_hand_eval, %eax
	movl	%eax, white_hand_eval
	jmp	.LBB11_3
.LBB11_2:
	movslq	-4(%rbp), %rax
	movl	hand_value(,%rax,4), %eax
	addl	black_hand_eval, %eax
	movl	%eax, black_hand_eval
.LBB11_3:
	movslq	-4(%rbp), %rax
	movl	material(,%rax,4), %eax
	addl	Material, %eax
	movl	%eax, Material
	popq	%rbp
	retq
.Lfunc_end11:
	.size	DropaddHolding, .Lfunc_end11-DropaddHolding
	.cfi_endproc
                                        # -- End function
	.globl	DropremoveHolding       # -- Begin function DropremoveHolding
	.p2align	4, 0x90
	.type	DropremoveHolding,@function
DropremoveHolding:                      # @DropremoveHolding
	.cfi_startproc
# %bb.0:
	pushq	%rbp
	.cfi_def_cfa_offset 16
	.cfi_offset %rbp, -16
	movq	%rsp, %rbp
	.cfi_def_cfa_register %rbp
	movabsq	$holding, %rax
	movabsq	$zobrist, %rcx
	movl	%edi, -4(%rbp)
	movl	%esi, -8(%rbp)
	movslq	-4(%rbp), %rdx
	imulq	$576, %rdx, %rdx        # imm = 0x240
	addq	%rdx, %rcx
	movslq	-8(%rbp), %rdx
	shlq	$6, %rdx
	movq	%rax, %rsi
	addq	%rdx, %rsi
	movslq	-4(%rbp), %rdx
	movslq	(%rsi,%rdx,4), %rdx
	movl	(%rcx,%rdx,4), %ecx
	xorl	hold_hash, %ecx
	movl	%ecx, hold_hash
	movslq	-8(%rbp), %rcx
	shlq	$6, %rcx
	addq	%rcx, %rax
	movslq	-4(%rbp), %rcx
	movl	(%rax,%rcx,4), %edx
	addl	$-1, %edx
	movl	%edx, (%rax,%rcx,4)
	movslq	-8(%rbp), %rax
	movl	num_holding(,%rax,4), %ecx
	addl	$-1, %ecx
	movl	%ecx, num_holding(,%rax,4)
	cmpl	$0, -8(%rbp)
	jne	.LBB12_2
# %bb.1:
	movslq	-4(%rbp), %rax
	movl	hand_value(,%rax,4), %eax
	movl	white_hand_eval, %ecx
	subl	%eax, %ecx
	movl	%ecx, white_hand_eval
	jmp	.LBB12_3
.LBB12_2:
	movslq	-4(%rbp), %rax
	movl	hand_value(,%rax,4), %eax
	movl	black_hand_eval, %ecx
	subl	%eax, %ecx
	movl	%ecx, black_hand_eval
.LBB12_3:
	movslq	-4(%rbp), %rax
	movl	material(,%rax,4), %eax
	movl	Material, %ecx
	subl	%eax, %ecx
	movl	%ecx, Material
	popq	%rbp
	retq
.Lfunc_end12:
	.size	DropremoveHolding, .Lfunc_end12-DropremoveHolding
	.cfi_endproc
                                        # -- End function
	.globl	printHolding            # -- Begin function printHolding
	.p2align	4, 0x90
	.type	printHolding,@function
printHolding:                           # @printHolding
	.cfi_startproc
# %bb.0:
	pushq	%rbp
	.cfi_def_cfa_offset 16
	.cfi_offset %rbp, -16
	movq	%rsp, %rbp
	.cfi_def_cfa_register %rbp
	movabsq	$.L.str, %rdi
	movl	holding+4, %esi
	movl	holding+28, %edx
	movl	holding+44, %ecx
	movl	holding+12, %r8d
	movl	holding+36, %r9d
	movb	$0, %al
	callq	printf
	movabsq	$.L.str.1, %rdi
	movl	holding+72, %esi
	movl	holding+96, %edx
	movl	holding+112, %ecx
	movl	holding+80, %r8d
	movl	holding+104, %r9d
	movb	$0, %al
	callq	printf
	popq	%rbp
	retq
.Lfunc_end13:
	.size	printHolding, .Lfunc_end13-printHolding
	.cfi_endproc
                                        # -- End function
	.globl	is_draw                 # -- Begin function is_draw
	.p2align	4, 0x90
	.type	is_draw,@function
is_draw:                                # @is_draw
	.cfi_startproc
# %bb.0:
	pushq	%rbp
	.cfi_def_cfa_offset 16
	.cfi_offset %rbp, -16
	movq	%rsp, %rbp
	.cfi_def_cfa_register %rbp
	movl	$0, -12(%rbp)
	cmpl	$4, fifty
	jl	.LBB14_13
# %bb.1:
	movl	move_number, %eax
	movl	move_number, %ecx
	addl	ply, %ecx
	subl	$1, %ecx
	subl	fifty, %ecx
	cmpl	%ecx, %eax
	jge	.LBB14_3
# %bb.2:
	movl	move_number, %eax
	addl	ply, %eax
	subl	$1, %eax
	subl	fifty, %eax
	movl	%eax, -8(%rbp)
	jmp	.LBB14_4
.LBB14_3:
	movl	move_number, %eax
	movl	%eax, -8(%rbp)
.LBB14_4:
	movl	move_number, %eax
	addl	ply, %eax
	subl	$3, %eax
	movl	%eax, -4(%rbp)
.LBB14_5:                               # =>This Inner Loop Header: Depth=1
	xorl	%eax, %eax
	cmpl	$0, -4(%rbp)
	jl	.LBB14_7
# %bb.6:                                #   in Loop: Header=BB14_5 Depth=1
	movl	-4(%rbp), %eax
	cmpl	-8(%rbp), %eax
	setge	%al
.LBB14_7:                               #   in Loop: Header=BB14_5 Depth=1
	testb	$1, %al
	jne	.LBB14_8
	jmp	.LBB14_12
.LBB14_8:                               #   in Loop: Header=BB14_5 Depth=1
	movl	hash, %eax
	movslq	-4(%rbp), %rcx
	cmpl	hash_history(,%rcx,4), %eax
	jne	.LBB14_10
# %bb.9:
	movl	$1, -16(%rbp)
	jmp	.LBB14_26
.LBB14_10:                              #   in Loop: Header=BB14_5 Depth=1
	jmp	.LBB14_11
.LBB14_11:                              #   in Loop: Header=BB14_5 Depth=1
	movl	-4(%rbp), %eax
	subl	$2, %eax
	movl	%eax, -4(%rbp)
	jmp	.LBB14_5
.LBB14_12:
	jmp	.LBB14_13
.LBB14_13:
	cmpl	$6, fifty
	jl	.LBB14_25
# %bb.14:
	movl	$2, %ecx
	movl	move_number, %esi
	subl	$1, %esi
	movl	ply, %eax
	cltd
	idivl	%ecx
	subl	%edx, %esi
	movl	%esi, -20(%rbp)
	movl	move_number, %eax
	addl	ply, %eax
	subl	$1, %eax
	subl	fifty, %eax
	movl	%eax, -8(%rbp)
	movl	-20(%rbp), %eax
	movl	%eax, -4(%rbp)
.LBB14_15:                              # =>This Inner Loop Header: Depth=1
	xorl	%eax, %eax
	cmpl	$0, -4(%rbp)
	jl	.LBB14_17
# %bb.16:                               #   in Loop: Header=BB14_15 Depth=1
	movl	-4(%rbp), %eax
	cmpl	-8(%rbp), %eax
	setge	%al
.LBB14_17:                              #   in Loop: Header=BB14_15 Depth=1
	testb	$1, %al
	jne	.LBB14_18
	jmp	.LBB14_24
.LBB14_18:                              #   in Loop: Header=BB14_15 Depth=1
	movl	hash, %eax
	movslq	-4(%rbp), %rcx
	cmpl	hash_history(,%rcx,4), %eax
	jne	.LBB14_20
# %bb.19:                               #   in Loop: Header=BB14_15 Depth=1
	movl	-12(%rbp), %eax
	addl	$1, %eax
	movl	%eax, -12(%rbp)
.LBB14_20:                              #   in Loop: Header=BB14_15 Depth=1
	cmpl	$2, -12(%rbp)
	jl	.LBB14_22
# %bb.21:
	movl	$1, -16(%rbp)
	jmp	.LBB14_26
.LBB14_22:                              #   in Loop: Header=BB14_15 Depth=1
	jmp	.LBB14_23
.LBB14_23:                              #   in Loop: Header=BB14_15 Depth=1
	movl	-4(%rbp), %eax
	subl	$2, %eax
	movl	%eax, -4(%rbp)
	jmp	.LBB14_15
.LBB14_24:
	jmp	.LBB14_25
.LBB14_25:
	movl	$0, -16(%rbp)
.LBB14_26:
	movl	-16(%rbp), %eax
	popq	%rbp
	retq
.Lfunc_end14:
	.size	is_draw, .Lfunc_end14-is_draw
	.cfi_endproc
                                        # -- End function
	.globl	storeECache             # -- Begin function storeECache
	.p2align	4, 0x90
	.type	storeECache,@function
storeECache:                            # @storeECache
	.cfi_startproc
# %bb.0:
	pushq	%rbp
	.cfi_def_cfa_offset 16
	.cfi_offset %rbp, -16
	movq	%rsp, %rbp
	.cfi_def_cfa_register %rbp
	movl	%edi, -8(%rbp)
	movl	hash, %eax
	xorl	%edx, %edx
	divl	ECacheSize
	movl	%edx, -4(%rbp)
	movl	hash, %eax
	movq	ECache, %rcx
	movslq	-4(%rbp), %rdx
	imulq	$12, %rdx, %rdx
	addq	%rdx, %rcx
	movl	%eax, (%rcx)
	movl	hold_hash, %eax
	movq	ECache, %rcx
	movslq	-4(%rbp), %rdx
	imulq	$12, %rdx, %rdx
	addq	%rdx, %rcx
	movl	%eax, 4(%rcx)
	movl	-8(%rbp), %eax
	movq	ECache, %rcx
	movslq	-4(%rbp), %rdx
	imulq	$12, %rdx, %rdx
	addq	%rdx, %rcx
	movl	%eax, 8(%rcx)
	popq	%rbp
	retq
.Lfunc_end15:
	.size	storeECache, .Lfunc_end15-storeECache
	.cfi_endproc
                                        # -- End function
	.globl	checkECache             # -- Begin function checkECache
	.p2align	4, 0x90
	.type	checkECache,@function
checkECache:                            # @checkECache
	.cfi_startproc
# %bb.0:
	pushq	%rbp
	.cfi_def_cfa_offset 16
	.cfi_offset %rbp, -16
	movq	%rsp, %rbp
	.cfi_def_cfa_register %rbp
	movq	%rdi, -24(%rbp)
	movq	%rsi, -16(%rbp)
	movl	ECacheProbes, %eax
	addl	$1, %eax
	movl	%eax, ECacheProbes
	movl	hash, %eax
	xorl	%edx, %edx
	divl	ECacheSize
	movl	%edx, -4(%rbp)
	movq	ECache, %rax
	movslq	-4(%rbp), %rcx
	imulq	$12, %rcx, %rcx
	addq	%rcx, %rax
	movl	(%rax), %eax
	cmpl	hash, %eax
	jne	.LBB16_3
# %bb.1:
	movq	ECache, %rax
	movslq	-4(%rbp), %rcx
	imulq	$12, %rcx, %rcx
	addq	%rcx, %rax
	movl	4(%rax), %eax
	cmpl	hold_hash, %eax
	jne	.LBB16_3
# %bb.2:
	movl	ECacheHits, %eax
	addl	$1, %eax
	movl	%eax, ECacheHits
	movq	-16(%rbp), %rax
	movl	$1, (%rax)
	movq	ECache, %rax
	movslq	-4(%rbp), %rcx
	imulq	$12, %rcx, %rcx
	addq	%rcx, %rax
	movl	8(%rax), %eax
	movq	-24(%rbp), %rcx
	movl	%eax, (%rcx)
.LBB16_3:
	popq	%rbp
	retq
.Lfunc_end16:
	.size	checkECache, .Lfunc_end16-checkECache
	.cfi_endproc
                                        # -- End function
	.globl	reset_ecache            # -- Begin function reset_ecache
	.p2align	4, 0x90
	.type	reset_ecache,@function
reset_ecache:                           # @reset_ecache
	.cfi_startproc
# %bb.0:
	pushq	%rbp
	.cfi_def_cfa_offset 16
	.cfi_offset %rbp, -16
	movq	%rsp, %rbp
	.cfi_def_cfa_register %rbp
	movq	ECache, %rdi
	movslq	ECacheSize, %rax
	imulq	$12, %rax, %rdx
	xorl	%esi, %esi
	callq	memset
	popq	%rbp
	retq
.Lfunc_end17:
	.size	reset_ecache, .Lfunc_end17-reset_ecache
	.cfi_endproc
                                        # -- End function
	.globl	alloc_ecache            # -- Begin function alloc_ecache
	.p2align	4, 0x90
	.type	alloc_ecache,@function
alloc_ecache:                           # @alloc_ecache
	.cfi_startproc
# %bb.0:
	pushq	%rbp
	.cfi_def_cfa_offset 16
	.cfi_offset %rbp, -16
	movq	%rsp, %rbp
	.cfi_def_cfa_register %rbp
	movslq	ECacheSize, %rax
	imulq	$12, %rax, %rdi
	callq	malloc
	movq	%rax, ECache
	cmpq	$0, ECache
	jne	.LBB18_2
# %bb.1:
	movabsq	$.L.str.3, %rdi
	movb	$0, %al
	callq	printf
	movl	$1, %edi
	callq	exit
.LBB18_2:
	popq	%rbp
	retq
.Lfunc_end18:
	.size	alloc_ecache, .Lfunc_end18-alloc_ecache
	.cfi_endproc
                                        # -- End function
	.globl	free_ecache             # -- Begin function free_ecache
	.p2align	4, 0x90
	.type	free_ecache,@function
free_ecache:                            # @free_ecache
	.cfi_startproc
# %bb.0:
	pushq	%rbp
	.cfi_def_cfa_offset 16
	.cfi_offset %rbp, -16
	movq	%rsp, %rbp
	.cfi_def_cfa_register %rbp
	movq	ECache, %rdi
	callq	free
	popq	%rbp
	retq
.Lfunc_end19:
	.size	free_ecache, .Lfunc_end19-free_ecache
	.cfi_endproc
                                        # -- End function
	.globl	setup_epd_line          # -- Begin function setup_epd_line
	.p2align	4, 0x90
	.type	setup_epd_line,@function
setup_epd_line:                         # @setup_epd_line
	.cfi_startproc
# %bb.0:
	pushq	%rbp
	.cfi_def_cfa_offset 16
	.cfi_offset %rbp, -16
	movq	%rsp, %rbp
	.cfi_def_cfa_register %rbp
	pushq	%rbx
	subq	$56, %rsp
	.cfi_offset %rbx, -24
	movabsq	$board, %rax
	movq	%rdi, -32(%rbp)
	movl	$0, -12(%rbp)
	movl	$0, -40(%rbp)
	movl	$0, -20(%rbp)
	movl	$0, -16(%rbp)
	movl	$0, -24(%rbp)
	movl	$97, -64(%rbp)
	movl	$49, -60(%rbp)
	movq	%rax, %rdi
	xorl	%esi, %esi
	movl	$576, %edx              # imm = 0x240
	callq	memset
	movl	$0, white_castled
	movl	$0, black_castled
	movl	$50, book_ply
	movl	setup_epd_line.rankoffsets, %eax
	movl	%eax, -20(%rbp)
.LBB20_1:                               # =>This Inner Loop Header: Depth=1
	movq	-32(%rbp), %rax
	movslq	-12(%rbp), %rcx
	movsbl	(%rax,%rcx), %eax
	cmpl	$32, %eax
	jne	.LBB20_3
# %bb.2:                                #   in Loop: Header=BB20_1 Depth=1
	movl	-12(%rbp), %eax
	addl	$1, %eax
	movl	%eax, -12(%rbp)
	jmp	.LBB20_1
.LBB20_3:
	jmp	.LBB20_4
.LBB20_4:                               # =>This Loop Header: Depth=1
                                        #     Child Loop BB20_10 Depth 2
                                        #     Child Loop BB20_37 Depth 2
                                        #     Child Loop BB20_45 Depth 2
                                        #     Child Loop BB20_48 Depth 2
                                        #     Child Loop BB20_63 Depth 2
	xorl	%eax, %eax
	movq	-32(%rbp), %rcx
	movslq	-12(%rbp), %rdx
	movsbl	(%rcx,%rdx), %ecx
	cmpl	$10, %ecx
	je	.LBB20_6
# %bb.5:                                #   in Loop: Header=BB20_4 Depth=1
	movq	-32(%rbp), %rax
	movslq	-12(%rbp), %rcx
	movsbl	(%rax,%rcx), %eax
	cmpl	$0, %eax
	setne	%al
.LBB20_6:                               #   in Loop: Header=BB20_4 Depth=1
	testb	$1, %al
	jne	.LBB20_7
	jmp	.LBB20_85
.LBB20_7:                               #   in Loop: Header=BB20_4 Depth=1
	cmpl	$0, -24(%rbp)
	jne	.LBB20_14
# %bb.8:                                #   in Loop: Header=BB20_4 Depth=1
	callq	__ctype_b_loc
	movq	(%rax), %rax
	movq	-32(%rbp), %rcx
	movslq	-12(%rbp), %rdx
	movsbl	(%rcx,%rdx), %ecx
	movslq	%ecx, %rcx
	movzwl	(%rax,%rcx,2), %eax
	andl	$2048, %eax             # imm = 0x800
	cmpl	$0, %eax
	je	.LBB20_14
# %bb.9:                                #   in Loop: Header=BB20_4 Depth=1
	movl	$0, -36(%rbp)
.LBB20_10:                              #   Parent Loop BB20_4 Depth=1
                                        # =>  This Inner Loop Header: Depth=2
	movl	-36(%rbp), %ebx
	movq	-32(%rbp), %rdi
	movslq	-12(%rbp), %rax
	addq	%rax, %rdi
	callq	atoi
	cmpl	%eax, %ebx
	jge	.LBB20_13
# %bb.11:                               #   in Loop: Header=BB20_10 Depth=2
	movl	-20(%rbp), %eax
	addl	-36(%rbp), %eax
	addl	-16(%rbp), %eax
	cltq
	movl	$13, board(,%rax,4)
# %bb.12:                               #   in Loop: Header=BB20_10 Depth=2
	movl	-36(%rbp), %eax
	addl	$1, %eax
	movl	%eax, -36(%rbp)
	jmp	.LBB20_10
.LBB20_13:                              #   in Loop: Header=BB20_4 Depth=1
	movq	-32(%rbp), %rdi
	movslq	-12(%rbp), %rax
	addq	%rax, %rdi
	callq	atoi
	addl	-16(%rbp), %eax
	movl	%eax, -16(%rbp)
	jmp	.LBB20_84
.LBB20_14:                              #   in Loop: Header=BB20_4 Depth=1
	cmpl	$0, -24(%rbp)
	jne	.LBB20_17
# %bb.15:                               #   in Loop: Header=BB20_4 Depth=1
	movq	-32(%rbp), %rax
	movslq	-12(%rbp), %rcx
	movsbl	(%rax,%rcx), %eax
	cmpl	$47, %eax
	jne	.LBB20_17
# %bb.16:                               #   in Loop: Header=BB20_4 Depth=1
	movl	-40(%rbp), %eax
	addl	$1, %eax
	movl	%eax, -40(%rbp)
	movslq	-40(%rbp), %rax
	movl	setup_epd_line.rankoffsets(,%rax,4), %eax
	movl	%eax, -20(%rbp)
	movl	$0, -16(%rbp)
	jmp	.LBB20_83
.LBB20_17:                              #   in Loop: Header=BB20_4 Depth=1
	cmpl	$0, -24(%rbp)
	jne	.LBB20_34
# %bb.18:                               #   in Loop: Header=BB20_4 Depth=1
	callq	__ctype_b_loc
	movq	(%rax), %rax
	movq	-32(%rbp), %rcx
	movslq	-12(%rbp), %rdx
	movsbl	(%rcx,%rdx), %ecx
	movslq	%ecx, %rcx
	movzwl	(%rax,%rcx,2), %eax
	andl	$1024, %eax             # imm = 0x400
	cmpl	$0, %eax
	je	.LBB20_34
# %bb.19:                               #   in Loop: Header=BB20_4 Depth=1
	movq	-32(%rbp), %rax
	movslq	-12(%rbp), %rcx
	movsbl	(%rax,%rcx), %eax
	addl	$-66, %eax
	movl	%eax, %ecx
	subl	$48, %ecx
	ja	.LBB20_33
# %bb.20:                               #   in Loop: Header=BB20_4 Depth=1
	movq	.LJTI20_0(,%rax,8), %rax
	jmpq	*%rax
.LBB20_21:                              #   in Loop: Header=BB20_4 Depth=1
	movl	-20(%rbp), %eax
	addl	-16(%rbp), %eax
	cltq
	movl	$2, board(,%rax,4)
	jmp	.LBB20_33
.LBB20_22:                              #   in Loop: Header=BB20_4 Depth=1
	movl	-20(%rbp), %eax
	addl	-16(%rbp), %eax
	cltq
	movl	$1, board(,%rax,4)
	jmp	.LBB20_33
.LBB20_23:                              #   in Loop: Header=BB20_4 Depth=1
	movl	-20(%rbp), %eax
	addl	-16(%rbp), %eax
	cltq
	movl	$4, board(,%rax,4)
	jmp	.LBB20_33
.LBB20_24:                              #   in Loop: Header=BB20_4 Depth=1
	movl	-20(%rbp), %eax
	addl	-16(%rbp), %eax
	cltq
	movl	$3, board(,%rax,4)
	jmp	.LBB20_33
.LBB20_25:                              #   in Loop: Header=BB20_4 Depth=1
	movl	-20(%rbp), %eax
	addl	-16(%rbp), %eax
	cltq
	movl	$12, board(,%rax,4)
	jmp	.LBB20_33
.LBB20_26:                              #   in Loop: Header=BB20_4 Depth=1
	movl	-20(%rbp), %eax
	addl	-16(%rbp), %eax
	cltq
	movl	$11, board(,%rax,4)
	jmp	.LBB20_33
.LBB20_27:                              #   in Loop: Header=BB20_4 Depth=1
	movl	-20(%rbp), %eax
	addl	-16(%rbp), %eax
	cltq
	movl	$8, board(,%rax,4)
	jmp	.LBB20_33
.LBB20_28:                              #   in Loop: Header=BB20_4 Depth=1
	movl	-20(%rbp), %eax
	addl	-16(%rbp), %eax
	cltq
	movl	$7, board(,%rax,4)
	jmp	.LBB20_33
.LBB20_29:                              #   in Loop: Header=BB20_4 Depth=1
	movl	-20(%rbp), %eax
	addl	-16(%rbp), %eax
	cltq
	movl	$10, board(,%rax,4)
	jmp	.LBB20_33
.LBB20_30:                              #   in Loop: Header=BB20_4 Depth=1
	movl	-20(%rbp), %eax
	addl	-16(%rbp), %eax
	cltq
	movl	$9, board(,%rax,4)
	jmp	.LBB20_33
.LBB20_31:                              #   in Loop: Header=BB20_4 Depth=1
	movl	-20(%rbp), %eax
	addl	-16(%rbp), %eax
	movl	%eax, bking_loc
	movslq	bking_loc, %rax
	movl	$6, board(,%rax,4)
	jmp	.LBB20_33
.LBB20_32:                              #   in Loop: Header=BB20_4 Depth=1
	movl	-20(%rbp), %eax
	addl	-16(%rbp), %eax
	movl	%eax, wking_loc
	movslq	wking_loc, %rax
	movl	$5, board(,%rax,4)
.LBB20_33:                              #   in Loop: Header=BB20_4 Depth=1
	movl	-16(%rbp), %eax
	addl	$1, %eax
	movl	%eax, -16(%rbp)
	jmp	.LBB20_82
.LBB20_34:                              #   in Loop: Header=BB20_4 Depth=1
	movq	-32(%rbp), %rax
	movslq	-12(%rbp), %rcx
	movsbl	(%rax,%rcx), %eax
	cmpl	$32, %eax
	jne	.LBB20_81
# %bb.35:                               #   in Loop: Header=BB20_4 Depth=1
	movl	-24(%rbp), %eax
	addl	$1, %eax
	movl	%eax, -24(%rbp)
	cmpl	$1, -24(%rbp)
	jne	.LBB20_43
# %bb.36:                               #   in Loop: Header=BB20_4 Depth=1
	jmp	.LBB20_37
.LBB20_37:                              #   Parent Loop BB20_4 Depth=1
                                        # =>  This Inner Loop Header: Depth=2
	movq	-32(%rbp), %rax
	movslq	-12(%rbp), %rcx
	movsbl	(%rax,%rcx), %eax
	cmpl	$32, %eax
	jne	.LBB20_39
# %bb.38:                               #   in Loop: Header=BB20_37 Depth=2
	movl	-12(%rbp), %eax
	addl	$1, %eax
	movl	%eax, -12(%rbp)
	jmp	.LBB20_37
.LBB20_39:                              #   in Loop: Header=BB20_4 Depth=1
	movq	-32(%rbp), %rax
	movslq	-12(%rbp), %rcx
	movsbl	(%rax,%rcx), %eax
	cmpl	$119, %eax
	jne	.LBB20_41
# %bb.40:                               #   in Loop: Header=BB20_4 Depth=1
	movl	$1, white_to_move
	jmp	.LBB20_42
.LBB20_41:                              #   in Loop: Header=BB20_4 Depth=1
	movl	$0, white_to_move
.LBB20_42:                              #   in Loop: Header=BB20_4 Depth=1
	jmp	.LBB20_80
.LBB20_43:                              #   in Loop: Header=BB20_4 Depth=1
	cmpl	$2, -24(%rbp)
	jne	.LBB20_61
# %bb.44:                               #   in Loop: Header=BB20_4 Depth=1
	movl	$1, moved+120
	movl	$1, moved+132
	movl	$1, moved+104
	movl	$1, moved+468
	movl	$1, moved+456
	movl	$1, moved+440
.LBB20_45:                              #   Parent Loop BB20_4 Depth=1
                                        # =>  This Inner Loop Header: Depth=2
	movq	-32(%rbp), %rax
	movslq	-12(%rbp), %rcx
	movsbl	(%rax,%rcx), %eax
	cmpl	$32, %eax
	jne	.LBB20_47
# %bb.46:                               #   in Loop: Header=BB20_45 Depth=2
	movl	-12(%rbp), %eax
	addl	$1, %eax
	movl	%eax, -12(%rbp)
	jmp	.LBB20_45
.LBB20_47:                              #   in Loop: Header=BB20_4 Depth=1
	jmp	.LBB20_48
.LBB20_48:                              #   Parent Loop BB20_4 Depth=1
                                        # =>  This Inner Loop Header: Depth=2
	movq	-32(%rbp), %rax
	movslq	-12(%rbp), %rcx
	movsbl	(%rax,%rcx), %eax
	cmpl	$32, %eax
	je	.LBB20_60
# %bb.49:                               #   in Loop: Header=BB20_48 Depth=2
	movq	-32(%rbp), %rax
	movslq	-12(%rbp), %rcx
	movsbl	(%rax,%rcx), %eax
	movl	%eax, %ecx
	subl	$45, %ecx
	je	.LBB20_54
	jmp	.LBB20_50
.LBB20_50:                              #   in Loop: Header=BB20_48 Depth=2
	movl	%eax, %ecx
	subl	$75, %ecx
	je	.LBB20_55
	jmp	.LBB20_51
.LBB20_51:                              #   in Loop: Header=BB20_48 Depth=2
	movl	%eax, %ecx
	subl	$81, %ecx
	je	.LBB20_56
	jmp	.LBB20_52
.LBB20_52:                              #   in Loop: Header=BB20_48 Depth=2
	movl	%eax, %ecx
	subl	$107, %ecx
	je	.LBB20_57
	jmp	.LBB20_53
.LBB20_53:                              #   in Loop: Header=BB20_48 Depth=2
	subl	$113, %eax
	je	.LBB20_58
	jmp	.LBB20_59
.LBB20_54:                              #   in Loop: Header=BB20_48 Depth=2
	jmp	.LBB20_59
.LBB20_55:                              #   in Loop: Header=BB20_48 Depth=2
	movl	$0, moved+132
	movl	$0, moved+120
	jmp	.LBB20_59
.LBB20_56:                              #   in Loop: Header=BB20_48 Depth=2
	movl	$0, moved+104
	movl	$0, moved+120
	jmp	.LBB20_59
.LBB20_57:                              #   in Loop: Header=BB20_48 Depth=2
	movl	$0, moved+468
	movl	$0, moved+456
	jmp	.LBB20_59
.LBB20_58:                              #   in Loop: Header=BB20_48 Depth=2
	movl	$0, moved+440
	movl	$0, moved+456
.LBB20_59:                              #   in Loop: Header=BB20_48 Depth=2
	movl	-12(%rbp), %eax
	addl	$1, %eax
	movl	%eax, -12(%rbp)
	jmp	.LBB20_48
.LBB20_60:                              #   in Loop: Header=BB20_4 Depth=1
	movl	-12(%rbp), %eax
	addl	$-1, %eax
	movl	%eax, -12(%rbp)
	jmp	.LBB20_79
.LBB20_61:                              #   in Loop: Header=BB20_4 Depth=1
	cmpl	$3, -24(%rbp)
	jne	.LBB20_69
# %bb.62:                               #   in Loop: Header=BB20_4 Depth=1
	jmp	.LBB20_63
.LBB20_63:                              #   Parent Loop BB20_4 Depth=1
                                        # =>  This Inner Loop Header: Depth=2
	movq	-32(%rbp), %rax
	movslq	-12(%rbp), %rcx
	movsbl	(%rax,%rcx), %eax
	cmpl	$32, %eax
	jne	.LBB20_65
# %bb.64:                               #   in Loop: Header=BB20_63 Depth=2
	movl	-12(%rbp), %eax
	addl	$1, %eax
	movl	%eax, -12(%rbp)
	jmp	.LBB20_63
.LBB20_65:                              #   in Loop: Header=BB20_4 Depth=1
	movq	-32(%rbp), %rax
	movslq	-12(%rbp), %rcx
	movsbl	(%rax,%rcx), %eax
	cmpl	$45, %eax
	jne	.LBB20_67
# %bb.66:                               #   in Loop: Header=BB20_4 Depth=1
	movl	$0, ep_square
	jmp	.LBB20_68
.LBB20_67:                              #   in Loop: Header=BB20_4 Depth=1
	movq	-32(%rbp), %rax
	movl	-12(%rbp), %ecx
	movl	%ecx, %edx
	addl	$1, %edx
	movl	%edx, -12(%rbp)
	movslq	%ecx, %rcx
	movsbl	(%rax,%rcx), %eax
	movl	%eax, -56(%rbp)
	movq	-32(%rbp), %rax
	movl	-12(%rbp), %ecx
	movl	%ecx, %edx
	addl	$1, %edx
	movl	%edx, -12(%rbp)
	movslq	%ecx, %rcx
	movsbl	(%rax,%rcx), %eax
	movl	%eax, -52(%rbp)
	movl	-56(%rbp), %eax
	subl	-64(%rbp), %eax
	movl	%eax, -48(%rbp)
	movl	-52(%rbp), %eax
	subl	-60(%rbp), %eax
	movl	%eax, -44(%rbp)
	imull	$12, -44(%rbp), %eax
	addl	$26, %eax
	addl	-48(%rbp), %eax
	movl	%eax, ep_square
.LBB20_68:                              #   in Loop: Header=BB20_4 Depth=1
	jmp	.LBB20_78
.LBB20_69:                              #   in Loop: Header=BB20_4 Depth=1
	cmpl	$4, -24(%rbp)
	jne	.LBB20_71
# %bb.70:                               #   in Loop: Header=BB20_4 Depth=1
	jmp	.LBB20_77
.LBB20_71:                              #   in Loop: Header=BB20_4 Depth=1
	cmpl	$5, -24(%rbp)
	jne	.LBB20_73
# %bb.72:                               #   in Loop: Header=BB20_4 Depth=1
	jmp	.LBB20_76
.LBB20_73:                              #   in Loop: Header=BB20_4 Depth=1
	cmpl	$6, -24(%rbp)
	jne	.LBB20_75
# %bb.74:                               #   in Loop: Header=BB20_4 Depth=1
	jmp	.LBB20_75
.LBB20_75:                              #   in Loop: Header=BB20_4 Depth=1
	jmp	.LBB20_76
.LBB20_76:                              #   in Loop: Header=BB20_4 Depth=1
	jmp	.LBB20_77
.LBB20_77:                              #   in Loop: Header=BB20_4 Depth=1
	jmp	.LBB20_78
.LBB20_78:                              #   in Loop: Header=BB20_4 Depth=1
	jmp	.LBB20_79
.LBB20_79:                              #   in Loop: Header=BB20_4 Depth=1
	jmp	.LBB20_80
.LBB20_80:                              #   in Loop: Header=BB20_4 Depth=1
	jmp	.LBB20_81
.LBB20_81:                              #   in Loop: Header=BB20_4 Depth=1
	jmp	.LBB20_82
.LBB20_82:                              #   in Loop: Header=BB20_4 Depth=1
	jmp	.LBB20_83
.LBB20_83:                              #   in Loop: Header=BB20_4 Depth=1
	jmp	.LBB20_84
.LBB20_84:                              #   in Loop: Header=BB20_4 Depth=1
	movl	-12(%rbp), %eax
	addl	$1, %eax
	movl	%eax, -12(%rbp)
	jmp	.LBB20_4
.LBB20_85:
	callq	reset_piece_square
	callq	initialize_hash
	addq	$56, %rsp
	popq	%rbx
	popq	%rbp
	retq
.Lfunc_end20:
	.size	setup_epd_line, .Lfunc_end20-setup_epd_line
	.cfi_endproc
	.section	.rodata,"a",@progbits
	.p2align	3
.LJTI20_0:
	.quad	.LBB20_26
	.quad	.LBB20_33
	.quad	.LBB20_33
	.quad	.LBB20_33
	.quad	.LBB20_33
	.quad	.LBB20_33
	.quad	.LBB20_33
	.quad	.LBB20_33
	.quad	.LBB20_33
	.quad	.LBB20_32
	.quad	.LBB20_33
	.quad	.LBB20_33
	.quad	.LBB20_24
	.quad	.LBB20_33
	.quad	.LBB20_22
	.quad	.LBB20_30
	.quad	.LBB20_28
	.quad	.LBB20_33
	.quad	.LBB20_33
	.quad	.LBB20_33
	.quad	.LBB20_33
	.quad	.LBB20_33
	.quad	.LBB20_33
	.quad	.LBB20_33
	.quad	.LBB20_33
	.quad	.LBB20_33
	.quad	.LBB20_33
	.quad	.LBB20_33
	.quad	.LBB20_33
	.quad	.LBB20_33
	.quad	.LBB20_33
	.quad	.LBB20_33
	.quad	.LBB20_25
	.quad	.LBB20_33
	.quad	.LBB20_33
	.quad	.LBB20_33
	.quad	.LBB20_33
	.quad	.LBB20_33
	.quad	.LBB20_33
	.quad	.LBB20_33
	.quad	.LBB20_33
	.quad	.LBB20_31
	.quad	.LBB20_33
	.quad	.LBB20_33
	.quad	.LBB20_23
	.quad	.LBB20_33
	.quad	.LBB20_21
	.quad	.LBB20_29
	.quad	.LBB20_27
                                        # -- End function
	.text
	.globl	check_solution          # -- Begin function check_solution
	.p2align	4, 0x90
	.type	check_solution,@function
check_solution:                         # @check_solution
	.cfi_startproc
# %bb.0:
	pushq	%rbp
	.cfi_def_cfa_offset 16
	.cfi_offset %rbp, -16
	movq	%rsp, %rbp
	.cfi_def_cfa_register %rbp
	subq	$304, %rsp              # imm = 0x130
	leaq	16(%rbp), %rcx
	leaq	-272(%rbp), %rax
	movq	%rdi, -16(%rbp)
	movq	(%rcx), %rdx
	movq	%rdx, (%rsp)
	movq	8(%rcx), %rdx
	movq	%rdx, 8(%rsp)
	movq	16(%rcx), %rcx
	movq	%rcx, 16(%rsp)
	movq	%rax, %rdi
	callq	comp_to_san
	movabsq	$.L.str.4, %rsi
	movq	-16(%rbp), %rdi
	callq	strstr
	cmpq	$0, %rax
	je	.LBB21_4
# %bb.1:
	leaq	-272(%rbp), %rsi
	movq	-16(%rbp), %rdi
	callq	strstr
	cmpq	$0, %rax
	je	.LBB21_3
# %bb.2:
	movl	$1, -4(%rbp)
	jmp	.LBB21_11
.LBB21_3:
	movl	$0, -4(%rbp)
	jmp	.LBB21_11
.LBB21_4:
	movabsq	$.L.str.1.5, %rsi
	movq	-16(%rbp), %rdi
	callq	strstr
	cmpq	$0, %rax
	je	.LBB21_8
# %bb.5:
	leaq	-272(%rbp), %rsi
	movq	-16(%rbp), %rdi
	callq	strstr
	cmpq	$0, %rax
	je	.LBB21_7
# %bb.6:
	movl	$0, -4(%rbp)
	jmp	.LBB21_11
.LBB21_7:
	movl	$1, -4(%rbp)
	jmp	.LBB21_11
.LBB21_8:
	movabsq	$.L.str.2, %rdi
	movb	$0, %al
	callq	printf
# %bb.9:
	jmp	.LBB21_10
.LBB21_10:
	movl	$0, -4(%rbp)
.LBB21_11:
	movl	-4(%rbp), %eax
	addq	$304, %rsp              # imm = 0x130
	popq	%rbp
	retq
.Lfunc_end21:
	.size	check_solution, .Lfunc_end21-check_solution
	.cfi_endproc
                                        # -- End function
	.section	.rodata.cst4,"aM",@progbits,4
	.p2align	2               # -- Begin function run_epd_testsuite
.LCPI22_0:
	.long	1065353216              # float 1
.LCPI22_2:
	.long	1120403456              # float 100
	.section	.rodata.cst8,"aM",@progbits,8
	.p2align	3
.LCPI22_1:
	.quad	4636737291354636288     # double 100
	.text
	.globl	run_epd_testsuite
	.p2align	4, 0x90
	.type	run_epd_testsuite,@function
run_epd_testsuite:                      # @run_epd_testsuite
	.cfi_startproc
# %bb.0:
	pushq	%rbp
	.cfi_def_cfa_offset 16
	.cfi_offset %rbp, -16
	movq	%rsp, %rbp
	.cfi_def_cfa_register %rbp
	pushq	%rbx
	subq	$8216, %rsp             # imm = 0x2018
	.cfi_offset %rbx, -24
	movabsq	$.L.str.3.6, %rdi
	movl	$0, -16(%rbp)
	movl	$0, -12(%rbp)
	movb	$0, %al
	callq	printf
	leaq	-8192(%rbp), %rdi
	movq	stdin, %rdx
	movl	$256, %esi              # imm = 0x100
	callq	rinput
	movabsq	$.L.str.4.7, %rdi
	movb	$0, %al
	callq	printf
	leaq	-2096(%rbp), %rdi
	movq	stdin, %rdx
	movl	$256, %esi              # imm = 0x100
	callq	rinput
	leaq	-2096(%rbp), %rdi
	callq	atol
	movabsq	$.L.str.5, %rdi
	movl	%eax, -20(%rbp)
	movb	$0, %al
	callq	printf
	movabsq	$.L.str.6, %rsi
	leaq	-8192(%rbp), %rdi
	imull	$100, -20(%rbp), %eax
	movl	%eax, -20(%rbp)
	callq	fopen
	movq	%rax, -32(%rbp)
.LBB22_1:                               # =>This Inner Loop Header: Depth=1
	leaq	-2096(%rbp), %rdi
	movq	-32(%rbp), %rdx
	movl	$2000, %esi             # imm = 0x7D0
	callq	fgets
	cmpq	$0, %rax
	je	.LBB22_11
# %bb.2:                                #   in Loop: Header=BB22_1 Depth=1
	leaq	-2096(%rbp), %rdi
	movl	-16(%rbp), %eax
	addl	$1, %eax
	movl	%eax, -16(%rbp)
	callq	setup_epd_line
	movl	$1, %eax
	xorl	%ecx, %ecx
	movl	white_to_move, %edx
	cmpl	$0, %edx
	cmovnel	%ecx, %eax
	movl	%eax, root_to_move
	callq	clear_tt
	callq	initialize_hash
	movq	stdout, %rdi
	movl	$1, %esi
	callq	display_board
	movl	$0, forcedwin
	callq	interrupt
	cmpl	$0, %eax
	je	.LBB22_4
# %bb.3:                                #   in Loop: Header=BB22_1 Depth=1
	leaq	-4096(%rbp), %rdi
	movq	stdin, %rdx
	movl	$256, %esi              # imm = 0x100
	callq	rinput
.LBB22_4:                               #   in Loop: Header=BB22_1 Depth=1
	movabsq	$.L.str.12, %rbx
	movss	.LCPI22_0(%rip), %xmm0  # xmm0 = mem[0],zero,zero,zero
	movss	%xmm0, -24(%rbp)        # 4-byte Spill
	movl	-20(%rbp), %eax
	movl	%eax, fixed_time(%rip)
	leaq	-88(%rbp), %rdi
	callq	think
	movq	-72(%rbp), %rax
	movq	%rax, -48(%rbp)
	movups	-88(%rbp), %xmm0
	movaps	%xmm0, -64(%rbp)
	movl	nodes(%rip), %esi
	cvtsi2ssl	qnodes(%rip), %xmm0
	cvtsi2ssl	%esi, %xmm1
	divss	%xmm1, %xmm0
	cvtss2sd	%xmm0, %xmm0
	movsd	.LCPI22_1(%rip), %xmm1  # xmm1 = mem[0],zero
	mulsd	%xmm1, %xmm0
	cvtsd2ss	%xmm0, %xmm0
	cvtss2sd	%xmm0, %xmm0
	movl	$.L.str.7, %edi
	movb	$1, %al
	callq	printf
	movl	ECacheProbes(%rip), %esi
	movl	ECacheHits(%rip), %edx
	cvtsi2ssq	%rdx, %xmm0
	cvtsi2ssq	%rsi, %xmm1
	addss	.LCPI22_0(%rip), %xmm1
	divss	%xmm1, %xmm0
	mulss	.LCPI22_2(%rip), %xmm0
	cvtss2sd	%xmm0, %xmm0
	movl	$.L.str.8, %edi
                                        # kill: def %esi killed %esi killed %rsi
                                        # kill: def %edx killed %edx killed %rdx
	movb	$1, %al
	callq	printf
	movl	TTStores(%rip), %esi
	movl	TTProbes(%rip), %edx
	movl	TTHits(%rip), %ecx
	cvtsi2ssq	%rcx, %xmm0
	cvtsi2ssq	%rdx, %xmm1
	addss	.LCPI22_0(%rip), %xmm1
	divss	%xmm1, %xmm0
	mulss	.LCPI22_2(%rip), %xmm0
	cvtss2sd	%xmm0, %xmm0
	movl	$.L.str.9, %edi
                                        # kill: def %edx killed %edx killed %rdx
                                        # kill: def %ecx killed %ecx killed %rcx
	movb	$1, %al
	callq	printf
	movl	NTries(%rip), %esi
	movl	NCuts(%rip), %edx
	cvtsi2ssq	%rdx, %xmm0
	mulss	.LCPI22_2(%rip), %xmm0
	cvtsi2ssq	%rsi, %xmm1
	addss	.LCPI22_0(%rip), %xmm1
	divss	%xmm1, %xmm0
	cvtss2sd	%xmm0, %xmm0
	movl	TExt(%rip), %ecx
	movl	$.L.str.10, %edi
                                        # kill: def %esi killed %esi killed %rsi
                                        # kill: def %edx killed %edx killed %rdx
	movb	$1, %al
	callq	printf
	movl	ext_check(%rip), %esi
	movl	razor_drop(%rip), %edx
	movl	razor_material(%rip), %ecx
	movl	$.L.str.11, %edi
	xorl	%eax, %eax
	callq	printf
	movl	FHF(%rip), %eax
	cvtsi2ssq	%rax, %xmm0
	mulss	.LCPI22_2(%rip), %xmm0
	movl	FH(%rip), %eax
	cvtsi2ssq	%rax, %xmm1
	divss	%xmm1, %xmm0
	addss	-24(%rbp), %xmm0        # 4-byte Folded Reload
	cvtss2sd	%xmm0, %xmm0
	movq	%rbx, %rdi
	movb	$1, %al
	callq	printf
	movl	Material, %ebx
	movl	$4293967296, %edi       # imm = 0xFFF0BDC0
	movl	$1000000, %esi          # imm = 0xF4240
	callq	eval
	movabsq	$.L.str.13, %rdi
	movl	maxposdiff, %ecx
	movl	%ebx, %esi
	movl	%eax, %edx
	movb	$0, %al
	callq	printf
	movabsq	$.L.str.5, %rdi
	movb	$0, %al
	callq	printf
	cmpl	$0, forcedwin
	jne	.LBB22_9
# %bb.5:                                #   in Loop: Header=BB22_1 Depth=1
	leaq	-64(%rbp), %rax
	leaq	-2096(%rbp), %rdi
	movq	(%rax), %rcx
	movq	%rcx, (%rsp)
	movq	8(%rax), %rcx
	movq	%rcx, 8(%rsp)
	movq	16(%rax), %rax
	movq	%rax, 16(%rsp)
	callq	check_solution
	cmpl	$0, %eax
	je	.LBB22_7
# %bb.6:                                #   in Loop: Header=BB22_1 Depth=1
	movabsq	$.L.str.14, %rdi
	movl	-12(%rbp), %eax
	addl	$1, %eax
	movl	%eax, -12(%rbp)
	movb	$0, %al
	callq	printf
	jmp	.LBB22_8
.LBB22_7:                               #   in Loop: Header=BB22_1 Depth=1
	movabsq	$.L.str.15, %rdi
	movb	$0, %al
	callq	printf
.LBB22_8:                               #   in Loop: Header=BB22_1 Depth=1
	jmp	.LBB22_10
.LBB22_9:                               #   in Loop: Header=BB22_1 Depth=1
	movl	-12(%rbp), %eax
	addl	$1, %eax
	movl	%eax, -12(%rbp)
.LBB22_10:                              #   in Loop: Header=BB22_1 Depth=1
	movabsq	$.L.str.16, %rdi
	movl	-12(%rbp), %esi
	movl	-16(%rbp), %edx
	movb	$0, %al
	callq	printf
	jmp	.LBB22_1
.LBB22_11:
	movabsq	$.L.str.5, %rdi
	movb	$0, %al
	callq	printf
	addq	$8216, %rsp             # imm = 0x2018
	popq	%rbx
	popq	%rbp
	retq
.Lfunc_end22:
	.size	run_epd_testsuite, .Lfunc_end22-run_epd_testsuite
	.cfi_endproc
                                        # -- End function
	.globl	run_autotest            # -- Begin function run_autotest
	.p2align	4, 0x90
	.type	run_autotest,@function
run_autotest:                           # @run_autotest
	.cfi_startproc
# %bb.0:
	pushq	%rbp
	.cfi_def_cfa_offset 16
	.cfi_offset %rbp, -16
	movq	%rsp, %rbp
	.cfi_def_cfa_register %rbp
	subq	$352, %rsp              # imm = 0x160
	movabsq	$.L.str.6, %rsi
	movq	%rdi, -24(%rbp)
	movq	-24(%rbp), %rdi
	callq	fopen
	movq	%rax, -16(%rbp)
	cmpq	$0, -16(%rbp)
	jne	.LBB23_2
# %bb.1:
	movl	$1, %edi
	callq	exit
.LBB23_2:
	callq	rtime
	movq	%rax, -88(%rbp)
.LBB23_3:                               # =>This Inner Loop Header: Depth=1
	leaq	-352(%rbp), %rdi
	movq	-16(%rbp), %rdx
	movl	$256, %esi              # imm = 0x100
	callq	fgets
	cmpq	$0, %rax
	je	.LBB23_7
# %bb.4:                                #   in Loop: Header=BB23_3 Depth=1
	leaq	-352(%rbp), %rdi
	callq	setup_epd_line
	movl	$1, %eax
	xorl	%ecx, %ecx
	movl	white_to_move, %edx
	cmpl	$0, %edx
	cmovnel	%ecx, %eax
	movl	%eax, root_to_move
	callq	clear_tt
	callq	initialize_hash
	movabsq	$.L.str.5, %rdi
	movb	$0, %al
	callq	printf
	movq	stdout, %rdi
	movl	$1, %esi
	callq	display_board
	movabsq	$.L.str.17, %rdi
	leaq	-352(%rbp), %rsi
	movb	$0, %al
	callq	printf
	leaq	-352(%rbp), %rdi
	movq	-16(%rbp), %rdx
	movl	$256, %esi              # imm = 0x100
	callq	fgets
	cmpq	$0, %rax
	jne	.LBB23_6
# %bb.5:
	movl	$1, %edi
	callq	exit
.LBB23_6:                               #   in Loop: Header=BB23_3 Depth=1
	leaq	-352(%rbp), %rdi
	callq	atoi
	movabsq	$.L.str.18, %rdi
	movl	%eax, -4(%rbp)
	movl	-4(%rbp), %esi
	movb	$0, %al
	callq	printf
	leaq	-48(%rbp), %rdi
	movl	-4(%rbp), %eax
	movl	%eax, maxdepth
	movl	$1000000, fixed_time    # imm = 0xF4240
	callq	think
	movq	-48(%rbp), %rax
	movq	%rax, -72(%rbp)
	movq	-40(%rbp), %rax
	movq	%rax, -64(%rbp)
	movq	-32(%rbp), %rax
	movq	%rax, -56(%rbp)
	jmp	.LBB23_3
.LBB23_7:
	callq	rtime
	movq	%rax, -80(%rbp)
	movq	-16(%rbp), %rdi
	callq	fclose
	xorl	%edi, %edi
	callq	exit
.Lfunc_end23:
	.size	run_autotest, .Lfunc_end23-run_autotest
	.cfi_endproc
                                        # -- End function
	.globl	initialize_eval         # -- Begin function initialize_eval
	.p2align	4, 0x90
	.type	initialize_eval,@function
initialize_eval:                        # @initialize_eval
	.cfi_startproc
# %bb.0:
	pushq	%rbp
	.cfi_def_cfa_offset 16
	.cfi_offset %rbp, -16
	movq	%rsp, %rbp
	.cfi_def_cfa_register %rbp
	pushq	%rbx
	subq	$24, %rsp
	.cfi_offset %rbx, -24
	movl	$0, -16(%rbp)
.LBB24_1:                               # =>This Loop Header: Depth=1
                                        #     Child Loop BB24_3 Depth 2
	cmpl	$64, -16(%rbp)
	jge	.LBB24_11
# %bb.2:                                #   in Loop: Header=BB24_1 Depth=1
	movl	$0, -12(%rbp)
.LBB24_3:                               #   Parent Loop BB24_1 Depth=1
                                        # =>  This Inner Loop Header: Depth=2
	cmpl	$64, -12(%rbp)
	jge	.LBB24_9
# %bb.4:                                #   in Loop: Header=BB24_3 Depth=2
	movl	-16(%rbp), %edi
	andl	$7, %edi
	movl	-12(%rbp), %eax
	andl	$7, %eax
	subl	%eax, %edi
	callq	abs
	movl	%eax, -24(%rbp)
	movl	-16(%rbp), %edi
	sarl	$3, %edi
	movl	-12(%rbp), %eax
	sarl	$3, %eax
	subl	%eax, %edi
	callq	abs
	movabsq	$rookdistance, %rcx
	movl	%eax, -20(%rbp)
	movl	-24(%rbp), %eax
	addl	-20(%rbp), %eax
	movslq	-16(%rbp), %rdx
	movslq	upscale(,%rdx,4), %rdx
	imulq	$576, %rdx, %rdx        # imm = 0x240
	addq	%rdx, %rcx
	movslq	-12(%rbp), %rdx
	movslq	upscale(,%rdx,4), %rdx
	movl	%eax, (%rcx,%rdx,4)
	movl	-24(%rbp), %eax
	cmpl	-20(%rbp), %eax
	jle	.LBB24_6
# %bb.5:                                #   in Loop: Header=BB24_3 Depth=2
	movl	-24(%rbp), %eax
	jmp	.LBB24_7
.LBB24_6:                               #   in Loop: Header=BB24_3 Depth=2
	movl	-20(%rbp), %eax
.LBB24_7:                               #   in Loop: Header=BB24_3 Depth=2
	movabsq	$distance, %rcx
	movslq	-16(%rbp), %rdx
	movslq	upscale(,%rdx,4), %rdx
	imulq	$576, %rdx, %rdx        # imm = 0x240
	addq	%rdx, %rcx
	movslq	-12(%rbp), %rdx
	movslq	upscale(,%rdx,4), %rdx
	movl	%eax, (%rcx,%rdx,4)
# %bb.8:                                #   in Loop: Header=BB24_3 Depth=2
	movl	-12(%rbp), %eax
	addl	$1, %eax
	movl	%eax, -12(%rbp)
	jmp	.LBB24_3
.LBB24_9:                               #   in Loop: Header=BB24_1 Depth=1
	jmp	.LBB24_10
.LBB24_10:                              #   in Loop: Header=BB24_1 Depth=1
	movl	-16(%rbp), %eax
	addl	$1, %eax
	movl	%eax, -16(%rbp)
	jmp	.LBB24_1
.LBB24_11:
	movl	$0, -16(%rbp)
.LBB24_12:                              # =>This Loop Header: Depth=1
                                        #     Child Loop BB24_14 Depth 2
	cmpl	$144, -16(%rbp)
	jge	.LBB24_34
# %bb.13:                               #   in Loop: Header=BB24_12 Depth=1
	movl	$0, -12(%rbp)
.LBB24_14:                              #   Parent Loop BB24_12 Depth=1
                                        # =>  This Inner Loop Header: Depth=2
	cmpl	$144, -12(%rbp)
	jge	.LBB24_32
# %bb.15:                               #   in Loop: Header=BB24_14 Depth=2
	movslq	-16(%rbp), %rax
	movl	Xrank(,%rax,4), %edi
	movslq	-12(%rbp), %rax
	subl	Xrank(,%rax,4), %edi
	callq	abs
	movl	%eax, %ebx
	movslq	-16(%rbp), %rax
	movl	Xfile(,%rax,4), %edi
	movslq	-12(%rbp), %rax
	subl	Xfile(,%rax,4), %edi
	callq	abs
	cmpl	%eax, %ebx
	jle	.LBB24_17
# %bb.16:                               #   in Loop: Header=BB24_14 Depth=2
	movslq	-16(%rbp), %rax
	movl	Xrank(,%rax,4), %edi
	movslq	-12(%rbp), %rax
	subl	Xrank(,%rax,4), %edi
	callq	abs
	jmp	.LBB24_18
.LBB24_17:                              #   in Loop: Header=BB24_14 Depth=2
	movslq	-16(%rbp), %rax
	movl	Xfile(,%rax,4), %edi
	movslq	-12(%rbp), %rax
	subl	Xfile(,%rax,4), %edi
	callq	abs
.LBB24_18:                              #   in Loop: Header=BB24_14 Depth=2
	movabsq	$p_tropism, %rcx
	cltq
	movl	pre_p_tropism(,%rax,4), %eax
	movslq	-16(%rbp), %rdx
	imulq	$144, %rdx, %rdx
	addq	%rdx, %rcx
	movslq	-12(%rbp), %rdx
	movb	%al, (%rcx,%rdx)
	movslq	-16(%rbp), %rax
	movl	Xrank(,%rax,4), %edi
	movslq	-12(%rbp), %rax
	subl	Xrank(,%rax,4), %edi
	callq	abs
	movl	%eax, %ebx
	movslq	-16(%rbp), %rax
	movl	Xfile(,%rax,4), %edi
	movslq	-12(%rbp), %rax
	subl	Xfile(,%rax,4), %edi
	callq	abs
	cmpl	%eax, %ebx
	jle	.LBB24_20
# %bb.19:                               #   in Loop: Header=BB24_14 Depth=2
	movslq	-16(%rbp), %rax
	movl	Xrank(,%rax,4), %edi
	movslq	-12(%rbp), %rax
	subl	Xrank(,%rax,4), %edi
	callq	abs
	jmp	.LBB24_21
.LBB24_20:                              #   in Loop: Header=BB24_14 Depth=2
	movslq	-16(%rbp), %rax
	movl	Xfile(,%rax,4), %edi
	movslq	-12(%rbp), %rax
	subl	Xfile(,%rax,4), %edi
	callq	abs
.LBB24_21:                              #   in Loop: Header=BB24_14 Depth=2
	movabsq	$b_tropism, %rcx
	cltq
	movl	pre_b_tropism(,%rax,4), %eax
	movslq	-16(%rbp), %rdx
	imulq	$144, %rdx, %rdx
	addq	%rdx, %rcx
	movslq	-12(%rbp), %rdx
	movb	%al, (%rcx,%rdx)
	movslq	-16(%rbp), %rax
	movl	Xrank(,%rax,4), %edi
	movslq	-12(%rbp), %rax
	subl	Xrank(,%rax,4), %edi
	callq	abs
	movl	%eax, %ebx
	movslq	-16(%rbp), %rax
	movl	Xfile(,%rax,4), %edi
	movslq	-12(%rbp), %rax
	subl	Xfile(,%rax,4), %edi
	callq	abs
	cmpl	%eax, %ebx
	jle	.LBB24_23
# %bb.22:                               #   in Loop: Header=BB24_14 Depth=2
	movslq	-16(%rbp), %rax
	movl	Xrank(,%rax,4), %edi
	movslq	-12(%rbp), %rax
	subl	Xrank(,%rax,4), %edi
	callq	abs
	jmp	.LBB24_24
.LBB24_23:                              #   in Loop: Header=BB24_14 Depth=2
	movslq	-16(%rbp), %rax
	movl	Xfile(,%rax,4), %edi
	movslq	-12(%rbp), %rax
	subl	Xfile(,%rax,4), %edi
	callq	abs
.LBB24_24:                              #   in Loop: Header=BB24_14 Depth=2
	movabsq	$n_tropism, %rcx
	cltq
	movl	pre_n_tropism(,%rax,4), %eax
	movslq	-16(%rbp), %rdx
	imulq	$144, %rdx, %rdx
	addq	%rdx, %rcx
	movslq	-12(%rbp), %rdx
	movb	%al, (%rcx,%rdx)
	movslq	-16(%rbp), %rax
	movl	Xrank(,%rax,4), %edi
	movslq	-12(%rbp), %rax
	subl	Xrank(,%rax,4), %edi
	callq	abs
	movl	%eax, %ebx
	movslq	-16(%rbp), %rax
	movl	Xfile(,%rax,4), %edi
	movslq	-12(%rbp), %rax
	subl	Xfile(,%rax,4), %edi
	callq	abs
	cmpl	%eax, %ebx
	jle	.LBB24_26
# %bb.25:                               #   in Loop: Header=BB24_14 Depth=2
	movslq	-16(%rbp), %rax
	movl	Xrank(,%rax,4), %edi
	movslq	-12(%rbp), %rax
	subl	Xrank(,%rax,4), %edi
	callq	abs
	jmp	.LBB24_27
.LBB24_26:                              #   in Loop: Header=BB24_14 Depth=2
	movslq	-16(%rbp), %rax
	movl	Xfile(,%rax,4), %edi
	movslq	-12(%rbp), %rax
	subl	Xfile(,%rax,4), %edi
	callq	abs
.LBB24_27:                              #   in Loop: Header=BB24_14 Depth=2
	movabsq	$r_tropism, %rcx
	cltq
	movl	pre_r_tropism(,%rax,4), %eax
	movslq	-16(%rbp), %rdx
	imulq	$144, %rdx, %rdx
	addq	%rdx, %rcx
	movslq	-12(%rbp), %rdx
	movb	%al, (%rcx,%rdx)
	movslq	-16(%rbp), %rax
	movl	Xrank(,%rax,4), %edi
	movslq	-12(%rbp), %rax
	subl	Xrank(,%rax,4), %edi
	callq	abs
	movl	%eax, %ebx
	movslq	-16(%rbp), %rax
	movl	Xfile(,%rax,4), %edi
	movslq	-12(%rbp), %rax
	subl	Xfile(,%rax,4), %edi
	callq	abs
	cmpl	%eax, %ebx
	jle	.LBB24_29
# %bb.28:                               #   in Loop: Header=BB24_14 Depth=2
	movslq	-16(%rbp), %rax
	movl	Xrank(,%rax,4), %edi
	movslq	-12(%rbp), %rax
	subl	Xrank(,%rax,4), %edi
	callq	abs
	jmp	.LBB24_30
.LBB24_29:                              #   in Loop: Header=BB24_14 Depth=2
	movslq	-16(%rbp), %rax
	movl	Xfile(,%rax,4), %edi
	movslq	-12(%rbp), %rax
	subl	Xfile(,%rax,4), %edi
	callq	abs
.LBB24_30:                              #   in Loop: Header=BB24_14 Depth=2
	movabsq	$q_tropism, %rcx
	cltq
	movl	pre_q_tropism(,%rax,4), %eax
	movslq	-16(%rbp), %rdx
	imulq	$144, %rdx, %rdx
	addq	%rdx, %rcx
	movslq	-12(%rbp), %rdx
	movb	%al, (%rcx,%rdx)
# %bb.31:                               #   in Loop: Header=BB24_14 Depth=2
	movl	-12(%rbp), %eax
	addl	$1, %eax
	movl	%eax, -12(%rbp)
	jmp	.LBB24_14
.LBB24_32:                              #   in Loop: Header=BB24_12 Depth=1
	jmp	.LBB24_33
.LBB24_33:                              #   in Loop: Header=BB24_12 Depth=1
	movl	-16(%rbp), %eax
	addl	$1, %eax
	movl	%eax, -16(%rbp)
	jmp	.LBB24_12
.LBB24_34:
	addq	$24, %rsp
	popq	%rbx
	popq	%rbp
	retq
.Lfunc_end24:
	.size	initialize_eval, .Lfunc_end24-initialize_eval
	.cfi_endproc
                                        # -- End function
	.globl	eval                    # -- Begin function eval
	.p2align	4, 0x90
	.type	eval,@function
eval:                                   # @eval
	.cfi_startproc
# %bb.0:
	pushq	%rbp
	.cfi_def_cfa_offset 16
	.cfi_offset %rbp, -16
	movq	%rsp, %rbp
	.cfi_def_cfa_register %rbp
	subq	$64, %rsp
	movl	%edi, -56(%rbp)
	movl	%esi, -52(%rbp)
	movl	$0, -4(%rbp)
	cmpl	$2, Variant
	jne	.LBB25_2
# %bb.1:
	movl	-56(%rbp), %edi
	movl	-52(%rbp), %esi
	callq	std_eval
	movl	%eax, -24(%rbp)
	jmp	.LBB25_288
.LBB25_2:
	cmpl	$3, Variant
	jne	.LBB25_4
# %bb.3:
	callq	suicide_eval
	movl	%eax, -24(%rbp)
	jmp	.LBB25_288
.LBB25_4:
	cmpl	$4, Variant
	jne	.LBB25_6
# %bb.5:
	callq	losers_eval
	movl	%eax, -24(%rbp)
	jmp	.LBB25_288
.LBB25_6:
	jmp	.LBB25_7
.LBB25_7:
	jmp	.LBB25_8
.LBB25_8:
	leaq	-4(%rbp), %rdi
	leaq	-48(%rbp), %rsi
	movl	$0, -48(%rbp)
	callq	checkECache
	cmpl	$0, -48(%rbp)
	je	.LBB25_12
# %bb.9:
	cmpl	$1, white_to_move
	jne	.LBB25_11
# %bb.10:
	movl	-4(%rbp), %eax
	movl	%eax, -24(%rbp)
	jmp	.LBB25_288
.LBB25_11:
	xorl	%eax, %eax
	subl	-4(%rbp), %eax
	movl	%eax, -24(%rbp)
	jmp	.LBB25_288
.LBB25_12:
	cmpl	$0, cfg_devscale
	je	.LBB25_34
# %bb.13:
	movl	white_to_move, %eax
	cmpl	comp_color, %eax
	je	.LBB25_22
# %bb.14:
	cmpl	$200, white_hand_eval
	jg	.LBB25_17
# %bb.15:
	cmpl	$1, Variant
	je	.LBB25_17
# %bb.16:
	movl	$2, -20(%rbp)
	jmp	.LBB25_21
.LBB25_17:
	cmpl	$700, white_hand_eval   # imm = 0x2BC
	jl	.LBB25_19
# %bb.18:
	movl	$0, -20(%rbp)
	jmp	.LBB25_20
.LBB25_19:
	movl	$1, -20(%rbp)
.LBB25_20:
	jmp	.LBB25_21
.LBB25_21:
	jmp	.LBB25_23
.LBB25_22:
	movl	$0, -20(%rbp)
.LBB25_23:
	movl	white_to_move, %eax
	cmpl	comp_color, %eax
	jne	.LBB25_32
# %bb.24:
	xorl	%eax, %eax
	subl	black_hand_eval, %eax
	cmpl	$200, %eax
	jg	.LBB25_27
# %bb.25:
	cmpl	$1, Variant
	je	.LBB25_27
# %bb.26:
	movl	$2, -16(%rbp)
	jmp	.LBB25_31
.LBB25_27:
	xorl	%eax, %eax
	subl	black_hand_eval, %eax
	cmpl	$700, %eax              # imm = 0x2BC
	jl	.LBB25_29
# %bb.28:
	movl	$0, -16(%rbp)
	jmp	.LBB25_30
.LBB25_29:
	movl	$1, -16(%rbp)
.LBB25_30:
	jmp	.LBB25_31
.LBB25_31:
	jmp	.LBB25_33
.LBB25_32:
	movl	$0, -16(%rbp)
.LBB25_33:
	jmp	.LBB25_35
.LBB25_34:
	movl	$0, -16(%rbp)
	movl	$0, -20(%rbp)
.LBB25_35:
	movl	$1, -44(%rbp)
	movl	$1, -40(%rbp)
.LBB25_36:                              # =>This Inner Loop Header: Depth=1
	movl	-44(%rbp), %eax
	cmpl	piece_count, %eax
	jg	.LBB25_54
# %bb.37:                               #   in Loop: Header=BB25_36 Depth=1
	movslq	-40(%rbp), %rax
	movl	pieces(,%rax,4), %eax
	movl	%eax, -12(%rbp)
	cmpl	$0, -12(%rbp)
	jne	.LBB25_39
# %bb.38:                               #   in Loop: Header=BB25_36 Depth=1
	jmp	.LBB25_53
.LBB25_39:                              #   in Loop: Header=BB25_36 Depth=1
	movl	-44(%rbp), %eax
	addl	$1, %eax
	movl	%eax, -44(%rbp)
# %bb.40:                               #   in Loop: Header=BB25_36 Depth=1
	movslq	-12(%rbp), %rax
	movl	board(,%rax,4), %eax
	addl	$-1, %eax
	movl	%eax, %ecx
	subl	$11, %ecx
	ja	.LBB25_52
# %bb.41:                               #   in Loop: Header=BB25_36 Depth=1
	movq	.LJTI25_0(,%rax,8), %rax
	jmpq	*%rax
.LBB25_42:                              #   in Loop: Header=BB25_36 Depth=1
	movabsq	$p_tropism, %rax
	movl	-4(%rbp), %ecx
	addl	$100, %ecx
	movl	%ecx, -4(%rbp)
	movslq	-12(%rbp), %rcx
	movl	white_pawn(,%rcx,4), %edx
	movl	-20(%rbp), %ecx
                                        # kill: def %cl killed %ecx
	sarl	%cl, %edx
	addl	-4(%rbp), %edx
	movl	%edx, -4(%rbp)
	movslq	-12(%rbp), %rcx
	imulq	$144, %rcx, %rcx
	addq	%rcx, %rax
	movslq	bking_loc, %rcx
	movzbl	(%rax,%rcx), %eax
	addl	-4(%rbp), %eax
	movl	%eax, -4(%rbp)
	jmp	.LBB25_52
.LBB25_43:                              #   in Loop: Header=BB25_36 Depth=1
	movabsq	$p_tropism, %rax
	movl	-4(%rbp), %ecx
	subl	$100, %ecx
	movl	%ecx, -4(%rbp)
	movslq	-12(%rbp), %rcx
	movl	black_pawn(,%rcx,4), %edx
	movl	-16(%rbp), %ecx
                                        # kill: def %cl killed %ecx
	sarl	%cl, %edx
	movl	-4(%rbp), %ecx
	subl	%edx, %ecx
	movl	%ecx, -4(%rbp)
	movslq	-12(%rbp), %rcx
	imulq	$144, %rcx, %rcx
	addq	%rcx, %rax
	movslq	wking_loc, %rcx
	movzbl	(%rax,%rcx), %eax
	movl	-4(%rbp), %ecx
	subl	%eax, %ecx
	movl	%ecx, -4(%rbp)
	jmp	.LBB25_52
.LBB25_44:                              #   in Loop: Header=BB25_36 Depth=1
	movabsq	$r_tropism, %rax
	movl	-4(%rbp), %ecx
	addl	$250, %ecx
	movl	%ecx, -4(%rbp)
	movslq	-12(%rbp), %rcx
	movl	white_rook(,%rcx,4), %edx
	movl	-20(%rbp), %ecx
                                        # kill: def %cl killed %ecx
	sarl	%cl, %edx
	addl	-4(%rbp), %edx
	movl	%edx, -4(%rbp)
	movslq	-12(%rbp), %rcx
	imulq	$144, %rcx, %rcx
	addq	%rcx, %rax
	movslq	bking_loc, %rcx
	movzbl	(%rax,%rcx), %eax
	addl	-4(%rbp), %eax
	movl	%eax, -4(%rbp)
	jmp	.LBB25_52
.LBB25_45:                              #   in Loop: Header=BB25_36 Depth=1
	movabsq	$r_tropism, %rax
	movl	-4(%rbp), %ecx
	subl	$250, %ecx
	movl	%ecx, -4(%rbp)
	movslq	-12(%rbp), %rcx
	movl	black_rook(,%rcx,4), %edx
	movl	-16(%rbp), %ecx
                                        # kill: def %cl killed %ecx
	sarl	%cl, %edx
	movl	-4(%rbp), %ecx
	subl	%edx, %ecx
	movl	%ecx, -4(%rbp)
	movslq	-12(%rbp), %rcx
	imulq	$144, %rcx, %rcx
	addq	%rcx, %rax
	movslq	wking_loc, %rcx
	movzbl	(%rax,%rcx), %eax
	movl	-4(%rbp), %ecx
	subl	%eax, %ecx
	movl	%ecx, -4(%rbp)
	jmp	.LBB25_52
.LBB25_46:                              #   in Loop: Header=BB25_36 Depth=1
	movabsq	$b_tropism, %rax
	movl	-4(%rbp), %ecx
	addl	$230, %ecx
	movl	%ecx, -4(%rbp)
	movslq	-12(%rbp), %rcx
	movl	pcsqbishop(,%rcx,4), %edx
	movl	-20(%rbp), %ecx
                                        # kill: def %cl killed %ecx
	sarl	%cl, %edx
	addl	-4(%rbp), %edx
	movl	%edx, -4(%rbp)
	movslq	-12(%rbp), %rcx
	imulq	$144, %rcx, %rcx
	addq	%rcx, %rax
	movslq	bking_loc, %rcx
	movzbl	(%rax,%rcx), %eax
	addl	-4(%rbp), %eax
	movl	%eax, -4(%rbp)
	jmp	.LBB25_52
.LBB25_47:                              #   in Loop: Header=BB25_36 Depth=1
	movabsq	$b_tropism, %rax
	movl	-4(%rbp), %ecx
	subl	$230, %ecx
	movl	%ecx, -4(%rbp)
	movslq	-12(%rbp), %rcx
	movl	pcsqbishop(,%rcx,4), %edx
	movl	-16(%rbp), %ecx
                                        # kill: def %cl killed %ecx
	sarl	%cl, %edx
	movl	-4(%rbp), %ecx
	subl	%edx, %ecx
	movl	%ecx, -4(%rbp)
	movslq	-12(%rbp), %rcx
	imulq	$144, %rcx, %rcx
	addq	%rcx, %rax
	movslq	wking_loc, %rcx
	movzbl	(%rax,%rcx), %eax
	movl	-4(%rbp), %ecx
	subl	%eax, %ecx
	movl	%ecx, -4(%rbp)
	jmp	.LBB25_52
.LBB25_48:                              #   in Loop: Header=BB25_36 Depth=1
	movabsq	$n_tropism, %rax
	movl	-4(%rbp), %ecx
	addl	$210, %ecx
	movl	%ecx, -4(%rbp)
	movslq	-12(%rbp), %rcx
	movl	white_knight(,%rcx,4), %edx
	movl	-20(%rbp), %ecx
                                        # kill: def %cl killed %ecx
	sarl	%cl, %edx
	addl	-4(%rbp), %edx
	movl	%edx, -4(%rbp)
	movslq	-12(%rbp), %rcx
	imulq	$144, %rcx, %rcx
	addq	%rcx, %rax
	movslq	bking_loc, %rcx
	movzbl	(%rax,%rcx), %eax
	addl	-4(%rbp), %eax
	movl	%eax, -4(%rbp)
	jmp	.LBB25_52
.LBB25_49:                              #   in Loop: Header=BB25_36 Depth=1
	movabsq	$n_tropism, %rax
	movl	-4(%rbp), %ecx
	subl	$210, %ecx
	movl	%ecx, -4(%rbp)
	movslq	-12(%rbp), %rcx
	movl	black_knight(,%rcx,4), %edx
	movl	-16(%rbp), %ecx
                                        # kill: def %cl killed %ecx
	sarl	%cl, %edx
	movl	-4(%rbp), %ecx
	subl	%edx, %ecx
	movl	%ecx, -4(%rbp)
	movslq	-12(%rbp), %rcx
	imulq	$144, %rcx, %rcx
	addq	%rcx, %rax
	movslq	wking_loc, %rcx
	movzbl	(%rax,%rcx), %eax
	movl	-4(%rbp), %ecx
	subl	%eax, %ecx
	movl	%ecx, -4(%rbp)
	jmp	.LBB25_52
.LBB25_50:                              #   in Loop: Header=BB25_36 Depth=1
	movabsq	$q_tropism, %rax
	movl	-4(%rbp), %ecx
	addl	$450, %ecx              # imm = 0x1C2
	movl	%ecx, -4(%rbp)
	movslq	-12(%rbp), %rcx
	movl	white_queen(,%rcx,4), %edx
	movl	-20(%rbp), %ecx
                                        # kill: def %cl killed %ecx
	sarl	%cl, %edx
	addl	-4(%rbp), %edx
	movl	%edx, -4(%rbp)
	movslq	-12(%rbp), %rcx
	imulq	$144, %rcx, %rcx
	addq	%rcx, %rax
	movslq	bking_loc, %rcx
	movzbl	(%rax,%rcx), %eax
	addl	-4(%rbp), %eax
	movl	%eax, -4(%rbp)
	jmp	.LBB25_52
.LBB25_51:                              #   in Loop: Header=BB25_36 Depth=1
	movabsq	$q_tropism, %rax
	movl	-4(%rbp), %ecx
	subl	$450, %ecx              # imm = 0x1C2
	movl	%ecx, -4(%rbp)
	movslq	-12(%rbp), %rcx
	movl	black_queen(,%rcx,4), %edx
	movl	-16(%rbp), %ecx
                                        # kill: def %cl killed %ecx
	sarl	%cl, %edx
	movl	-4(%rbp), %ecx
	subl	%edx, %ecx
	movl	%ecx, -4(%rbp)
	movslq	-12(%rbp), %rcx
	imulq	$144, %rcx, %rcx
	addq	%rcx, %rax
	movslq	wking_loc, %rcx
	movzbl	(%rax,%rcx), %eax
	movl	-4(%rbp), %ecx
	subl	%eax, %ecx
	movl	%ecx, -4(%rbp)
.LBB25_52:                              #   in Loop: Header=BB25_36 Depth=1
	jmp	.LBB25_53
.LBB25_53:                              #   in Loop: Header=BB25_36 Depth=1
	movl	-40(%rbp), %eax
	addl	$1, %eax
	movl	%eax, -40(%rbp)
	jmp	.LBB25_36
.LBB25_54:
	movslq	wking_loc, %rax
	movl	white_king(,%rax,4), %eax
	movl	-16(%rbp), %ecx
                                        # kill: def %cl killed %ecx
	sarl	%cl, %eax
	addl	-4(%rbp), %eax
	movl	%eax, -4(%rbp)
	movslq	bking_loc, %rax
	movl	black_king(,%rax,4), %eax
	movl	-20(%rbp), %ecx
                                        # kill: def %cl killed %ecx
	sarl	%cl, %eax
	movl	-4(%rbp), %ecx
	subl	%eax, %ecx
	movl	%ecx, -4(%rbp)
	cmpl	$0, white_castled
	jne	.LBB25_57
# %bb.55:
	cmpl	$0, moved+120
	je	.LBB25_57
# %bb.56:
	movl	-4(%rbp), %eax
	subl	$30, %eax
	movl	%eax, -4(%rbp)
.LBB25_57:
	cmpl	$0, black_castled
	jne	.LBB25_60
# %bb.58:
	cmpl	$0, moved+456
	je	.LBB25_60
# %bb.59:
	movl	-4(%rbp), %eax
	addl	$30, %eax
	movl	%eax, -4(%rbp)
.LBB25_60:
	cmpl	$0, moved+164
	jne	.LBB25_63
# %bb.61:
	cmpl	$13, board+212
	je	.LBB25_63
# %bb.62:
	movl	-4(%rbp), %eax
	subl	$15, %eax
	movl	%eax, -4(%rbp)
.LBB25_63:
	cmpl	$0, moved+168
	jne	.LBB25_66
# %bb.64:
	cmpl	$13, board+216
	je	.LBB25_66
# %bb.65:
	movl	-4(%rbp), %eax
	subl	$15, %eax
	movl	%eax, -4(%rbp)
.LBB25_66:
	cmpl	$0, moved+404
	jne	.LBB25_69
# %bb.67:
	cmpl	$13, board+356
	je	.LBB25_69
# %bb.68:
	movl	-4(%rbp), %eax
	addl	$15, %eax
	movl	%eax, -4(%rbp)
.LBB25_69:
	cmpl	$0, moved+408
	jne	.LBB25_72
# %bb.70:
	cmpl	$13, board+360
	je	.LBB25_72
# %bb.71:
	movl	-4(%rbp), %eax
	addl	$15, %eax
	movl	%eax, -4(%rbp)
.LBB25_72:
	cmpl	$0, cfg_smarteval
	je	.LBB25_225
# %bb.73:
	cmpl	$30, wking_loc
	je	.LBB25_90
# %bb.74:
	cmpl	$29, wking_loc
	je	.LBB25_90
# %bb.75:
	movl	wking_loc, %eax
	addl	$11, %eax
	cltq
	cmpl	$1, board(,%rax,4)
	je	.LBB25_77
# %bb.76:
	movl	-4(%rbp), %eax
	subl	$24, %eax
	movl	%eax, -4(%rbp)
.LBB25_77:
	movl	wking_loc, %eax
	addl	$12, %eax
	cltq
	cmpl	$1, board(,%rax,4)
	je	.LBB25_79
# %bb.78:
	movl	-4(%rbp), %eax
	subl	$35, %eax
	movl	%eax, -4(%rbp)
.LBB25_79:
	movl	wking_loc, %eax
	addl	$13, %eax
	cltq
	cmpl	$1, board(,%rax,4)
	je	.LBB25_81
# %bb.80:
	movl	-4(%rbp), %eax
	subl	$24, %eax
	movl	%eax, -4(%rbp)
.LBB25_81:
	cmpl	$0, white_castled
	je	.LBB25_89
# %bb.82:
	movl	bking_loc, %eax
	subl	$25, %eax
	cltq
	cmpl	$2, board(,%rax,4)
	jne	.LBB25_84
# %bb.83:
	movl	-4(%rbp), %eax
	addl	$11, %eax
	movl	%eax, -4(%rbp)
.LBB25_84:
	movl	bking_loc, %eax
	subl	$24, %eax
	cltq
	cmpl	$2, board(,%rax,4)
	jne	.LBB25_86
# %bb.85:
	movl	-4(%rbp), %eax
	addl	$15, %eax
	movl	%eax, -4(%rbp)
.LBB25_86:
	movl	bking_loc, %eax
	subl	$23, %eax
	cltq
	cmpl	$2, board(,%rax,4)
	jne	.LBB25_88
# %bb.87:
	movl	-4(%rbp), %eax
	addl	$11, %eax
	movl	%eax, -4(%rbp)
.LBB25_88:
	jmp	.LBB25_89
.LBB25_89:
	jmp	.LBB25_90
.LBB25_90:
	cmpl	$114, bking_loc
	je	.LBB25_107
# %bb.91:
	cmpl	$113, bking_loc
	je	.LBB25_107
# %bb.92:
	movl	bking_loc, %eax
	subl	$13, %eax
	cltq
	cmpl	$2, board(,%rax,4)
	je	.LBB25_94
# %bb.93:
	movl	-4(%rbp), %eax
	addl	$24, %eax
	movl	%eax, -4(%rbp)
.LBB25_94:
	movl	bking_loc, %eax
	subl	$12, %eax
	cltq
	cmpl	$2, board(,%rax,4)
	je	.LBB25_96
# %bb.95:
	movl	-4(%rbp), %eax
	addl	$35, %eax
	movl	%eax, -4(%rbp)
.LBB25_96:
	movl	bking_loc, %eax
	subl	$11, %eax
	cltq
	cmpl	$2, board(,%rax,4)
	je	.LBB25_98
# %bb.97:
	movl	-4(%rbp), %eax
	addl	$24, %eax
	movl	%eax, -4(%rbp)
.LBB25_98:
	cmpl	$0, black_castled
	je	.LBB25_106
# %bb.99:
	movl	bking_loc, %eax
	subl	$25, %eax
	cltq
	cmpl	$2, board(,%rax,4)
	jne	.LBB25_101
# %bb.100:
	movl	-4(%rbp), %eax
	subl	$11, %eax
	movl	%eax, -4(%rbp)
.LBB25_101:
	movl	bking_loc, %eax
	subl	$24, %eax
	cltq
	cmpl	$2, board(,%rax,4)
	jne	.LBB25_103
# %bb.102:
	movl	-4(%rbp), %eax
	subl	$15, %eax
	movl	%eax, -4(%rbp)
.LBB25_103:
	movl	bking_loc, %eax
	subl	$23, %eax
	cltq
	cmpl	$2, board(,%rax,4)
	jne	.LBB25_105
# %bb.104:
	movl	-4(%rbp), %eax
	subl	$11, %eax
	movl	%eax, -4(%rbp)
.LBB25_105:
	jmp	.LBB25_106
.LBB25_106:
	jmp	.LBB25_107
.LBB25_107:
	cmpl	$0, moved+168
	je	.LBB25_117
# %bb.108:
	movl	-4(%rbp), %eax
	addl	$30, %eax
	movl	%eax, -4(%rbp)
	cmpl	$0, moved+164
	je	.LBB25_110
# %bb.109:
	movl	-4(%rbp), %eax
	addl	$25, %eax
	movl	%eax, -4(%rbp)
.LBB25_110:
	cmpl	$0, moved+128
	je	.LBB25_112
# %bb.111:
	movl	-4(%rbp), %eax
	addl	$20, %eax
	movl	%eax, -4(%rbp)
.LBB25_112:
	cmpl	$0, moved+108
	je	.LBB25_114
# %bb.113:
	movl	-4(%rbp), %eax
	addl	$15, %eax
	movl	%eax, -4(%rbp)
.LBB25_114:
	cmpl	$0, moved+112
	je	.LBB25_116
# %bb.115:
	movl	-4(%rbp), %eax
	addl	$10, %eax
	movl	%eax, -4(%rbp)
.LBB25_116:
	jmp	.LBB25_117
.LBB25_117:
	cmpl	$0, moved+408
	je	.LBB25_127
# %bb.118:
	movl	-4(%rbp), %eax
	subl	$30, %eax
	movl	%eax, -4(%rbp)
	cmpl	$0, moved+404
	je	.LBB25_120
# %bb.119:
	movl	-4(%rbp), %eax
	subl	$25, %eax
	movl	%eax, -4(%rbp)
.LBB25_120:
	cmpl	$0, moved+464
	je	.LBB25_122
# %bb.121:
	movl	-4(%rbp), %eax
	subl	$20, %eax
	movl	%eax, -4(%rbp)
.LBB25_122:
	cmpl	$0, moved+444
	je	.LBB25_124
# %bb.123:
	movl	-4(%rbp), %eax
	subl	$15, %eax
	movl	%eax, -4(%rbp)
.LBB25_124:
	cmpl	$0, moved+448
	je	.LBB25_126
# %bb.125:
	movl	-4(%rbp), %eax
	subl	$10, %eax
	movl	%eax, -4(%rbp)
.LBB25_126:
	jmp	.LBB25_127
.LBB25_127:
	cmpl	$1, board+176
	je	.LBB25_131
# %bb.128:
	cmpl	$2, board+220
	je	.LBB25_130
# %bb.129:
	cmpl	$2, board+264
	jne	.LBB25_131
.LBB25_130:
	movl	-4(%rbp), %eax
	subl	$30, %eax
	movl	%eax, -4(%rbp)
.LBB25_131:
	cmpl	$2, board+416
	je	.LBB25_135
# %bb.132:
	cmpl	$1, board+364
	je	.LBB25_134
# %bb.133:
	cmpl	$1, board+312
	jne	.LBB25_135
.LBB25_134:
	movl	-4(%rbp), %eax
	addl	$30, %eax
	movl	%eax, -4(%rbp)
.LBB25_135:
	movl	wking_loc, %eax
	addl	$12, %eax
	cltq
	cmpl	$2, board(,%rax,4)
	je	.LBB25_137
# %bb.136:
	movl	wking_loc, %eax
	addl	$12, %eax
	cltq
	cmpl	$12, board(,%rax,4)
	jne	.LBB25_142
.LBB25_137:
	movl	-4(%rbp), %eax
	subl	$35, %eax
	movl	%eax, -4(%rbp)
	movl	wking_loc, %eax
	addl	$12, %eax
	cltq
	cmpl	$0, board(,%rax,4)
	jne	.LBB25_139
# %bb.138:
	xorl	%eax, %eax
	testb	$1, %al
	jne	.LBB25_140
	jmp	.LBB25_141
.LBB25_139:
	movl	wking_loc, %edi
	addl	$12, %edi
	xorl	%esi, %esi
	callq	is_attacked
	cmpl	$0, %eax
	je	.LBB25_141
.LBB25_140:
	movl	$150, %eax
	movl	-16(%rbp), %ecx
                                        # kill: def %cl killed %ecx
	sarl	%cl, %eax
	movl	-4(%rbp), %ecx
	subl	%eax, %ecx
	movl	%ecx, -4(%rbp)
.LBB25_141:
	jmp	.LBB25_142
.LBB25_142:
	movl	bking_loc, %eax
	subl	$12, %eax
	cltq
	cmpl	$1, board(,%rax,4)
	je	.LBB25_144
# %bb.143:
	movl	bking_loc, %eax
	subl	$12, %eax
	cltq
	cmpl	$11, board(,%rax,4)
	jne	.LBB25_149
.LBB25_144:
	movl	-4(%rbp), %eax
	addl	$35, %eax
	movl	%eax, -4(%rbp)
	movl	bking_loc, %eax
	subl	$12, %eax
	cltq
	cmpl	$0, board(,%rax,4)
	jne	.LBB25_146
# %bb.145:
	xorl	%eax, %eax
	testb	$1, %al
	jne	.LBB25_147
	jmp	.LBB25_148
.LBB25_146:
	movl	bking_loc, %edi
	subl	$12, %edi
	movl	$1, %esi
	callq	is_attacked
	cmpl	$0, %eax
	je	.LBB25_148
.LBB25_147:
	movl	$150, %eax
	movl	-20(%rbp), %ecx
                                        # kill: def %cl killed %ecx
	sarl	%cl, %eax
	addl	-4(%rbp), %eax
	movl	%eax, -4(%rbp)
.LBB25_148:
	jmp	.LBB25_149
.LBB25_149:
	cmpl	$1, board+172
	je	.LBB25_152
# %bb.150:
	cmpl	$1, board+216
	je	.LBB25_152
# %bb.151:
	cmpl	$2, board+216
	jne	.LBB25_163
.LBB25_152:
	cmpl	$0, board+216
	jne	.LBB25_154
# %bb.153:
	xorl	%eax, %eax
	testb	$1, %al
	jne	.LBB25_155
	jmp	.LBB25_163
.LBB25_154:
	movl	$54, %edi
	xorl	%esi, %esi
	callq	is_attacked
	cmpl	$0, %eax
	je	.LBB25_163
.LBB25_155:
	cmpl	$1, board+172
	jne	.LBB25_157
# %bb.156:
	movl	-4(%rbp), %eax
	addl	$10, %eax
	movl	%eax, -4(%rbp)
.LBB25_157:
	cmpl	$1, board+216
	jne	.LBB25_159
# %bb.158:
	movl	-4(%rbp), %eax
	addl	$20, %eax
	movl	%eax, -4(%rbp)
	jmp	.LBB25_162
.LBB25_159:
	cmpl	$2, board+216
	jne	.LBB25_161
# %bb.160:
	movl	-4(%rbp), %eax
	subl	$15, %eax
	movl	%eax, -4(%rbp)
.LBB25_161:
	jmp	.LBB25_162
.LBB25_162:
	jmp	.LBB25_163
.LBB25_163:
	cmpl	$2, board+412
	je	.LBB25_166
# %bb.164:
	cmpl	$2, board+360
	je	.LBB25_166
# %bb.165:
	cmpl	$1, board+360
	jne	.LBB25_177
.LBB25_166:
	cmpl	$0, board+360
	jne	.LBB25_168
# %bb.167:
	xorl	%eax, %eax
	testb	$1, %al
	jne	.LBB25_169
	jmp	.LBB25_177
.LBB25_168:
	movl	$90, %edi
	movl	$1, %esi
	callq	is_attacked
	cmpl	$0, %eax
	je	.LBB25_177
.LBB25_169:
	cmpl	$2, board+412
	jne	.LBB25_171
# %bb.170:
	movl	-4(%rbp), %eax
	subl	$10, %eax
	movl	%eax, -4(%rbp)
.LBB25_171:
	cmpl	$2, board+360
	jne	.LBB25_173
# %bb.172:
	movl	-4(%rbp), %eax
	subl	$20, %eax
	movl	%eax, -4(%rbp)
	jmp	.LBB25_176
.LBB25_173:
	cmpl	$1, board+360
	jne	.LBB25_175
# %bb.174:
	movl	-4(%rbp), %eax
	addl	$15, %eax
	movl	%eax, -4(%rbp)
.LBB25_175:
	jmp	.LBB25_176
.LBB25_176:
	jmp	.LBB25_177
.LBB25_177:
	movslq	bking_loc, %rax
	cmpl	$0, board(,%rax,4)
	jne	.LBB25_179
# %bb.178:
	xorl	%eax, %eax
	testb	$1, %al
	jne	.LBB25_180
	jmp	.LBB25_181
.LBB25_179:
	movl	bking_loc, %edi
	movl	$1, %esi
	callq	is_attacked
	cmpl	$0, %eax
	je	.LBB25_181
.LBB25_180:
	movl	$50, %eax
	movl	-20(%rbp), %ecx
                                        # kill: def %cl killed %ecx
	sarl	%cl, %eax
	addl	-4(%rbp), %eax
	movl	%eax, -4(%rbp)
	jmp	.LBB25_186
.LBB25_181:
	movslq	wking_loc, %rax
	cmpl	$0, board(,%rax,4)
	jne	.LBB25_183
# %bb.182:
	xorl	%eax, %eax
	testb	$1, %al
	jne	.LBB25_184
	jmp	.LBB25_185
.LBB25_183:
	movl	wking_loc, %edi
	xorl	%esi, %esi
	callq	is_attacked
	cmpl	$0, %eax
	je	.LBB25_185
.LBB25_184:
	movl	$50, %eax
	movl	-16(%rbp), %ecx
                                        # kill: def %cl killed %ecx
	sarl	%cl, %eax
	movl	-4(%rbp), %ecx
	subl	%eax, %ecx
	movl	%ecx, -4(%rbp)
.LBB25_185:
	jmp	.LBB25_186
.LBB25_186:
	cmpl	$4, board+176
	jne	.LBB25_196
# %bb.187:
	movl	-4(%rbp), %eax
	subl	$20, %eax
	movl	%eax, -4(%rbp)
	cmpl	$0, board+176
	jne	.LBB25_189
# %bb.188:
	xorl	%eax, %eax
	testb	$1, %al
	jne	.LBB25_190
	jmp	.LBB25_191
.LBB25_189:
	movl	$44, %edi
	xorl	%esi, %esi
	callq	is_attacked
	cmpl	$0, %eax
	je	.LBB25_191
.LBB25_190:
	movl	-4(%rbp), %eax
	subl	$40, %eax
	movl	%eax, -4(%rbp)
.LBB25_191:
	cmpl	$7, board+128
	jne	.LBB25_193
# %bb.192:
	movl	-4(%rbp), %eax
	addl	$10, %eax
	movl	%eax, -4(%rbp)
.LBB25_193:
	cmpl	$11, board+124
	jne	.LBB25_195
# %bb.194:
	movl	-4(%rbp), %eax
	addl	$10, %eax
	movl	%eax, -4(%rbp)
.LBB25_195:
	jmp	.LBB25_196
.LBB25_196:
	cmpl	$3, board+416
	jne	.LBB25_206
# %bb.197:
	movl	-4(%rbp), %eax
	addl	$20, %eax
	movl	%eax, -4(%rbp)
	cmpl	$0, board+416
	jne	.LBB25_199
# %bb.198:
	xorl	%eax, %eax
	testb	$1, %al
	jne	.LBB25_200
	jmp	.LBB25_201
.LBB25_199:
	movl	$104, %edi
	movl	$1, %esi
	callq	is_attacked
	cmpl	$0, %eax
	je	.LBB25_201
.LBB25_200:
	movl	-4(%rbp), %eax
	addl	$40, %eax
	movl	%eax, -4(%rbp)
.LBB25_201:
	cmpl	$8, board+464
	jne	.LBB25_203
# %bb.202:
	movl	-4(%rbp), %eax
	subl	$10, %eax
	movl	%eax, -4(%rbp)
.LBB25_203:
	cmpl	$12, board+460
	jne	.LBB25_205
# %bb.204:
	movl	-4(%rbp), %eax
	subl	$10, %eax
	movl	%eax, -4(%rbp)
.LBB25_205:
	jmp	.LBB25_206
.LBB25_206:
	cmpl	$12, board+228
	jne	.LBB25_215
# %bb.207:
	cmpl	$1, board+176
	je	.LBB25_215
# %bb.208:
	movl	-4(%rbp), %eax
	subl	$20, %eax
	movl	%eax, -4(%rbp)
	cmpl	$4, board+176
	jne	.LBB25_214
# %bb.209:
	movl	-4(%rbp), %eax
	subl	$40, %eax
	movl	%eax, -4(%rbp)
	cmpl	$5, board+124
	je	.LBB25_212
# %bb.210:
	cmpl	$5, board+128
	je	.LBB25_212
# %bb.211:
	cmpl	$5, board+132
	jne	.LBB25_213
.LBB25_212:
	movl	-4(%rbp), %eax
	subl	$80, %eax
	movl	%eax, -4(%rbp)
.LBB25_213:
	jmp	.LBB25_214
.LBB25_214:
	jmp	.LBB25_215
.LBB25_215:
	cmpl	$11, board+372
	jne	.LBB25_224
# %bb.216:
	cmpl	$2, board+416
	je	.LBB25_224
# %bb.217:
	movl	-4(%rbp), %eax
	addl	$20, %eax
	movl	%eax, -4(%rbp)
	cmpl	$3, board+416
	jne	.LBB25_223
# %bb.218:
	movl	-4(%rbp), %eax
	addl	$40, %eax
	movl	%eax, -4(%rbp)
	cmpl	$6, board+460
	je	.LBB25_221
# %bb.219:
	cmpl	$6, board+464
	je	.LBB25_221
# %bb.220:
	cmpl	$6, board+468
	jne	.LBB25_222
.LBB25_221:
	movl	-4(%rbp), %eax
	addl	$80, %eax
	movl	%eax, -4(%rbp)
.LBB25_222:
	jmp	.LBB25_223
.LBB25_223:
	jmp	.LBB25_224
.LBB25_224:
	jmp	.LBB25_225
.LBB25_225:
	cmpl	$0, cfg_attackeval
	je	.LBB25_285
# %bb.226:
	movl	$0, -8(%rbp)
	movl	$0, -36(%rbp)
	movl	wking_loc, %eax
	subl	$13, %eax
	cltq
	cmpl	$0, board(,%rax,4)
	jne	.LBB25_228
# %bb.227:
	xorl	%eax, %eax
	jmp	.LBB25_229
.LBB25_228:
	movl	wking_loc, %edi
	subl	$13, %edi
	xorl	%esi, %esi
	callq	nk_attacked
.LBB25_229:
	addl	-8(%rbp), %eax
	movl	%eax, -8(%rbp)
	movl	wking_loc, %eax
	subl	$12, %eax
	cltq
	cmpl	$0, board(,%rax,4)
	jne	.LBB25_231
# %bb.230:
	xorl	%eax, %eax
	jmp	.LBB25_232
.LBB25_231:
	movl	wking_loc, %edi
	subl	$12, %edi
	xorl	%esi, %esi
	callq	nk_attacked
.LBB25_232:
	addl	-8(%rbp), %eax
	movl	%eax, -8(%rbp)
	movl	wking_loc, %eax
	subl	$11, %eax
	cltq
	cmpl	$0, board(,%rax,4)
	jne	.LBB25_234
# %bb.233:
	xorl	%eax, %eax
	jmp	.LBB25_235
.LBB25_234:
	movl	wking_loc, %edi
	subl	$11, %edi
	xorl	%esi, %esi
	callq	nk_attacked
.LBB25_235:
	addl	-8(%rbp), %eax
	movl	%eax, -8(%rbp)
	movl	wking_loc, %eax
	subl	$1, %eax
	cltq
	cmpl	$0, board(,%rax,4)
	jne	.LBB25_237
# %bb.236:
	xorl	%eax, %eax
	jmp	.LBB25_238
.LBB25_237:
	movl	wking_loc, %edi
	subl	$1, %edi
	xorl	%esi, %esi
	callq	nk_attacked
.LBB25_238:
	addl	-8(%rbp), %eax
	movl	%eax, -8(%rbp)
	movl	wking_loc, %eax
	addl	$1, %eax
	cltq
	cmpl	$0, board(,%rax,4)
	jne	.LBB25_240
# %bb.239:
	xorl	%eax, %eax
	jmp	.LBB25_241
.LBB25_240:
	movl	wking_loc, %edi
	addl	$1, %edi
	xorl	%esi, %esi
	callq	nk_attacked
.LBB25_241:
	addl	-8(%rbp), %eax
	movl	%eax, -8(%rbp)
	movl	wking_loc, %eax
	addl	$11, %eax
	cltq
	cmpl	$0, board(,%rax,4)
	jne	.LBB25_243
# %bb.242:
	xorl	%eax, %eax
	jmp	.LBB25_244
.LBB25_243:
	movl	wking_loc, %edi
	addl	$11, %edi
	xorl	%esi, %esi
	callq	nk_attacked
.LBB25_244:
	addl	-8(%rbp), %eax
	movl	%eax, -8(%rbp)
	movl	wking_loc, %eax
	addl	$12, %eax
	cltq
	cmpl	$0, board(,%rax,4)
	jne	.LBB25_246
# %bb.245:
	xorl	%eax, %eax
	jmp	.LBB25_247
.LBB25_246:
	movl	wking_loc, %edi
	addl	$12, %edi
	xorl	%esi, %esi
	callq	nk_attacked
.LBB25_247:
	addl	-8(%rbp), %eax
	movl	%eax, -8(%rbp)
	movl	wking_loc, %eax
	addl	$13, %eax
	cltq
	cmpl	$0, board(,%rax,4)
	jne	.LBB25_249
# %bb.248:
	xorl	%eax, %eax
	jmp	.LBB25_250
.LBB25_249:
	movl	wking_loc, %edi
	addl	$13, %edi
	xorl	%esi, %esi
	callq	nk_attacked
.LBB25_250:
	movl	$100, %esi
	xorl	%ecx, %ecx
	addl	-8(%rbp), %eax
	movl	%eax, -8(%rbp)
	subl	black_hand_eval, %ecx
	movl	%ecx, %eax
	cltd
	idivl	%esi
	movl	%eax, -28(%rbp)
	cmpl	$14, -28(%rbp)
	jle	.LBB25_252
# %bb.251:
	movl	$14, -28(%rbp)
	jmp	.LBB25_255
.LBB25_252:
	cmpl	$0, -28(%rbp)
	jge	.LBB25_254
# %bb.253:
	movl	$0, -28(%rbp)
.LBB25_254:
	jmp	.LBB25_255
.LBB25_255:
	movabsq	$ksafety_scaled, %rax
	movslq	-28(%rbp), %rcx
	imulq	$36, %rcx, %rcx
	addq	%rcx, %rax
	movslq	-8(%rbp), %rcx
	movl	(%rax,%rcx,4), %eax
	movl	-36(%rbp), %ecx
	subl	%eax, %ecx
	movl	%ecx, -36(%rbp)
	movl	$0, -8(%rbp)
	movl	bking_loc, %eax
	subl	$13, %eax
	cltq
	cmpl	$0, board(,%rax,4)
	jne	.LBB25_257
# %bb.256:
	xorl	%eax, %eax
	jmp	.LBB25_258
.LBB25_257:
	movl	bking_loc, %edi
	subl	$13, %edi
	movl	$1, %esi
	callq	nk_attacked
.LBB25_258:
	addl	-8(%rbp), %eax
	movl	%eax, -8(%rbp)
	movl	bking_loc, %eax
	subl	$12, %eax
	cltq
	cmpl	$0, board(,%rax,4)
	jne	.LBB25_260
# %bb.259:
	xorl	%eax, %eax
	jmp	.LBB25_261
.LBB25_260:
	movl	bking_loc, %edi
	subl	$12, %edi
	movl	$1, %esi
	callq	nk_attacked
.LBB25_261:
	addl	-8(%rbp), %eax
	movl	%eax, -8(%rbp)
	movl	bking_loc, %eax
	subl	$11, %eax
	cltq
	cmpl	$0, board(,%rax,4)
	jne	.LBB25_263
# %bb.262:
	xorl	%eax, %eax
	jmp	.LBB25_264
.LBB25_263:
	movl	bking_loc, %edi
	subl	$11, %edi
	movl	$1, %esi
	callq	nk_attacked
.LBB25_264:
	addl	-8(%rbp), %eax
	movl	%eax, -8(%rbp)
	movl	bking_loc, %eax
	subl	$1, %eax
	cltq
	cmpl	$0, board(,%rax,4)
	jne	.LBB25_266
# %bb.265:
	xorl	%eax, %eax
	jmp	.LBB25_267
.LBB25_266:
	movl	bking_loc, %edi
	subl	$1, %edi
	movl	$1, %esi
	callq	nk_attacked
.LBB25_267:
	addl	-8(%rbp), %eax
	movl	%eax, -8(%rbp)
	movl	bking_loc, %eax
	addl	$1, %eax
	cltq
	cmpl	$0, board(,%rax,4)
	jne	.LBB25_269
# %bb.268:
	xorl	%eax, %eax
	jmp	.LBB25_270
.LBB25_269:
	movl	bking_loc, %edi
	addl	$1, %edi
	movl	$1, %esi
	callq	nk_attacked
.LBB25_270:
	addl	-8(%rbp), %eax
	movl	%eax, -8(%rbp)
	movl	bking_loc, %eax
	addl	$11, %eax
	cltq
	cmpl	$0, board(,%rax,4)
	jne	.LBB25_272
# %bb.271:
	xorl	%eax, %eax
	jmp	.LBB25_273
.LBB25_272:
	movl	bking_loc, %edi
	addl	$11, %edi
	movl	$1, %esi
	callq	nk_attacked
.LBB25_273:
	addl	-8(%rbp), %eax
	movl	%eax, -8(%rbp)
	movl	bking_loc, %eax
	addl	$12, %eax
	cltq
	cmpl	$0, board(,%rax,4)
	jne	.LBB25_275
# %bb.274:
	xorl	%eax, %eax
	jmp	.LBB25_276
.LBB25_275:
	movl	bking_loc, %edi
	addl	$12, %edi
	movl	$1, %esi
	callq	nk_attacked
.LBB25_276:
	addl	-8(%rbp), %eax
	movl	%eax, -8(%rbp)
	movl	bking_loc, %eax
	addl	$13, %eax
	cltq
	cmpl	$0, board(,%rax,4)
	jne	.LBB25_278
# %bb.277:
	xorl	%eax, %eax
	jmp	.LBB25_279
.LBB25_278:
	movl	bking_loc, %edi
	addl	$13, %edi
	movl	$1, %esi
	callq	nk_attacked
.LBB25_279:
	movl	$100, %ecx
	addl	-8(%rbp), %eax
	movl	%eax, -8(%rbp)
	movl	white_hand_eval, %eax
	cltd
	idivl	%ecx
	movl	%eax, -32(%rbp)
	cmpl	$14, -32(%rbp)
	jle	.LBB25_281
# %bb.280:
	movl	$14, -32(%rbp)
	jmp	.LBB25_284
.LBB25_281:
	cmpl	$0, -32(%rbp)
	jge	.LBB25_283
# %bb.282:
	movl	$0, -32(%rbp)
.LBB25_283:
	jmp	.LBB25_284
.LBB25_284:
	movabsq	$ksafety_scaled, %rax
	movslq	-32(%rbp), %rcx
	imulq	$36, %rcx, %rcx
	addq	%rcx, %rax
	movslq	-8(%rbp), %rcx
	movl	(%rax,%rcx,4), %eax
	addl	-36(%rbp), %eax
	movl	%eax, -36(%rbp)
	movl	-36(%rbp), %eax
	addl	-4(%rbp), %eax
	movl	%eax, -4(%rbp)
.LBB25_285:
	movl	white_hand_eval, %eax
	addl	black_hand_eval, %eax
	addl	-4(%rbp), %eax
	movl	%eax, -4(%rbp)
	movl	-4(%rbp), %edi
	callq	storeECache
	cmpl	$1, white_to_move
	jne	.LBB25_287
# %bb.286:
	movl	-4(%rbp), %eax
	movl	%eax, -24(%rbp)
	jmp	.LBB25_288
.LBB25_287:
	xorl	%eax, %eax
	subl	-4(%rbp), %eax
	movl	%eax, -24(%rbp)
.LBB25_288:
	movl	-24(%rbp), %eax
	addq	$64, %rsp
	popq	%rbp
	retq
.Lfunc_end25:
	.size	eval, .Lfunc_end25-eval
	.cfi_endproc
	.section	.rodata,"a",@progbits
	.p2align	3
.LJTI25_0:
	.quad	.LBB25_42
	.quad	.LBB25_43
	.quad	.LBB25_48
	.quad	.LBB25_49
	.quad	.LBB25_52
	.quad	.LBB25_52
	.quad	.LBB25_44
	.quad	.LBB25_45
	.quad	.LBB25_50
	.quad	.LBB25_51
	.quad	.LBB25_46
	.quad	.LBB25_47
                                        # -- End function
	.text
	.globl	losers_eval             # -- Begin function losers_eval
	.p2align	4, 0x90
	.type	losers_eval,@function
losers_eval:                            # @losers_eval
	.cfi_startproc
# %bb.0:
	pushq	%rbp
	.cfi_def_cfa_offset 16
	.cfi_offset %rbp, -16
	movq	%rsp, %rbp
	.cfi_def_cfa_register %rbp
	subq	$256, %rsp              # imm = 0x100
	leaq	-4(%rbp), %rdi
	leaq	-72(%rbp), %rsi
	movl	$0, -16(%rbp)
	movl	$0, -12(%rbp)
	movl	$0, -4(%rbp)
	movl	$0, -24(%rbp)
	movl	$0, -20(%rbp)
	movl	$0, -68(%rbp)
	movl	$0, -64(%rbp)
	movl	$0, -60(%rbp)
	movl	$0, -56(%rbp)
	movl	$0, -52(%rbp)
	movl	$0, -48(%rbp)
	movl	$0, -72(%rbp)
	callq	checkECache
	cmpl	$0, -72(%rbp)
	je	.LBB26_4
# %bb.1:
	cmpl	$1, white_to_move
	jne	.LBB26_3
# %bb.2:
	movl	-4(%rbp), %eax
	movl	%eax, -44(%rbp)
	jmp	.LBB26_127
.LBB26_3:
	xorl	%eax, %eax
	subl	-4(%rbp), %eax
	movl	%eax, -44(%rbp)
	jmp	.LBB26_127
.LBB26_4:
	leaq	-160(%rbp), %rdi
	xorl	%esi, %esi
	movl	$88, %edx
	callq	memset
	movl	$0, -8(%rbp)
.LBB26_5:                               # =>This Inner Loop Header: Depth=1
	cmpl	$11, -8(%rbp)
	jge	.LBB26_8
# %bb.6:                                #   in Loop: Header=BB26_5 Depth=1
	movslq	-8(%rbp), %rax
	movl	$7, -256(%rbp,%rax,4)
	movslq	-8(%rbp), %rax
	movl	$2, -208(%rbp,%rax,4)
# %bb.7:                                #   in Loop: Header=BB26_5 Depth=1
	movl	-8(%rbp), %eax
	addl	$1, %eax
	movl	%eax, -8(%rbp)
	jmp	.LBB26_5
.LBB26_8:
	movl	$1, -28(%rbp)
	movl	$1, -32(%rbp)
.LBB26_9:                               # =>This Inner Loop Header: Depth=1
	movl	-32(%rbp), %eax
	cmpl	piece_count, %eax
	jg	.LBB26_24
# %bb.10:                               #   in Loop: Header=BB26_9 Depth=1
	movslq	-28(%rbp), %rax
	movl	pieces(,%rax,4), %eax
	movl	%eax, -8(%rbp)
	cmpl	$0, -8(%rbp)
	jne	.LBB26_12
# %bb.11:                               #   in Loop: Header=BB26_9 Depth=1
	jmp	.LBB26_23
.LBB26_12:                              #   in Loop: Header=BB26_9 Depth=1
	movl	-32(%rbp), %eax
	addl	$1, %eax
	movl	%eax, -32(%rbp)
# %bb.13:                               #   in Loop: Header=BB26_9 Depth=1
	movslq	-8(%rbp), %rax
	movl	Xfile(,%rax,4), %eax
	addl	$1, %eax
	movl	%eax, -12(%rbp)
	movslq	-8(%rbp), %rax
	movl	Xrank(,%rax,4), %eax
	movl	%eax, -16(%rbp)
	movslq	-8(%rbp), %rax
	cmpl	$1, board(,%rax,4)
	jne	.LBB26_17
# %bb.14:                               #   in Loop: Header=BB26_9 Depth=1
	movslq	-12(%rbp), %rax
	movl	-116(%rbp,%rax,4), %ecx
	addl	$1, %ecx
	movl	%ecx, -116(%rbp,%rax,4)
	movl	-16(%rbp), %eax
	movslq	-12(%rbp), %rcx
	cmpl	-256(%rbp,%rcx,4), %eax
	jge	.LBB26_16
# %bb.15:                               #   in Loop: Header=BB26_9 Depth=1
	movl	-16(%rbp), %eax
	movslq	-12(%rbp), %rcx
	movl	%eax, -256(%rbp,%rcx,4)
.LBB26_16:                              #   in Loop: Header=BB26_9 Depth=1
	jmp	.LBB26_22
.LBB26_17:                              #   in Loop: Header=BB26_9 Depth=1
	movslq	-8(%rbp), %rax
	cmpl	$2, board(,%rax,4)
	jne	.LBB26_21
# %bb.18:                               #   in Loop: Header=BB26_9 Depth=1
	movslq	-12(%rbp), %rax
	movl	-160(%rbp,%rax,4), %ecx
	addl	$1, %ecx
	movl	%ecx, -160(%rbp,%rax,4)
	movl	-16(%rbp), %eax
	movslq	-12(%rbp), %rcx
	cmpl	-208(%rbp,%rcx,4), %eax
	jle	.LBB26_20
# %bb.19:                               #   in Loop: Header=BB26_9 Depth=1
	movl	-16(%rbp), %eax
	movslq	-12(%rbp), %rcx
	movl	%eax, -208(%rbp,%rcx,4)
.LBB26_20:                              #   in Loop: Header=BB26_9 Depth=1
	jmp	.LBB26_21
.LBB26_21:                              #   in Loop: Header=BB26_9 Depth=1
	jmp	.LBB26_22
.LBB26_22:                              #   in Loop: Header=BB26_9 Depth=1
	jmp	.LBB26_23
.LBB26_23:                              #   in Loop: Header=BB26_9 Depth=1
	movl	-28(%rbp), %eax
	addl	$1, %eax
	movl	%eax, -28(%rbp)
	jmp	.LBB26_9
.LBB26_24:
	movl	$1, -28(%rbp)
	movl	$1, -32(%rbp)
.LBB26_25:                              # =>This Inner Loop Header: Depth=1
	movl	-32(%rbp), %eax
	cmpl	piece_count, %eax
	jg	.LBB26_99
# %bb.26:                               #   in Loop: Header=BB26_25 Depth=1
	movslq	-28(%rbp), %rax
	movl	pieces(,%rax,4), %eax
	movl	%eax, -8(%rbp)
	cmpl	$0, -8(%rbp)
	jne	.LBB26_28
# %bb.27:                               #   in Loop: Header=BB26_25 Depth=1
	jmp	.LBB26_98
.LBB26_28:                              #   in Loop: Header=BB26_25 Depth=1
	movl	-32(%rbp), %eax
	addl	$1, %eax
	movl	%eax, -32(%rbp)
# %bb.29:                               #   in Loop: Header=BB26_25 Depth=1
	movslq	-8(%rbp), %rax
	movl	board(,%rax,4), %eax
	addl	$-1, %eax
	movl	%eax, %ecx
	subl	$11, %ecx
	ja	.LBB26_97
# %bb.30:                               #   in Loop: Header=BB26_25 Depth=1
	movq	.LJTI26_0(,%rax,8), %rax
	jmpq	*%rax
.LBB26_31:                              #   in Loop: Header=BB26_25 Depth=1
	movl	-24(%rbp), %eax
	addl	$1, %eax
	movl	%eax, -24(%rbp)
	movl	-52(%rbp), %eax
	addl	$1, %eax
	movl	%eax, -52(%rbp)
	movslq	-8(%rbp), %rax
	movl	lcentral(,%rax,4), %eax
	addl	-4(%rbp), %eax
	movl	%eax, -4(%rbp)
	movl	-8(%rbp), %edi
	callq	l_pawn_mobility
	shll	$2, %eax
	addl	-4(%rbp), %eax
	movl	%eax, -4(%rbp)
	movslq	-8(%rbp), %rax
	movl	Xrank(,%rax,4), %eax
	subl	$2, %eax
	shll	$3, %eax
	addl	-4(%rbp), %eax
	movl	%eax, -4(%rbp)
	movl	$0, -36(%rbp)
	movl	$0, -40(%rbp)
	movl	-12(%rbp), %eax
	addl	$1, %eax
	cltq
	movl	-256(%rbp,%rax,4), %eax
	cmpl	-16(%rbp), %eax
	jle	.LBB26_37
# %bb.32:                               #   in Loop: Header=BB26_25 Depth=1
	movl	-12(%rbp), %eax
	subl	$1, %eax
	cltq
	movl	-256(%rbp,%rax,4), %eax
	cmpl	-16(%rbp), %eax
	jle	.LBB26_37
# %bb.33:                               #   in Loop: Header=BB26_25 Depth=1
	movl	-4(%rbp), %eax
	subl	$8, %eax
	movl	%eax, -4(%rbp)
	movl	$1, -40(%rbp)
	movl	-12(%rbp), %eax
	addl	$1, %eax
	cltq
	cmpl	$0, -116(%rbp,%rax,4)
	jne	.LBB26_36
# %bb.34:                               #   in Loop: Header=BB26_25 Depth=1
	movl	-12(%rbp), %eax
	subl	$1, %eax
	cltq
	cmpl	$0, -116(%rbp,%rax,4)
	jne	.LBB26_36
# %bb.35:                               #   in Loop: Header=BB26_25 Depth=1
	movl	-4(%rbp), %eax
	subl	$12, %eax
	movl	%eax, -4(%rbp)
	movl	$1, -36(%rbp)
.LBB26_36:                              #   in Loop: Header=BB26_25 Depth=1
	jmp	.LBB26_37
.LBB26_37:                              #   in Loop: Header=BB26_25 Depth=1
	movslq	-12(%rbp), %rax
	cmpl	$0, -160(%rbp,%rax,4)
	jne	.LBB26_43
# %bb.38:                               #   in Loop: Header=BB26_25 Depth=1
	cmpl	$0, -40(%rbp)
	je	.LBB26_40
# %bb.39:                               #   in Loop: Header=BB26_25 Depth=1
	movl	-4(%rbp), %eax
	subl	$5, %eax
	movl	%eax, -4(%rbp)
.LBB26_40:                              #   in Loop: Header=BB26_25 Depth=1
	cmpl	$0, -36(%rbp)
	je	.LBB26_42
# %bb.41:                               #   in Loop: Header=BB26_25 Depth=1
	movl	-4(%rbp), %eax
	subl	$8, %eax
	movl	%eax, -4(%rbp)
.LBB26_42:                              #   in Loop: Header=BB26_25 Depth=1
	jmp	.LBB26_43
.LBB26_43:                              #   in Loop: Header=BB26_25 Depth=1
	movslq	-12(%rbp), %rax
	cmpl	$1, -116(%rbp,%rax,4)
	jle	.LBB26_45
# %bb.44:                               #   in Loop: Header=BB26_25 Depth=1
	movslq	-12(%rbp), %rax
	movl	-116(%rbp,%rax,4), %eax
	subl	$1, %eax
	shll	$3, %eax
	movl	-4(%rbp), %ecx
	subl	%eax, %ecx
	movl	%ecx, -4(%rbp)
.LBB26_45:                              #   in Loop: Header=BB26_25 Depth=1
	movslq	-12(%rbp), %rax
	cmpl	$0, -160(%rbp,%rax,4)
	jne	.LBB26_56
# %bb.46:                               #   in Loop: Header=BB26_25 Depth=1
	movl	-16(%rbp), %eax
	movl	-12(%rbp), %ecx
	subl	$1, %ecx
	movslq	%ecx, %rcx
	cmpl	-208(%rbp,%rcx,4), %eax
	jl	.LBB26_56
# %bb.47:                               #   in Loop: Header=BB26_25 Depth=1
	movl	-16(%rbp), %eax
	movl	-12(%rbp), %ecx
	addl	$1, %ecx
	movslq	%ecx, %rcx
	cmpl	-208(%rbp,%rcx,4), %eax
	jl	.LBB26_56
# %bb.48:                               #   in Loop: Header=BB26_25 Depth=1
	movslq	-8(%rbp), %rax
	movl	Xrank(,%rax,4), %eax
	subl	$2, %eax
	imull	$10, %eax, %eax
	addl	$25, %eax
	addl	-4(%rbp), %eax
	movl	%eax, -4(%rbp)
	movslq	-8(%rbp), %rax
	cmpl	$7, Xrank(,%rax,4)
	jne	.LBB26_50
# %bb.49:                               #   in Loop: Header=BB26_25 Depth=1
	movl	-4(%rbp), %eax
	addl	$50, %eax
	movl	%eax, -4(%rbp)
.LBB26_50:                              #   in Loop: Header=BB26_25 Depth=1
	movl	-60(%rbp), %eax
	addl	$1, %eax
	movl	%eax, -60(%rbp)
	movslq	-8(%rbp), %rax
	cmpl	$1, Xfile(,%rax,4)
	je	.LBB26_52
# %bb.51:                               #   in Loop: Header=BB26_25 Depth=1
	movslq	-8(%rbp), %rax
	cmpl	$8, Xfile(,%rax,4)
	jne	.LBB26_53
.LBB26_52:                              #   in Loop: Header=BB26_25 Depth=1
	movslq	-8(%rbp), %rax
	movl	Xrank(,%rax,4), %eax
	subl	$2, %eax
	shll	$1, %eax
	addl	$4, %eax
	addl	-4(%rbp), %eax
	movl	%eax, -4(%rbp)
.LBB26_53:                              #   in Loop: Header=BB26_25 Depth=1
	cmpl	$0, -36(%rbp)
	jne	.LBB26_55
# %bb.54:                               #   in Loop: Header=BB26_25 Depth=1
	movl	-4(%rbp), %eax
	addl	$24, %eax
	movl	%eax, -4(%rbp)
.LBB26_55:                              #   in Loop: Header=BB26_25 Depth=1
	jmp	.LBB26_56
.LBB26_56:                              #   in Loop: Header=BB26_25 Depth=1
	movl	-12(%rbp), %eax
	subl	$1, %eax
	cltq
	cmpl	$0, -116(%rbp,%rax,4)
	jne	.LBB26_58
# %bb.57:                               #   in Loop: Header=BB26_25 Depth=1
	movl	-4(%rbp), %eax
	subl	$5, %eax
	movl	%eax, -4(%rbp)
.LBB26_58:                              #   in Loop: Header=BB26_25 Depth=1
	jmp	.LBB26_97
.LBB26_59:                              #   in Loop: Header=BB26_25 Depth=1
	movl	-20(%rbp), %eax
	addl	$1, %eax
	movl	%eax, -20(%rbp)
	movl	-48(%rbp), %eax
	addl	$1, %eax
	movl	%eax, -48(%rbp)
	movslq	-8(%rbp), %rax
	movl	lcentral(,%rax,4), %eax
	movl	-4(%rbp), %ecx
	subl	%eax, %ecx
	movl	%ecx, -4(%rbp)
	movl	-8(%rbp), %edi
	callq	l_pawn_mobility
	movl	$7, %ecx
	shll	$2, %eax
	movl	-4(%rbp), %edx
	subl	%eax, %edx
	movl	%edx, -4(%rbp)
	movslq	-8(%rbp), %rax
	subl	Xrank(,%rax,4), %ecx
	shll	$3, %ecx
	movl	-4(%rbp), %eax
	subl	%ecx, %eax
	movl	%eax, -4(%rbp)
	movl	$0, -36(%rbp)
	movl	$0, -40(%rbp)
	movl	-12(%rbp), %eax
	addl	$1, %eax
	cltq
	movl	-208(%rbp,%rax,4), %eax
	cmpl	-16(%rbp), %eax
	jge	.LBB26_65
# %bb.60:                               #   in Loop: Header=BB26_25 Depth=1
	movl	-12(%rbp), %eax
	subl	$1, %eax
	cltq
	movl	-208(%rbp,%rax,4), %eax
	cmpl	-16(%rbp), %eax
	jge	.LBB26_65
# %bb.61:                               #   in Loop: Header=BB26_25 Depth=1
	movl	-4(%rbp), %eax
	addl	$8, %eax
	movl	%eax, -4(%rbp)
	movl	$1, -40(%rbp)
	movl	-12(%rbp), %eax
	addl	$1, %eax
	cltq
	cmpl	$0, -160(%rbp,%rax,4)
	jne	.LBB26_64
# %bb.62:                               #   in Loop: Header=BB26_25 Depth=1
	movl	-12(%rbp), %eax
	subl	$1, %eax
	cltq
	cmpl	$0, -160(%rbp,%rax,4)
	jne	.LBB26_64
# %bb.63:                               #   in Loop: Header=BB26_25 Depth=1
	movl	-4(%rbp), %eax
	addl	$12, %eax
	movl	%eax, -4(%rbp)
	movl	$1, -36(%rbp)
.LBB26_64:                              #   in Loop: Header=BB26_25 Depth=1
	jmp	.LBB26_65
.LBB26_65:                              #   in Loop: Header=BB26_25 Depth=1
	movslq	-12(%rbp), %rax
	cmpl	$0, -116(%rbp,%rax,4)
	jne	.LBB26_71
# %bb.66:                               #   in Loop: Header=BB26_25 Depth=1
	cmpl	$0, -40(%rbp)
	je	.LBB26_68
# %bb.67:                               #   in Loop: Header=BB26_25 Depth=1
	movl	-4(%rbp), %eax
	addl	$5, %eax
	movl	%eax, -4(%rbp)
.LBB26_68:                              #   in Loop: Header=BB26_25 Depth=1
	cmpl	$0, -36(%rbp)
	je	.LBB26_70
# %bb.69:                               #   in Loop: Header=BB26_25 Depth=1
	movl	-4(%rbp), %eax
	addl	$8, %eax
	movl	%eax, -4(%rbp)
.LBB26_70:                              #   in Loop: Header=BB26_25 Depth=1
	jmp	.LBB26_71
.LBB26_71:                              #   in Loop: Header=BB26_25 Depth=1
	movslq	-12(%rbp), %rax
	cmpl	$1, -160(%rbp,%rax,4)
	jle	.LBB26_73
# %bb.72:                               #   in Loop: Header=BB26_25 Depth=1
	movslq	-12(%rbp), %rax
	movl	-160(%rbp,%rax,4), %eax
	subl	$1, %eax
	shll	$3, %eax
	addl	-4(%rbp), %eax
	movl	%eax, -4(%rbp)
.LBB26_73:                              #   in Loop: Header=BB26_25 Depth=1
	movslq	-12(%rbp), %rax
	cmpl	$0, -116(%rbp,%rax,4)
	jne	.LBB26_84
# %bb.74:                               #   in Loop: Header=BB26_25 Depth=1
	movl	-16(%rbp), %eax
	movl	-12(%rbp), %ecx
	subl	$1, %ecx
	movslq	%ecx, %rcx
	cmpl	-256(%rbp,%rcx,4), %eax
	jg	.LBB26_84
# %bb.75:                               #   in Loop: Header=BB26_25 Depth=1
	movl	-16(%rbp), %eax
	movl	-12(%rbp), %ecx
	addl	$1, %ecx
	movslq	%ecx, %rcx
	cmpl	-256(%rbp,%rcx,4), %eax
	jg	.LBB26_84
# %bb.76:                               #   in Loop: Header=BB26_25 Depth=1
	movl	$7, %eax
	movslq	-8(%rbp), %rcx
	subl	Xrank(,%rcx,4), %eax
	imull	$10, %eax, %eax
	addl	$25, %eax
	movl	-4(%rbp), %ecx
	subl	%eax, %ecx
	movl	%ecx, -4(%rbp)
	movslq	-8(%rbp), %rax
	cmpl	$2, Xrank(,%rax,4)
	jne	.LBB26_78
# %bb.77:                               #   in Loop: Header=BB26_25 Depth=1
	movl	-4(%rbp), %eax
	subl	$50, %eax
	movl	%eax, -4(%rbp)
.LBB26_78:                              #   in Loop: Header=BB26_25 Depth=1
	movl	-56(%rbp), %eax
	addl	$1, %eax
	movl	%eax, -56(%rbp)
	movslq	-8(%rbp), %rax
	cmpl	$1, Xfile(,%rax,4)
	je	.LBB26_80
# %bb.79:                               #   in Loop: Header=BB26_25 Depth=1
	movslq	-8(%rbp), %rax
	cmpl	$8, Xfile(,%rax,4)
	jne	.LBB26_81
.LBB26_80:                              #   in Loop: Header=BB26_25 Depth=1
	movl	$7, %eax
	movslq	-8(%rbp), %rcx
	subl	Xrank(,%rcx,4), %eax
	shll	$1, %eax
	addl	$4, %eax
	movl	-4(%rbp), %ecx
	subl	%eax, %ecx
	movl	%ecx, -4(%rbp)
.LBB26_81:                              #   in Loop: Header=BB26_25 Depth=1
	cmpl	$0, -36(%rbp)
	jne	.LBB26_83
# %bb.82:                               #   in Loop: Header=BB26_25 Depth=1
	movl	-4(%rbp), %eax
	subl	$24, %eax
	movl	%eax, -4(%rbp)
.LBB26_83:                              #   in Loop: Header=BB26_25 Depth=1
	jmp	.LBB26_84
.LBB26_84:                              #   in Loop: Header=BB26_25 Depth=1
	movl	-12(%rbp), %eax
	subl	$1, %eax
	cltq
	cmpl	$0, -160(%rbp,%rax,4)
	jne	.LBB26_86
# %bb.85:                               #   in Loop: Header=BB26_25 Depth=1
	movl	-4(%rbp), %eax
	addl	$5, %eax
	movl	%eax, -4(%rbp)
.LBB26_86:                              #   in Loop: Header=BB26_25 Depth=1
	jmp	.LBB26_97
.LBB26_87:                              #   in Loop: Header=BB26_25 Depth=1
	movl	-24(%rbp), %eax
	addl	$1, %eax
	movl	%eax, -24(%rbp)
	movl	-8(%rbp), %edi
	callq	l_rook_mobility
	shll	$2, %eax
	addl	-4(%rbp), %eax
	movl	%eax, -4(%rbp)
	movslq	-8(%rbp), %rax
	movl	lcentral(,%rax,4), %eax
	addl	-4(%rbp), %eax
	movl	%eax, -4(%rbp)
	jmp	.LBB26_97
.LBB26_88:                              #   in Loop: Header=BB26_25 Depth=1
	movl	-20(%rbp), %eax
	addl	$1, %eax
	movl	%eax, -20(%rbp)
	movl	-8(%rbp), %edi
	callq	l_rook_mobility
	shll	$2, %eax
	movl	-4(%rbp), %ecx
	subl	%eax, %ecx
	movl	%ecx, -4(%rbp)
	movslq	-8(%rbp), %rax
	movl	lcentral(,%rax,4), %eax
	movl	-4(%rbp), %ecx
	subl	%eax, %ecx
	movl	%ecx, -4(%rbp)
	jmp	.LBB26_97
.LBB26_89:                              #   in Loop: Header=BB26_25 Depth=1
	movl	-24(%rbp), %eax
	addl	$1, %eax
	movl	%eax, -24(%rbp)
	movl	-8(%rbp), %edi
	callq	l_bishop_mobility
	shll	$2, %eax
	addl	-4(%rbp), %eax
	movl	%eax, -4(%rbp)
	movslq	-8(%rbp), %rax
	movl	lcentral(,%rax,4), %eax
	addl	-4(%rbp), %eax
	movl	%eax, -4(%rbp)
	jmp	.LBB26_97
.LBB26_90:                              #   in Loop: Header=BB26_25 Depth=1
	movl	-20(%rbp), %eax
	addl	$1, %eax
	movl	%eax, -20(%rbp)
	movl	-8(%rbp), %edi
	callq	l_bishop_mobility
	shll	$2, %eax
	movl	-4(%rbp), %ecx
	subl	%eax, %ecx
	movl	%ecx, -4(%rbp)
	movslq	-8(%rbp), %rax
	movl	lcentral(,%rax,4), %eax
	movl	-4(%rbp), %ecx
	subl	%eax, %ecx
	movl	%ecx, -4(%rbp)
	jmp	.LBB26_97
.LBB26_91:                              #   in Loop: Header=BB26_25 Depth=1
	movl	-24(%rbp), %eax
	addl	$1, %eax
	movl	%eax, -24(%rbp)
	movslq	-8(%rbp), %rax
	movl	lcentral(,%rax,4), %eax
	shll	$1, %eax
	addl	-4(%rbp), %eax
	movl	%eax, -4(%rbp)
	movl	-8(%rbp), %edi
	callq	l_knight_mobility
	shll	$2, %eax
	addl	-4(%rbp), %eax
	movl	%eax, -4(%rbp)
	jmp	.LBB26_97
.LBB26_92:                              #   in Loop: Header=BB26_25 Depth=1
	movl	-20(%rbp), %eax
	addl	$1, %eax
	movl	%eax, -20(%rbp)
	movslq	-8(%rbp), %rax
	movl	lcentral(,%rax,4), %eax
	shll	$1, %eax
	movl	-4(%rbp), %ecx
	subl	%eax, %ecx
	movl	%ecx, -4(%rbp)
	movl	-8(%rbp), %edi
	callq	l_knight_mobility
	shll	$2, %eax
	movl	-4(%rbp), %ecx
	subl	%eax, %ecx
	movl	%ecx, -4(%rbp)
	jmp	.LBB26_97
.LBB26_93:                              #   in Loop: Header=BB26_25 Depth=1
	movl	-24(%rbp), %eax
	addl	$1, %eax
	movl	%eax, -24(%rbp)
	movl	-8(%rbp), %edi
	callq	l_bishop_mobility
	shll	$1, %eax
	addl	-4(%rbp), %eax
	movl	%eax, -4(%rbp)
	movl	-8(%rbp), %edi
	callq	l_rook_mobility
	shll	$1, %eax
	addl	-4(%rbp), %eax
	movl	%eax, -4(%rbp)
	movslq	-8(%rbp), %rax
	movl	lcentral(,%rax,4), %eax
	addl	-4(%rbp), %eax
	movl	%eax, -4(%rbp)
	jmp	.LBB26_97
.LBB26_94:                              #   in Loop: Header=BB26_25 Depth=1
	movl	-20(%rbp), %eax
	addl	$1, %eax
	movl	%eax, -20(%rbp)
	movl	-8(%rbp), %edi
	callq	l_bishop_mobility
	shll	$1, %eax
	movl	-4(%rbp), %ecx
	subl	%eax, %ecx
	movl	%ecx, -4(%rbp)
	movl	-8(%rbp), %edi
	callq	l_rook_mobility
	shll	$1, %eax
	movl	-4(%rbp), %ecx
	subl	%eax, %ecx
	movl	%ecx, -4(%rbp)
	movslq	-8(%rbp), %rax
	movl	lcentral(,%rax,4), %eax
	movl	-4(%rbp), %ecx
	subl	%eax, %ecx
	movl	%ecx, -4(%rbp)
	jmp	.LBB26_97
.LBB26_95:                              #   in Loop: Header=BB26_25 Depth=1
	movslq	-8(%rbp), %rax
	movl	lcentral(,%rax,4), %eax
	shll	$1, %eax
	movl	%eax, -68(%rbp)
	movl	-8(%rbp), %edi
	callq	l_king_mobility
	addl	-4(%rbp), %eax
	movl	%eax, -4(%rbp)
	jmp	.LBB26_97
.LBB26_96:                              #   in Loop: Header=BB26_25 Depth=1
	movslq	-8(%rbp), %rax
	movl	lcentral(,%rax,4), %eax
	shll	$1, %eax
	movl	%eax, -64(%rbp)
	movl	-8(%rbp), %edi
	callq	l_king_mobility
	movl	-4(%rbp), %ecx
	subl	%eax, %ecx
	movl	%ecx, -4(%rbp)
.LBB26_97:                              #   in Loop: Header=BB26_25 Depth=1
	jmp	.LBB26_98
.LBB26_98:                              #   in Loop: Header=BB26_25 Depth=1
	movl	-28(%rbp), %eax
	addl	$1, %eax
	movl	%eax, -28(%rbp)
	jmp	.LBB26_25
.LBB26_99:
	movl	-24(%rbp), %eax
	addl	-20(%rbp), %eax
	cmpl	$10, %eax
	jle	.LBB26_101
# %bb.100:
	movl	-68(%rbp), %eax
	subl	-64(%rbp), %eax
	movl	-4(%rbp), %ecx
	subl	%eax, %ecx
	movl	%ecx, -4(%rbp)
.LBB26_101:
	movl	Material, %edi
	callq	abs
	cmpl	$900, %eax              # imm = 0x384
	jg	.LBB26_103
# %bb.102:
	movl	Material, %eax
	addl	-4(%rbp), %eax
	movl	%eax, -4(%rbp)
	jmp	.LBB26_114
.LBB26_103:
	cmpl	$0, Material
	jle	.LBB26_107
# %bb.104:
	cmpl	$1, comp_color
	jne	.LBB26_107
# %bb.105:
	cmpl	$0, -60(%rbp)
	jne	.LBB26_107
# %bb.106:
	movl	$1800, %eax             # imm = 0x708
	subl	Material, %eax
	addl	-4(%rbp), %eax
	movl	%eax, -4(%rbp)
	jmp	.LBB26_113
.LBB26_107:
	cmpl	$0, Material
	jge	.LBB26_111
# %bb.108:
	cmpl	$0, comp_color
	jne	.LBB26_111
# %bb.109:
	cmpl	$0, -56(%rbp)
	jne	.LBB26_111
# %bb.110:
	xorl	%eax, %eax
	movl	Material, %ecx
	addl	$1800, %ecx             # imm = 0x708
	subl	%ecx, %eax
	addl	-4(%rbp), %eax
	movl	%eax, -4(%rbp)
	jmp	.LBB26_112
.LBB26_111:
	movl	Material, %eax
	addl	-4(%rbp), %eax
	movl	%eax, -4(%rbp)
.LBB26_112:
	jmp	.LBB26_113
.LBB26_113:
	jmp	.LBB26_114
.LBB26_114:
	cmpl	$0, -52(%rbp)
	jne	.LBB26_116
# %bb.115:
	movl	-4(%rbp), %eax
	addl	$200, %eax
	movl	%eax, -4(%rbp)
	jmp	.LBB26_119
.LBB26_116:
	cmpl	$0, -48(%rbp)
	jne	.LBB26_118
# %bb.117:
	movl	-4(%rbp), %eax
	subl	$200, %eax
	movl	%eax, -4(%rbp)
.LBB26_118:
	jmp	.LBB26_119
.LBB26_119:
	cmpl	$0, -24(%rbp)
	jne	.LBB26_121
# %bb.120:
	movl	$1000000, -4(%rbp)      # imm = 0xF4240
	jmp	.LBB26_124
.LBB26_121:
	cmpl	$0, -20(%rbp)
	jne	.LBB26_123
# %bb.122:
	movl	$-1000000, -4(%rbp)     # imm = 0xFFF0BDC0
.LBB26_123:
	jmp	.LBB26_124
.LBB26_124:
	movl	-4(%rbp), %edi
	callq	storeECache
	cmpl	$1, white_to_move
	jne	.LBB26_126
# %bb.125:
	movl	-4(%rbp), %eax
	movl	%eax, -44(%rbp)
	jmp	.LBB26_127
.LBB26_126:
	xorl	%eax, %eax
	subl	-4(%rbp), %eax
	movl	%eax, -44(%rbp)
.LBB26_127:
	movl	-44(%rbp), %eax
	addq	$256, %rsp              # imm = 0x100
	popq	%rbp
	retq
.Lfunc_end26:
	.size	losers_eval, .Lfunc_end26-losers_eval
	.cfi_endproc
	.section	.rodata,"a",@progbits
	.p2align	3
.LJTI26_0:
	.quad	.LBB26_31
	.quad	.LBB26_59
	.quad	.LBB26_91
	.quad	.LBB26_92
	.quad	.LBB26_95
	.quad	.LBB26_96
	.quad	.LBB26_87
	.quad	.LBB26_88
	.quad	.LBB26_93
	.quad	.LBB26_94
	.quad	.LBB26_89
	.quad	.LBB26_90
                                        # -- End function
	.text
	.p2align	4, 0x90         # -- Begin function l_pawn_mobility
	.type	l_pawn_mobility,@function
l_pawn_mobility:                        # @l_pawn_mobility
	.cfi_startproc
# %bb.0:
	pushq	%rbp
	.cfi_def_cfa_offset 16
	.cfi_offset %rbp, -16
	movq	%rsp, %rbp
	.cfi_def_cfa_register %rbp
	movl	%edi, -8(%rbp)
	movl	$0, -4(%rbp)
	movslq	-8(%rbp), %rax
	cmpl	$1, board(,%rax,4)
	jne	.LBB27_4
# %bb.1:
	movl	-8(%rbp), %eax
	addl	$12, %eax
	cltq
	cmpl	$13, board(,%rax,4)
	jne	.LBB27_3
# %bb.2:
	movl	-4(%rbp), %eax
	addl	$1, %eax
	movl	%eax, -4(%rbp)
.LBB27_3:
	jmp	.LBB27_7
.LBB27_4:
	movl	-8(%rbp), %eax
	subl	$12, %eax
	cltq
	cmpl	$13, board(,%rax,4)
	jne	.LBB27_6
# %bb.5:
	movl	-4(%rbp), %eax
	addl	$1, %eax
	movl	%eax, -4(%rbp)
.LBB27_6:
	jmp	.LBB27_7
.LBB27_7:
	movl	-4(%rbp), %eax
	popq	%rbp
	retq
.Lfunc_end27:
	.size	l_pawn_mobility, .Lfunc_end27-l_pawn_mobility
	.cfi_endproc
                                        # -- End function
	.p2align	4, 0x90         # -- Begin function l_rook_mobility
	.type	l_rook_mobility,@function
l_rook_mobility:                        # @l_rook_mobility
	.cfi_startproc
# %bb.0:
	pushq	%rbp
	.cfi_def_cfa_offset 16
	.cfi_offset %rbp, -16
	movq	%rsp, %rbp
	.cfi_def_cfa_register %rbp
	movl	%edi, -12(%rbp)
	movl	$0, -8(%rbp)
	movl	-12(%rbp), %eax
	subl	$12, %eax
	movl	%eax, -4(%rbp)
.LBB28_1:                               # =>This Inner Loop Header: Depth=1
	movslq	-4(%rbp), %rax
	cmpl	$13, board(,%rax,4)
	jne	.LBB28_4
# %bb.2:                                #   in Loop: Header=BB28_1 Depth=1
	movl	-8(%rbp), %eax
	addl	$1, %eax
	movl	%eax, -8(%rbp)
# %bb.3:                                #   in Loop: Header=BB28_1 Depth=1
	movl	-4(%rbp), %eax
	subl	$12, %eax
	movl	%eax, -4(%rbp)
	jmp	.LBB28_1
.LBB28_4:
	movl	-12(%rbp), %eax
	subl	$1, %eax
	movl	%eax, -4(%rbp)
.LBB28_5:                               # =>This Inner Loop Header: Depth=1
	movslq	-4(%rbp), %rax
	cmpl	$13, board(,%rax,4)
	jne	.LBB28_8
# %bb.6:                                #   in Loop: Header=BB28_5 Depth=1
	movl	-8(%rbp), %eax
	addl	$1, %eax
	movl	%eax, -8(%rbp)
# %bb.7:                                #   in Loop: Header=BB28_5 Depth=1
	movl	-4(%rbp), %eax
	subl	$1, %eax
	movl	%eax, -4(%rbp)
	jmp	.LBB28_5
.LBB28_8:
	movl	-12(%rbp), %eax
	addl	$1, %eax
	movl	%eax, -4(%rbp)
.LBB28_9:                               # =>This Inner Loop Header: Depth=1
	movslq	-4(%rbp), %rax
	cmpl	$13, board(,%rax,4)
	jne	.LBB28_12
# %bb.10:                               #   in Loop: Header=BB28_9 Depth=1
	movl	-8(%rbp), %eax
	addl	$1, %eax
	movl	%eax, -8(%rbp)
# %bb.11:                               #   in Loop: Header=BB28_9 Depth=1
	movl	-4(%rbp), %eax
	addl	$1, %eax
	movl	%eax, -4(%rbp)
	jmp	.LBB28_9
.LBB28_12:
	movl	-12(%rbp), %eax
	addl	$12, %eax
	movl	%eax, -4(%rbp)
.LBB28_13:                              # =>This Inner Loop Header: Depth=1
	movslq	-4(%rbp), %rax
	cmpl	$13, board(,%rax,4)
	jne	.LBB28_16
# %bb.14:                               #   in Loop: Header=BB28_13 Depth=1
	movl	-8(%rbp), %eax
	addl	$1, %eax
	movl	%eax, -8(%rbp)
# %bb.15:                               #   in Loop: Header=BB28_13 Depth=1
	movl	-4(%rbp), %eax
	addl	$12, %eax
	movl	%eax, -4(%rbp)
	jmp	.LBB28_13
.LBB28_16:
	movl	-8(%rbp), %eax
	popq	%rbp
	retq
.Lfunc_end28:
	.size	l_rook_mobility, .Lfunc_end28-l_rook_mobility
	.cfi_endproc
                                        # -- End function
	.p2align	4, 0x90         # -- Begin function l_bishop_mobility
	.type	l_bishop_mobility,@function
l_bishop_mobility:                      # @l_bishop_mobility
	.cfi_startproc
# %bb.0:
	pushq	%rbp
	.cfi_def_cfa_offset 16
	.cfi_offset %rbp, -16
	movq	%rsp, %rbp
	.cfi_def_cfa_register %rbp
	movl	%edi, -12(%rbp)
	movl	$0, -8(%rbp)
	movl	-12(%rbp), %eax
	subl	$13, %eax
	movl	%eax, -4(%rbp)
.LBB29_1:                               # =>This Inner Loop Header: Depth=1
	movslq	-4(%rbp), %rax
	cmpl	$13, board(,%rax,4)
	jne	.LBB29_4
# %bb.2:                                #   in Loop: Header=BB29_1 Depth=1
	movl	-8(%rbp), %eax
	addl	$1, %eax
	movl	%eax, -8(%rbp)
# %bb.3:                                #   in Loop: Header=BB29_1 Depth=1
	movl	-4(%rbp), %eax
	subl	$13, %eax
	movl	%eax, -4(%rbp)
	jmp	.LBB29_1
.LBB29_4:
	movl	-12(%rbp), %eax
	subl	$11, %eax
	movl	%eax, -4(%rbp)
.LBB29_5:                               # =>This Inner Loop Header: Depth=1
	movslq	-4(%rbp), %rax
	cmpl	$13, board(,%rax,4)
	jne	.LBB29_8
# %bb.6:                                #   in Loop: Header=BB29_5 Depth=1
	movl	-8(%rbp), %eax
	addl	$1, %eax
	movl	%eax, -8(%rbp)
# %bb.7:                                #   in Loop: Header=BB29_5 Depth=1
	movl	-4(%rbp), %eax
	subl	$11, %eax
	movl	%eax, -4(%rbp)
	jmp	.LBB29_5
.LBB29_8:
	movl	-12(%rbp), %eax
	addl	$11, %eax
	movl	%eax, -4(%rbp)
.LBB29_9:                               # =>This Inner Loop Header: Depth=1
	movslq	-4(%rbp), %rax
	cmpl	$13, board(,%rax,4)
	jne	.LBB29_12
# %bb.10:                               #   in Loop: Header=BB29_9 Depth=1
	movl	-8(%rbp), %eax
	addl	$1, %eax
	movl	%eax, -8(%rbp)
# %bb.11:                               #   in Loop: Header=BB29_9 Depth=1
	movl	-4(%rbp), %eax
	addl	$11, %eax
	movl	%eax, -4(%rbp)
	jmp	.LBB29_9
.LBB29_12:
	movl	-12(%rbp), %eax
	addl	$13, %eax
	movl	%eax, -4(%rbp)
.LBB29_13:                              # =>This Inner Loop Header: Depth=1
	movslq	-4(%rbp), %rax
	cmpl	$13, board(,%rax,4)
	jne	.LBB29_16
# %bb.14:                               #   in Loop: Header=BB29_13 Depth=1
	movl	-8(%rbp), %eax
	addl	$1, %eax
	movl	%eax, -8(%rbp)
# %bb.15:                               #   in Loop: Header=BB29_13 Depth=1
	movl	-4(%rbp), %eax
	addl	$13, %eax
	movl	%eax, -4(%rbp)
	jmp	.LBB29_13
.LBB29_16:
	movl	-8(%rbp), %eax
	popq	%rbp
	retq
.Lfunc_end29:
	.size	l_bishop_mobility, .Lfunc_end29-l_bishop_mobility
	.cfi_endproc
                                        # -- End function
	.p2align	4, 0x90         # -- Begin function l_knight_mobility
	.type	l_knight_mobility,@function
l_knight_mobility:                      # @l_knight_mobility
	.cfi_startproc
# %bb.0:
	pushq	%rbp
	.cfi_def_cfa_offset 16
	.cfi_offset %rbp, -16
	movq	%rsp, %rbp
	.cfi_def_cfa_register %rbp
	movl	%edi, -12(%rbp)
	movl	$0, -8(%rbp)
	movl	$0, -4(%rbp)
.LBB30_1:                               # =>This Inner Loop Header: Depth=1
	cmpl	$8, -4(%rbp)
	jge	.LBB30_6
# %bb.2:                                #   in Loop: Header=BB30_1 Depth=1
	movl	-12(%rbp), %eax
	movslq	-4(%rbp), %rcx
	addl	l_knight_mobility.knight_o(,%rcx,4), %eax
	cltq
	cmpl	$13, board(,%rax,4)
	jne	.LBB30_4
# %bb.3:                                #   in Loop: Header=BB30_1 Depth=1
	movl	-8(%rbp), %eax
	addl	$1, %eax
	movl	%eax, -8(%rbp)
.LBB30_4:                               #   in Loop: Header=BB30_1 Depth=1
	jmp	.LBB30_5
.LBB30_5:                               #   in Loop: Header=BB30_1 Depth=1
	movl	-4(%rbp), %eax
	addl	$1, %eax
	movl	%eax, -4(%rbp)
	jmp	.LBB30_1
.LBB30_6:
	movl	-8(%rbp), %eax
	popq	%rbp
	retq
.Lfunc_end30:
	.size	l_knight_mobility, .Lfunc_end30-l_knight_mobility
	.cfi_endproc
                                        # -- End function
	.p2align	4, 0x90         # -- Begin function l_king_mobility
	.type	l_king_mobility,@function
l_king_mobility:                        # @l_king_mobility
	.cfi_startproc
# %bb.0:
	pushq	%rbp
	.cfi_def_cfa_offset 16
	.cfi_offset %rbp, -16
	movq	%rsp, %rbp
	.cfi_def_cfa_register %rbp
	movl	%edi, -12(%rbp)
	movl	$0, -8(%rbp)
	movl	$0, -4(%rbp)
.LBB31_1:                               # =>This Inner Loop Header: Depth=1
	cmpl	$8, -4(%rbp)
	jge	.LBB31_6
# %bb.2:                                #   in Loop: Header=BB31_1 Depth=1
	movl	-12(%rbp), %eax
	movslq	-4(%rbp), %rcx
	addl	l_king_mobility.king_o(,%rcx,4), %eax
	cltq
	cmpl	$13, board(,%rax,4)
	jne	.LBB31_4
# %bb.3:                                #   in Loop: Header=BB31_1 Depth=1
	movl	-8(%rbp), %eax
	addl	$1, %eax
	movl	%eax, -8(%rbp)
.LBB31_4:                               #   in Loop: Header=BB31_1 Depth=1
	jmp	.LBB31_5
.LBB31_5:                               #   in Loop: Header=BB31_1 Depth=1
	movl	-4(%rbp), %eax
	addl	$1, %eax
	movl	%eax, -4(%rbp)
	jmp	.LBB31_1
.LBB31_6:
	movl	-8(%rbp), %eax
	popq	%rbp
	retq
.Lfunc_end31:
	.size	l_king_mobility, .Lfunc_end31-l_king_mobility
	.cfi_endproc
                                        # -- End function
	.globl	check_legal             # -- Begin function check_legal
	.p2align	4, 0x90
	.type	check_legal,@function
check_legal:                            # @check_legal
	.cfi_startproc
# %bb.0:
	pushq	%rbp
	.cfi_def_cfa_offset 16
	.cfi_offset %rbp, -16
	movq	%rsp, %rbp
	.cfi_def_cfa_register %rbp
	subq	$48, %rsp
	movq	%rdi, -32(%rbp)
	movl	%esi, -20(%rbp)
	movl	%edx, -36(%rbp)
	movq	-32(%rbp), %rax
	movslq	-20(%rbp), %rcx
	imulq	$24, %rcx, %rcx
	addq	%rcx, %rax
	movl	16(%rax), %eax
	movl	%eax, -24(%rbp)
	movq	-32(%rbp), %rax
	movslq	-20(%rbp), %rcx
	imulq	$24, %rcx, %rcx
	addq	%rcx, %rax
	movl	(%rax), %eax
	movl	%eax, -8(%rbp)
	movq	-32(%rbp), %rax
	movslq	-20(%rbp), %rcx
	imulq	$24, %rcx, %rcx
	addq	%rcx, %rax
	movl	4(%rax), %eax
	movl	%eax, -16(%rbp)
	cmpl	$3, Variant
	jne	.LBB32_2
# %bb.1:
	movl	$1, -12(%rbp)
	jmp	.LBB32_364
.LBB32_2:
	cmpl	$0, -24(%rbp)
	je	.LBB32_36
# %bb.3:
	cmpl	$1, -24(%rbp)
	jne	.LBB32_11
# %bb.4:
	movl	$30, %edi
	xorl	%esi, %esi
	callq	is_attacked
	cmpl	$0, %eax
	je	.LBB32_6
# %bb.5:
	movl	$0, -12(%rbp)
	jmp	.LBB32_364
.LBB32_6:
	movl	$31, %edi
	xorl	%esi, %esi
	callq	is_attacked
	cmpl	$0, %eax
	je	.LBB32_8
# %bb.7:
	movl	$0, -12(%rbp)
	jmp	.LBB32_364
.LBB32_8:
	movl	$32, %edi
	xorl	%esi, %esi
	callq	is_attacked
	cmpl	$0, %eax
	je	.LBB32_10
# %bb.9:
	movl	$0, -12(%rbp)
	jmp	.LBB32_364
.LBB32_10:
	movl	$1, -12(%rbp)
	jmp	.LBB32_364
.LBB32_11:
	cmpl	$2, -24(%rbp)
	jne	.LBB32_19
# %bb.12:
	movl	$30, %edi
	xorl	%esi, %esi
	callq	is_attacked
	cmpl	$0, %eax
	je	.LBB32_14
# %bb.13:
	movl	$0, -12(%rbp)
	jmp	.LBB32_364
.LBB32_14:
	movl	$29, %edi
	xorl	%esi, %esi
	callq	is_attacked
	cmpl	$0, %eax
	je	.LBB32_16
# %bb.15:
	movl	$0, -12(%rbp)
	jmp	.LBB32_364
.LBB32_16:
	movl	$28, %edi
	xorl	%esi, %esi
	callq	is_attacked
	cmpl	$0, %eax
	je	.LBB32_18
# %bb.17:
	movl	$0, -12(%rbp)
	jmp	.LBB32_364
.LBB32_18:
	movl	$1, -12(%rbp)
	jmp	.LBB32_364
.LBB32_19:
	cmpl	$3, -24(%rbp)
	jne	.LBB32_27
# %bb.20:
	movl	$114, %edi
	movl	$1, %esi
	callq	is_attacked
	cmpl	$0, %eax
	je	.LBB32_22
# %bb.21:
	movl	$0, -12(%rbp)
	jmp	.LBB32_364
.LBB32_22:
	movl	$115, %edi
	movl	$1, %esi
	callq	is_attacked
	cmpl	$0, %eax
	je	.LBB32_24
# %bb.23:
	movl	$0, -12(%rbp)
	jmp	.LBB32_364
.LBB32_24:
	movl	$116, %edi
	movl	$1, %esi
	callq	is_attacked
	cmpl	$0, %eax
	je	.LBB32_26
# %bb.25:
	movl	$0, -12(%rbp)
	jmp	.LBB32_364
.LBB32_26:
	movl	$1, -12(%rbp)
	jmp	.LBB32_364
.LBB32_27:
	cmpl	$4, -24(%rbp)
	jne	.LBB32_35
# %bb.28:
	movl	$114, %edi
	movl	$1, %esi
	callq	is_attacked
	cmpl	$0, %eax
	je	.LBB32_30
# %bb.29:
	movl	$0, -12(%rbp)
	jmp	.LBB32_364
.LBB32_30:
	movl	$113, %edi
	movl	$1, %esi
	callq	is_attacked
	cmpl	$0, %eax
	je	.LBB32_32
# %bb.31:
	movl	$0, -12(%rbp)
	jmp	.LBB32_364
.LBB32_32:
	movl	$112, %edi
	movl	$1, %esi
	callq	is_attacked
	cmpl	$0, %eax
	je	.LBB32_34
# %bb.33:
	movl	$0, -12(%rbp)
	jmp	.LBB32_364
.LBB32_34:
	movl	$1, -12(%rbp)
	jmp	.LBB32_364
.LBB32_35:
	jmp	.LBB32_363
.LBB32_36:
	movl	white_to_move, %eax
	andl	$1, %eax
	cmpl	$0, %eax
	je	.LBB32_200
# %bb.37:
	cmpl	$0, -36(%rbp)
	jne	.LBB32_197
# %bb.38:
	movq	-32(%rbp), %rax
	movslq	-20(%rbp), %rcx
	imulq	$24, %rcx, %rcx
	addq	%rcx, %rax
	cmpl	$0, (%rax)
	jne	.LBB32_40
# %bb.39:
	movl	$1, -12(%rbp)
	jmp	.LBB32_364
.LBB32_40:
	movq	-32(%rbp), %rax
	movslq	-20(%rbp), %rcx
	imulq	$24, %rcx, %rcx
	addq	%rcx, %rax
	cmpl	$0, 12(%rax)
	je	.LBB32_42
# %bb.41:
	movl	$2, %eax
	jmp	.LBB32_43
.LBB32_42:
	movslq	-16(%rbp), %rax
	movl	board(,%rax,4), %eax
.LBB32_43:
	addl	$-2, %eax
	movl	%eax, %ecx
	subl	$10, %ecx
	ja	.LBB32_114
# %bb.44:
	movq	.LJTI32_1(,%rax,8), %rax
	jmpq	*%rax
.LBB32_45:
	movq	-32(%rbp), %rax
	movslq	-20(%rbp), %rcx
	imulq	$24, %rcx, %rcx
	addq	%rcx, %rax
	cmpl	$13, 8(%rax)
	je	.LBB32_52
# %bb.46:
	movslq	-8(%rbp), %rax
	movl	Xfile(,%rax,4), %eax
	movslq	bking_loc, %rcx
	cmpl	Xfile(,%rcx,4), %eax
	je	.LBB32_51
# %bb.47:
	movslq	-8(%rbp), %rax
	movl	Xrank(,%rax,4), %eax
	movslq	bking_loc, %rcx
	cmpl	Xrank(,%rcx,4), %eax
	je	.LBB32_51
# %bb.48:
	movslq	-8(%rbp), %rax
	movl	Xdiagl(,%rax,4), %eax
	movslq	bking_loc, %rcx
	cmpl	Xdiagl(,%rcx,4), %eax
	je	.LBB32_51
# %bb.49:
	movslq	-8(%rbp), %rax
	movl	Xdiagr(,%rax,4), %eax
	movslq	bking_loc, %rcx
	cmpl	Xdiagr(,%rcx,4), %eax
	je	.LBB32_51
# %bb.50:
	movl	$1, -12(%rbp)
	jmp	.LBB32_364
.LBB32_51:
	jmp	.LBB32_57
.LBB32_52:
	movslq	-8(%rbp), %rax
	movl	Xrank(,%rax,4), %eax
	movslq	bking_loc, %rcx
	cmpl	Xrank(,%rcx,4), %eax
	je	.LBB32_56
# %bb.53:
	movslq	-8(%rbp), %rax
	movl	Xdiagl(,%rax,4), %eax
	movslq	bking_loc, %rcx
	cmpl	Xdiagl(,%rcx,4), %eax
	je	.LBB32_56
# %bb.54:
	movslq	-8(%rbp), %rax
	movl	Xdiagr(,%rax,4), %eax
	movslq	bking_loc, %rcx
	cmpl	Xdiagr(,%rcx,4), %eax
	je	.LBB32_56
# %bb.55:
	movl	$1, -12(%rbp)
	jmp	.LBB32_364
.LBB32_56:
	jmp	.LBB32_57
.LBB32_57:
	jmp	.LBB32_115
.LBB32_58:
	movslq	-8(%rbp), %rax
	movl	Xfile(,%rax,4), %eax
	movslq	bking_loc, %rcx
	cmpl	Xfile(,%rcx,4), %eax
	je	.LBB32_63
# %bb.59:
	movslq	-8(%rbp), %rax
	movl	Xrank(,%rax,4), %eax
	movslq	bking_loc, %rcx
	cmpl	Xrank(,%rcx,4), %eax
	je	.LBB32_63
# %bb.60:
	movslq	-8(%rbp), %rax
	movl	Xdiagl(,%rax,4), %eax
	movslq	bking_loc, %rcx
	cmpl	Xdiagl(,%rcx,4), %eax
	je	.LBB32_63
# %bb.61:
	movslq	-8(%rbp), %rax
	movl	Xdiagr(,%rax,4), %eax
	movslq	bking_loc, %rcx
	cmpl	Xdiagr(,%rcx,4), %eax
	je	.LBB32_63
# %bb.62:
	movl	$1, -12(%rbp)
	jmp	.LBB32_364
.LBB32_63:
	jmp	.LBB32_115
.LBB32_64:
	movslq	-8(%rbp), %rax
	movl	Xfile(,%rax,4), %eax
	movslq	bking_loc, %rcx
	cmpl	Xfile(,%rcx,4), %eax
	je	.LBB32_74
# %bb.65:
	movslq	-8(%rbp), %rax
	movl	Xrank(,%rax,4), %eax
	movslq	bking_loc, %rcx
	cmpl	Xrank(,%rcx,4), %eax
	je	.LBB32_74
# %bb.66:
	movslq	-8(%rbp), %rax
	movl	Xdiagl(,%rax,4), %eax
	movslq	-16(%rbp), %rcx
	cmpl	Xdiagl(,%rcx,4), %eax
	jne	.LBB32_70
# %bb.67:
	movslq	-8(%rbp), %rax
	movl	Xdiagr(,%rax,4), %eax
	movslq	bking_loc, %rcx
	cmpl	Xdiagr(,%rcx,4), %eax
	je	.LBB32_69
# %bb.68:
	movl	$1, -12(%rbp)
	jmp	.LBB32_364
.LBB32_69:
	jmp	.LBB32_73
.LBB32_70:
	movslq	-8(%rbp), %rax
	movl	Xdiagl(,%rax,4), %eax
	movslq	bking_loc, %rcx
	cmpl	Xdiagl(,%rcx,4), %eax
	je	.LBB32_72
# %bb.71:
	movl	$1, -12(%rbp)
	jmp	.LBB32_364
.LBB32_72:
	jmp	.LBB32_73
.LBB32_73:
	jmp	.LBB32_74
.LBB32_74:
	jmp	.LBB32_115
.LBB32_75:
	movslq	-8(%rbp), %rax
	movl	Xdiagr(,%rax,4), %eax
	movslq	bking_loc, %rcx
	cmpl	Xdiagr(,%rcx,4), %eax
	je	.LBB32_85
# %bb.76:
	movslq	-8(%rbp), %rax
	movl	Xdiagl(,%rax,4), %eax
	movslq	bking_loc, %rcx
	cmpl	Xdiagl(,%rcx,4), %eax
	je	.LBB32_85
# %bb.77:
	movslq	-8(%rbp), %rax
	movl	Xrank(,%rax,4), %eax
	movslq	-16(%rbp), %rcx
	cmpl	Xrank(,%rcx,4), %eax
	jne	.LBB32_81
# %bb.78:
	movslq	-8(%rbp), %rax
	movl	Xfile(,%rax,4), %eax
	movslq	bking_loc, %rcx
	cmpl	Xfile(,%rcx,4), %eax
	je	.LBB32_80
# %bb.79:
	movl	$1, -12(%rbp)
	jmp	.LBB32_364
.LBB32_80:
	jmp	.LBB32_84
.LBB32_81:
	movslq	-8(%rbp), %rax
	movl	Xrank(,%rax,4), %eax
	movslq	bking_loc, %rcx
	cmpl	Xrank(,%rcx,4), %eax
	je	.LBB32_83
# %bb.82:
	movl	$1, -12(%rbp)
	jmp	.LBB32_364
.LBB32_83:
	jmp	.LBB32_84
.LBB32_84:
	jmp	.LBB32_85
.LBB32_85:
	jmp	.LBB32_115
.LBB32_86:
	movslq	-8(%rbp), %rax
	movl	Xfile(,%rax,4), %eax
	movslq	-16(%rbp), %rcx
	cmpl	Xfile(,%rcx,4), %eax
	jne	.LBB32_92
# %bb.87:
	movslq	-8(%rbp), %rax
	movl	Xdiagr(,%rax,4), %eax
	movslq	bking_loc, %rcx
	cmpl	Xdiagr(,%rcx,4), %eax
	je	.LBB32_91
# %bb.88:
	movslq	-8(%rbp), %rax
	movl	Xdiagl(,%rax,4), %eax
	movslq	bking_loc, %rcx
	cmpl	Xdiagl(,%rcx,4), %eax
	je	.LBB32_91
# %bb.89:
	movslq	-8(%rbp), %rax
	movl	Xrank(,%rax,4), %eax
	movslq	bking_loc, %rcx
	cmpl	Xrank(,%rcx,4), %eax
	je	.LBB32_91
# %bb.90:
	movl	$1, -12(%rbp)
	jmp	.LBB32_364
.LBB32_91:
	jmp	.LBB32_113
.LBB32_92:
	movslq	-8(%rbp), %rax
	movl	Xrank(,%rax,4), %eax
	movslq	-16(%rbp), %rcx
	cmpl	Xrank(,%rcx,4), %eax
	jne	.LBB32_98
# %bb.93:
	movslq	-8(%rbp), %rax
	movl	Xdiagr(,%rax,4), %eax
	movslq	bking_loc, %rcx
	cmpl	Xdiagr(,%rcx,4), %eax
	je	.LBB32_97
# %bb.94:
	movslq	-8(%rbp), %rax
	movl	Xfile(,%rax,4), %eax
	movslq	bking_loc, %rcx
	cmpl	Xfile(,%rcx,4), %eax
	je	.LBB32_97
# %bb.95:
	movslq	-8(%rbp), %rax
	movl	Xdiagl(,%rax,4), %eax
	movslq	bking_loc, %rcx
	cmpl	Xdiagl(,%rcx,4), %eax
	je	.LBB32_97
# %bb.96:
	movl	$1, -12(%rbp)
	jmp	.LBB32_364
.LBB32_97:
	jmp	.LBB32_112
.LBB32_98:
	movslq	-8(%rbp), %rax
	movl	Xdiagl(,%rax,4), %eax
	movslq	-16(%rbp), %rcx
	cmpl	Xdiagl(,%rcx,4), %eax
	jne	.LBB32_104
# %bb.99:
	movslq	-8(%rbp), %rax
	movl	Xdiagr(,%rax,4), %eax
	movslq	bking_loc, %rcx
	cmpl	Xdiagr(,%rcx,4), %eax
	je	.LBB32_103
# %bb.100:
	movslq	-8(%rbp), %rax
	movl	Xfile(,%rax,4), %eax
	movslq	bking_loc, %rcx
	cmpl	Xfile(,%rcx,4), %eax
	je	.LBB32_103
# %bb.101:
	movslq	-8(%rbp), %rax
	movl	Xrank(,%rax,4), %eax
	movslq	bking_loc, %rcx
	cmpl	Xrank(,%rcx,4), %eax
	je	.LBB32_103
# %bb.102:
	movl	$1, -12(%rbp)
	jmp	.LBB32_364
.LBB32_103:
	jmp	.LBB32_111
.LBB32_104:
	movslq	-8(%rbp), %rax
	movl	Xdiagr(,%rax,4), %eax
	movslq	-16(%rbp), %rcx
	cmpl	Xdiagr(,%rcx,4), %eax
	jne	.LBB32_110
# %bb.105:
	movslq	-8(%rbp), %rax
	movl	Xdiagl(,%rax,4), %eax
	movslq	bking_loc, %rcx
	cmpl	Xdiagl(,%rcx,4), %eax
	je	.LBB32_109
# %bb.106:
	movslq	-8(%rbp), %rax
	movl	Xfile(,%rax,4), %eax
	movslq	bking_loc, %rcx
	cmpl	Xfile(,%rcx,4), %eax
	je	.LBB32_109
# %bb.107:
	movslq	-8(%rbp), %rax
	movl	Xrank(,%rax,4), %eax
	movslq	bking_loc, %rcx
	cmpl	Xrank(,%rcx,4), %eax
	je	.LBB32_109
# %bb.108:
	movl	$1, -12(%rbp)
	jmp	.LBB32_364
.LBB32_109:
	jmp	.LBB32_110
.LBB32_110:
	jmp	.LBB32_111
.LBB32_111:
	jmp	.LBB32_112
.LBB32_112:
	jmp	.LBB32_113
.LBB32_113:
	jmp	.LBB32_115
.LBB32_114:
	jmp	.LBB32_115
.LBB32_115:
	movslq	-16(%rbp), %rax
	cmpl	$6, board(,%rax,4)
	je	.LBB32_196
# %bb.116:
	movslq	-8(%rbp), %rax
	movl	Xfile(,%rax,4), %eax
	movslq	bking_loc, %rcx
	cmpl	Xfile(,%rcx,4), %eax
	jne	.LBB32_135
# %bb.117:
	movl	bking_loc, %eax
	cmpl	-8(%rbp), %eax
	jle	.LBB32_126
# %bb.118:
	movl	bking_loc, %eax
	subl	$12, %eax
	movl	%eax, -4(%rbp)
.LBB32_119:                             # =>This Inner Loop Header: Depth=1
	movslq	-4(%rbp), %rax
	cmpl	$13, board(,%rax,4)
	jne	.LBB32_122
# %bb.120:                              #   in Loop: Header=BB32_119 Depth=1
	jmp	.LBB32_121
.LBB32_121:                             #   in Loop: Header=BB32_119 Depth=1
	movl	-4(%rbp), %eax
	subl	$12, %eax
	movl	%eax, -4(%rbp)
	jmp	.LBB32_119
.LBB32_122:
	movslq	-4(%rbp), %rax
	cmpl	$7, board(,%rax,4)
	je	.LBB32_124
# %bb.123:
	movslq	-4(%rbp), %rax
	cmpl	$9, board(,%rax,4)
	jne	.LBB32_125
.LBB32_124:
	movl	$0, -12(%rbp)
	jmp	.LBB32_364
.LBB32_125:
	jmp	.LBB32_134
.LBB32_126:
	movl	bking_loc, %eax
	addl	$12, %eax
	movl	%eax, -4(%rbp)
.LBB32_127:                             # =>This Inner Loop Header: Depth=1
	movslq	-4(%rbp), %rax
	cmpl	$13, board(,%rax,4)
	jne	.LBB32_130
# %bb.128:                              #   in Loop: Header=BB32_127 Depth=1
	jmp	.LBB32_129
.LBB32_129:                             #   in Loop: Header=BB32_127 Depth=1
	movl	-4(%rbp), %eax
	addl	$12, %eax
	movl	%eax, -4(%rbp)
	jmp	.LBB32_127
.LBB32_130:
	movslq	-4(%rbp), %rax
	cmpl	$7, board(,%rax,4)
	je	.LBB32_132
# %bb.131:
	movslq	-4(%rbp), %rax
	cmpl	$9, board(,%rax,4)
	jne	.LBB32_133
.LBB32_132:
	movl	$0, -12(%rbp)
	jmp	.LBB32_364
.LBB32_133:
	jmp	.LBB32_134
.LBB32_134:
	jmp	.LBB32_195
.LBB32_135:
	movslq	-8(%rbp), %rax
	movl	Xrank(,%rax,4), %eax
	movslq	bking_loc, %rcx
	cmpl	Xrank(,%rcx,4), %eax
	jne	.LBB32_154
# %bb.136:
	movl	bking_loc, %eax
	cmpl	-8(%rbp), %eax
	jle	.LBB32_145
# %bb.137:
	movl	bking_loc, %eax
	subl	$1, %eax
	movl	%eax, -4(%rbp)
.LBB32_138:                             # =>This Inner Loop Header: Depth=1
	movslq	-4(%rbp), %rax
	cmpl	$13, board(,%rax,4)
	jne	.LBB32_141
# %bb.139:                              #   in Loop: Header=BB32_138 Depth=1
	jmp	.LBB32_140
.LBB32_140:                             #   in Loop: Header=BB32_138 Depth=1
	movl	-4(%rbp), %eax
	subl	$1, %eax
	movl	%eax, -4(%rbp)
	jmp	.LBB32_138
.LBB32_141:
	movslq	-4(%rbp), %rax
	cmpl	$7, board(,%rax,4)
	je	.LBB32_143
# %bb.142:
	movslq	-4(%rbp), %rax
	cmpl	$9, board(,%rax,4)
	jne	.LBB32_144
.LBB32_143:
	movl	$0, -12(%rbp)
	jmp	.LBB32_364
.LBB32_144:
	jmp	.LBB32_153
.LBB32_145:
	movl	bking_loc, %eax
	addl	$1, %eax
	movl	%eax, -4(%rbp)
.LBB32_146:                             # =>This Inner Loop Header: Depth=1
	movslq	-4(%rbp), %rax
	cmpl	$13, board(,%rax,4)
	jne	.LBB32_149
# %bb.147:                              #   in Loop: Header=BB32_146 Depth=1
	jmp	.LBB32_148
.LBB32_148:                             #   in Loop: Header=BB32_146 Depth=1
	movl	-4(%rbp), %eax
	addl	$1, %eax
	movl	%eax, -4(%rbp)
	jmp	.LBB32_146
.LBB32_149:
	movslq	-4(%rbp), %rax
	cmpl	$7, board(,%rax,4)
	je	.LBB32_151
# %bb.150:
	movslq	-4(%rbp), %rax
	cmpl	$9, board(,%rax,4)
	jne	.LBB32_152
.LBB32_151:
	movl	$0, -12(%rbp)
	jmp	.LBB32_364
.LBB32_152:
	jmp	.LBB32_153
.LBB32_153:
	jmp	.LBB32_194
.LBB32_154:
	movslq	-8(%rbp), %rax
	movl	Xdiagl(,%rax,4), %eax
	movslq	bking_loc, %rcx
	cmpl	Xdiagl(,%rcx,4), %eax
	jne	.LBB32_173
# %bb.155:
	movl	bking_loc, %eax
	cmpl	-8(%rbp), %eax
	jle	.LBB32_164
# %bb.156:
	movl	bking_loc, %eax
	subl	$13, %eax
	movl	%eax, -4(%rbp)
.LBB32_157:                             # =>This Inner Loop Header: Depth=1
	movslq	-4(%rbp), %rax
	cmpl	$13, board(,%rax,4)
	jne	.LBB32_160
# %bb.158:                              #   in Loop: Header=BB32_157 Depth=1
	jmp	.LBB32_159
.LBB32_159:                             #   in Loop: Header=BB32_157 Depth=1
	movl	-4(%rbp), %eax
	subl	$13, %eax
	movl	%eax, -4(%rbp)
	jmp	.LBB32_157
.LBB32_160:
	movslq	-4(%rbp), %rax
	cmpl	$11, board(,%rax,4)
	je	.LBB32_162
# %bb.161:
	movslq	-4(%rbp), %rax
	cmpl	$9, board(,%rax,4)
	jne	.LBB32_163
.LBB32_162:
	movl	$0, -12(%rbp)
	jmp	.LBB32_364
.LBB32_163:
	jmp	.LBB32_172
.LBB32_164:
	movl	bking_loc, %eax
	addl	$13, %eax
	movl	%eax, -4(%rbp)
.LBB32_165:                             # =>This Inner Loop Header: Depth=1
	movslq	-4(%rbp), %rax
	cmpl	$13, board(,%rax,4)
	jne	.LBB32_168
# %bb.166:                              #   in Loop: Header=BB32_165 Depth=1
	jmp	.LBB32_167
.LBB32_167:                             #   in Loop: Header=BB32_165 Depth=1
	movl	-4(%rbp), %eax
	addl	$13, %eax
	movl	%eax, -4(%rbp)
	jmp	.LBB32_165
.LBB32_168:
	movslq	-4(%rbp), %rax
	cmpl	$11, board(,%rax,4)
	je	.LBB32_170
# %bb.169:
	movslq	-4(%rbp), %rax
	cmpl	$9, board(,%rax,4)
	jne	.LBB32_171
.LBB32_170:
	movl	$0, -12(%rbp)
	jmp	.LBB32_364
.LBB32_171:
	jmp	.LBB32_172
.LBB32_172:
	jmp	.LBB32_193
.LBB32_173:
	movslq	-8(%rbp), %rax
	movl	Xdiagr(,%rax,4), %eax
	movslq	bking_loc, %rcx
	cmpl	Xdiagr(,%rcx,4), %eax
	jne	.LBB32_192
# %bb.174:
	movl	bking_loc, %eax
	cmpl	-8(%rbp), %eax
	jle	.LBB32_183
# %bb.175:
	movl	bking_loc, %eax
	subl	$11, %eax
	movl	%eax, -4(%rbp)
.LBB32_176:                             # =>This Inner Loop Header: Depth=1
	movslq	-4(%rbp), %rax
	cmpl	$13, board(,%rax,4)
	jne	.LBB32_179
# %bb.177:                              #   in Loop: Header=BB32_176 Depth=1
	jmp	.LBB32_178
.LBB32_178:                             #   in Loop: Header=BB32_176 Depth=1
	movl	-4(%rbp), %eax
	subl	$11, %eax
	movl	%eax, -4(%rbp)
	jmp	.LBB32_176
.LBB32_179:
	movslq	-4(%rbp), %rax
	cmpl	$11, board(,%rax,4)
	je	.LBB32_181
# %bb.180:
	movslq	-4(%rbp), %rax
	cmpl	$9, board(,%rax,4)
	jne	.LBB32_182
.LBB32_181:
	movl	$0, -12(%rbp)
	jmp	.LBB32_364
.LBB32_182:
	jmp	.LBB32_191
.LBB32_183:
	movl	bking_loc, %eax
	addl	$11, %eax
	movl	%eax, -4(%rbp)
.LBB32_184:                             # =>This Inner Loop Header: Depth=1
	movslq	-4(%rbp), %rax
	cmpl	$13, board(,%rax,4)
	jne	.LBB32_187
# %bb.185:                              #   in Loop: Header=BB32_184 Depth=1
	jmp	.LBB32_186
.LBB32_186:                             #   in Loop: Header=BB32_184 Depth=1
	movl	-4(%rbp), %eax
	addl	$11, %eax
	movl	%eax, -4(%rbp)
	jmp	.LBB32_184
.LBB32_187:
	movslq	-4(%rbp), %rax
	cmpl	$11, board(,%rax,4)
	je	.LBB32_189
# %bb.188:
	movslq	-4(%rbp), %rax
	cmpl	$9, board(,%rax,4)
	jne	.LBB32_190
.LBB32_189:
	movl	$0, -12(%rbp)
	jmp	.LBB32_364
.LBB32_190:
	jmp	.LBB32_191
.LBB32_191:
	jmp	.LBB32_192
.LBB32_192:
	jmp	.LBB32_193
.LBB32_193:
	jmp	.LBB32_194
.LBB32_194:
	jmp	.LBB32_195
.LBB32_195:
	movl	$1, -12(%rbp)
	jmp	.LBB32_364
.LBB32_196:
	jmp	.LBB32_197
.LBB32_197:
	movl	bking_loc, %edi
	movl	$1, %esi
	callq	is_attacked
	cmpl	$0, %eax
	je	.LBB32_199
# %bb.198:
	movl	$0, -12(%rbp)
	jmp	.LBB32_364
.LBB32_199:
	movl	$1, -12(%rbp)
	jmp	.LBB32_364
.LBB32_200:
	cmpl	$0, -36(%rbp)
	jne	.LBB32_360
# %bb.201:
	movq	-32(%rbp), %rax
	movslq	-20(%rbp), %rcx
	imulq	$24, %rcx, %rcx
	addq	%rcx, %rax
	cmpl	$0, (%rax)
	jne	.LBB32_203
# %bb.202:
	movl	$1, -12(%rbp)
	jmp	.LBB32_364
.LBB32_203:
	movq	-32(%rbp), %rax
	movslq	-20(%rbp), %rcx
	imulq	$24, %rcx, %rcx
	addq	%rcx, %rax
	cmpl	$0, 12(%rax)
	je	.LBB32_205
# %bb.204:
	movl	$1, %eax
	jmp	.LBB32_206
.LBB32_205:
	movslq	-16(%rbp), %rax
	movl	board(,%rax,4), %eax
.LBB32_206:
	addl	$-1, %eax
	movl	%eax, %ecx
	subl	$10, %ecx
	ja	.LBB32_277
# %bb.207:
	movq	.LJTI32_0(,%rax,8), %rax
	jmpq	*%rax
.LBB32_208:
	movq	-32(%rbp), %rax
	movslq	-20(%rbp), %rcx
	imulq	$24, %rcx, %rcx
	addq	%rcx, %rax
	cmpl	$13, 8(%rax)
	je	.LBB32_215
# %bb.209:
	movslq	-8(%rbp), %rax
	movl	Xfile(,%rax,4), %eax
	movslq	wking_loc, %rcx
	cmpl	Xfile(,%rcx,4), %eax
	je	.LBB32_214
# %bb.210:
	movslq	-8(%rbp), %rax
	movl	Xrank(,%rax,4), %eax
	movslq	wking_loc, %rcx
	cmpl	Xrank(,%rcx,4), %eax
	je	.LBB32_214
# %bb.211:
	movslq	-8(%rbp), %rax
	movl	Xdiagl(,%rax,4), %eax
	movslq	wking_loc, %rcx
	cmpl	Xdiagl(,%rcx,4), %eax
	je	.LBB32_214
# %bb.212:
	movslq	-8(%rbp), %rax
	movl	Xdiagr(,%rax,4), %eax
	movslq	wking_loc, %rcx
	cmpl	Xdiagr(,%rcx,4), %eax
	je	.LBB32_214
# %bb.213:
	movl	$1, -12(%rbp)
	jmp	.LBB32_364
.LBB32_214:
	jmp	.LBB32_220
.LBB32_215:
	movslq	-8(%rbp), %rax
	movl	Xrank(,%rax,4), %eax
	movslq	wking_loc, %rcx
	cmpl	Xrank(,%rcx,4), %eax
	je	.LBB32_219
# %bb.216:
	movslq	-8(%rbp), %rax
	movl	Xdiagl(,%rax,4), %eax
	movslq	wking_loc, %rcx
	cmpl	Xdiagl(,%rcx,4), %eax
	je	.LBB32_219
# %bb.217:
	movslq	-8(%rbp), %rax
	movl	Xdiagr(,%rax,4), %eax
	movslq	wking_loc, %rcx
	cmpl	Xdiagr(,%rcx,4), %eax
	je	.LBB32_219
# %bb.218:
	movl	$1, -12(%rbp)
	jmp	.LBB32_364
.LBB32_219:
	jmp	.LBB32_220
.LBB32_220:
	jmp	.LBB32_278
.LBB32_221:
	movslq	-8(%rbp), %rax
	movl	Xfile(,%rax,4), %eax
	movslq	wking_loc, %rcx
	cmpl	Xfile(,%rcx,4), %eax
	je	.LBB32_226
# %bb.222:
	movslq	-8(%rbp), %rax
	movl	Xrank(,%rax,4), %eax
	movslq	wking_loc, %rcx
	cmpl	Xrank(,%rcx,4), %eax
	je	.LBB32_226
# %bb.223:
	movslq	-8(%rbp), %rax
	movl	Xdiagl(,%rax,4), %eax
	movslq	wking_loc, %rcx
	cmpl	Xdiagl(,%rcx,4), %eax
	je	.LBB32_226
# %bb.224:
	movslq	-8(%rbp), %rax
	movl	Xdiagr(,%rax,4), %eax
	movslq	wking_loc, %rcx
	cmpl	Xdiagr(,%rcx,4), %eax
	je	.LBB32_226
# %bb.225:
	movl	$1, -12(%rbp)
	jmp	.LBB32_364
.LBB32_226:
	jmp	.LBB32_278
.LBB32_227:
	movslq	-8(%rbp), %rax
	movl	Xfile(,%rax,4), %eax
	movslq	wking_loc, %rcx
	cmpl	Xfile(,%rcx,4), %eax
	je	.LBB32_237
# %bb.228:
	movslq	-8(%rbp), %rax
	movl	Xrank(,%rax,4), %eax
	movslq	wking_loc, %rcx
	cmpl	Xrank(,%rcx,4), %eax
	je	.LBB32_237
# %bb.229:
	movslq	-8(%rbp), %rax
	movl	Xdiagl(,%rax,4), %eax
	movslq	-16(%rbp), %rcx
	cmpl	Xdiagl(,%rcx,4), %eax
	jne	.LBB32_233
# %bb.230:
	movslq	-8(%rbp), %rax
	movl	Xdiagr(,%rax,4), %eax
	movslq	wking_loc, %rcx
	cmpl	Xdiagr(,%rcx,4), %eax
	je	.LBB32_232
# %bb.231:
	movl	$1, -12(%rbp)
	jmp	.LBB32_364
.LBB32_232:
	jmp	.LBB32_236
.LBB32_233:
	movslq	-8(%rbp), %rax
	movl	Xdiagl(,%rax,4), %eax
	movslq	wking_loc, %rcx
	cmpl	Xdiagl(,%rcx,4), %eax
	je	.LBB32_235
# %bb.234:
	movl	$1, -12(%rbp)
	jmp	.LBB32_364
.LBB32_235:
	jmp	.LBB32_236
.LBB32_236:
	jmp	.LBB32_237
.LBB32_237:
	jmp	.LBB32_278
.LBB32_238:
	movslq	-8(%rbp), %rax
	movl	Xdiagr(,%rax,4), %eax
	movslq	wking_loc, %rcx
	cmpl	Xdiagr(,%rcx,4), %eax
	je	.LBB32_248
# %bb.239:
	movslq	-8(%rbp), %rax
	movl	Xdiagl(,%rax,4), %eax
	movslq	wking_loc, %rcx
	cmpl	Xdiagl(,%rcx,4), %eax
	je	.LBB32_248
# %bb.240:
	movslq	-8(%rbp), %rax
	movl	Xrank(,%rax,4), %eax
	movslq	-16(%rbp), %rcx
	cmpl	Xrank(,%rcx,4), %eax
	jne	.LBB32_244
# %bb.241:
	movslq	-8(%rbp), %rax
	movl	Xfile(,%rax,4), %eax
	movslq	wking_loc, %rcx
	cmpl	Xfile(,%rcx,4), %eax
	je	.LBB32_243
# %bb.242:
	movl	$1, -12(%rbp)
	jmp	.LBB32_364
.LBB32_243:
	jmp	.LBB32_247
.LBB32_244:
	movslq	-8(%rbp), %rax
	movl	Xrank(,%rax,4), %eax
	movslq	wking_loc, %rcx
	cmpl	Xrank(,%rcx,4), %eax
	je	.LBB32_246
# %bb.245:
	movl	$1, -12(%rbp)
	jmp	.LBB32_364
.LBB32_246:
	jmp	.LBB32_247
.LBB32_247:
	jmp	.LBB32_248
.LBB32_248:
	jmp	.LBB32_278
.LBB32_249:
	movslq	-8(%rbp), %rax
	movl	Xfile(,%rax,4), %eax
	movq	-32(%rbp), %rcx
	movslq	-20(%rbp), %rdx
	imulq	$24, %rdx, %rdx
	addq	%rdx, %rcx
	movslq	4(%rcx), %rcx
	cmpl	Xfile(,%rcx,4), %eax
	jne	.LBB32_255
# %bb.250:
	movslq	-8(%rbp), %rax
	movl	Xdiagr(,%rax,4), %eax
	movslq	wking_loc, %rcx
	cmpl	Xdiagr(,%rcx,4), %eax
	je	.LBB32_254
# %bb.251:
	movslq	-8(%rbp), %rax
	movl	Xdiagl(,%rax,4), %eax
	movslq	wking_loc, %rcx
	cmpl	Xdiagl(,%rcx,4), %eax
	je	.LBB32_254
# %bb.252:
	movslq	-8(%rbp), %rax
	movl	Xrank(,%rax,4), %eax
	movslq	wking_loc, %rcx
	cmpl	Xrank(,%rcx,4), %eax
	je	.LBB32_254
# %bb.253:
	movl	$1, -12(%rbp)
	jmp	.LBB32_364
.LBB32_254:
	jmp	.LBB32_276
.LBB32_255:
	movslq	-8(%rbp), %rax
	movl	Xrank(,%rax,4), %eax
	movslq	-16(%rbp), %rcx
	cmpl	Xrank(,%rcx,4), %eax
	jne	.LBB32_261
# %bb.256:
	movslq	-8(%rbp), %rax
	movl	Xdiagr(,%rax,4), %eax
	movslq	wking_loc, %rcx
	cmpl	Xdiagr(,%rcx,4), %eax
	je	.LBB32_260
# %bb.257:
	movslq	-8(%rbp), %rax
	movl	Xfile(,%rax,4), %eax
	movslq	wking_loc, %rcx
	cmpl	Xfile(,%rcx,4), %eax
	je	.LBB32_260
# %bb.258:
	movslq	-8(%rbp), %rax
	movl	Xdiagl(,%rax,4), %eax
	movslq	wking_loc, %rcx
	cmpl	Xdiagl(,%rcx,4), %eax
	je	.LBB32_260
# %bb.259:
	movl	$1, -12(%rbp)
	jmp	.LBB32_364
.LBB32_260:
	jmp	.LBB32_275
.LBB32_261:
	movslq	-8(%rbp), %rax
	movl	Xdiagl(,%rax,4), %eax
	movslq	-16(%rbp), %rcx
	cmpl	Xdiagl(,%rcx,4), %eax
	jne	.LBB32_267
# %bb.262:
	movslq	-8(%rbp), %rax
	movl	Xdiagr(,%rax,4), %eax
	movslq	wking_loc, %rcx
	cmpl	Xdiagr(,%rcx,4), %eax
	je	.LBB32_266
# %bb.263:
	movslq	-8(%rbp), %rax
	movl	Xfile(,%rax,4), %eax
	movslq	wking_loc, %rcx
	cmpl	Xfile(,%rcx,4), %eax
	je	.LBB32_266
# %bb.264:
	movslq	-8(%rbp), %rax
	movl	Xrank(,%rax,4), %eax
	movslq	wking_loc, %rcx
	cmpl	Xrank(,%rcx,4), %eax
	je	.LBB32_266
# %bb.265:
	movl	$1, -12(%rbp)
	jmp	.LBB32_364
.LBB32_266:
	jmp	.LBB32_274
.LBB32_267:
	movslq	-8(%rbp), %rax
	movl	Xdiagr(,%rax,4), %eax
	movslq	-16(%rbp), %rcx
	cmpl	Xdiagr(,%rcx,4), %eax
	jne	.LBB32_273
# %bb.268:
	movslq	-8(%rbp), %rax
	movl	Xdiagl(,%rax,4), %eax
	movslq	wking_loc, %rcx
	cmpl	Xdiagl(,%rcx,4), %eax
	je	.LBB32_272
# %bb.269:
	movslq	-8(%rbp), %rax
	movl	Xfile(,%rax,4), %eax
	movslq	wking_loc, %rcx
	cmpl	Xfile(,%rcx,4), %eax
	je	.LBB32_272
# %bb.270:
	movslq	-8(%rbp), %rax
	movl	Xrank(,%rax,4), %eax
	movslq	wking_loc, %rcx
	cmpl	Xrank(,%rcx,4), %eax
	je	.LBB32_272
# %bb.271:
	movl	$1, -12(%rbp)
	jmp	.LBB32_364
.LBB32_272:
	jmp	.LBB32_273
.LBB32_273:
	jmp	.LBB32_274
.LBB32_274:
	jmp	.LBB32_275
.LBB32_275:
	jmp	.LBB32_276
.LBB32_276:
	jmp	.LBB32_278
.LBB32_277:
	jmp	.LBB32_278
.LBB32_278:
	movslq	-16(%rbp), %rax
	cmpl	$5, board(,%rax,4)
	je	.LBB32_359
# %bb.279:
	movslq	-8(%rbp), %rax
	movl	Xfile(,%rax,4), %eax
	movslq	wking_loc, %rcx
	cmpl	Xfile(,%rcx,4), %eax
	jne	.LBB32_298
# %bb.280:
	movl	wking_loc, %eax
	cmpl	-8(%rbp), %eax
	jle	.LBB32_289
# %bb.281:
	movl	wking_loc, %eax
	subl	$12, %eax
	movl	%eax, -4(%rbp)
.LBB32_282:                             # =>This Inner Loop Header: Depth=1
	movslq	-4(%rbp), %rax
	cmpl	$13, board(,%rax,4)
	jne	.LBB32_285
# %bb.283:                              #   in Loop: Header=BB32_282 Depth=1
	jmp	.LBB32_284
.LBB32_284:                             #   in Loop: Header=BB32_282 Depth=1
	movl	-4(%rbp), %eax
	subl	$12, %eax
	movl	%eax, -4(%rbp)
	jmp	.LBB32_282
.LBB32_285:
	movslq	-4(%rbp), %rax
	cmpl	$8, board(,%rax,4)
	je	.LBB32_287
# %bb.286:
	movslq	-4(%rbp), %rax
	cmpl	$10, board(,%rax,4)
	jne	.LBB32_288
.LBB32_287:
	movl	$0, -12(%rbp)
	jmp	.LBB32_364
.LBB32_288:
	jmp	.LBB32_297
.LBB32_289:
	movl	wking_loc, %eax
	addl	$12, %eax
	movl	%eax, -4(%rbp)
.LBB32_290:                             # =>This Inner Loop Header: Depth=1
	movslq	-4(%rbp), %rax
	cmpl	$13, board(,%rax,4)
	jne	.LBB32_293
# %bb.291:                              #   in Loop: Header=BB32_290 Depth=1
	jmp	.LBB32_292
.LBB32_292:                             #   in Loop: Header=BB32_290 Depth=1
	movl	-4(%rbp), %eax
	addl	$12, %eax
	movl	%eax, -4(%rbp)
	jmp	.LBB32_290
.LBB32_293:
	movslq	-4(%rbp), %rax
	cmpl	$8, board(,%rax,4)
	je	.LBB32_295
# %bb.294:
	movslq	-4(%rbp), %rax
	cmpl	$10, board(,%rax,4)
	jne	.LBB32_296
.LBB32_295:
	movl	$0, -12(%rbp)
	jmp	.LBB32_364
.LBB32_296:
	jmp	.LBB32_297
.LBB32_297:
	jmp	.LBB32_358
.LBB32_298:
	movslq	-8(%rbp), %rax
	movl	Xrank(,%rax,4), %eax
	movslq	wking_loc, %rcx
	cmpl	Xrank(,%rcx,4), %eax
	jne	.LBB32_317
# %bb.299:
	movl	wking_loc, %eax
	cmpl	-8(%rbp), %eax
	jle	.LBB32_308
# %bb.300:
	movl	wking_loc, %eax
	subl	$1, %eax
	movl	%eax, -4(%rbp)
.LBB32_301:                             # =>This Inner Loop Header: Depth=1
	movslq	-4(%rbp), %rax
	cmpl	$13, board(,%rax,4)
	jne	.LBB32_304
# %bb.302:                              #   in Loop: Header=BB32_301 Depth=1
	jmp	.LBB32_303
.LBB32_303:                             #   in Loop: Header=BB32_301 Depth=1
	movl	-4(%rbp), %eax
	subl	$1, %eax
	movl	%eax, -4(%rbp)
	jmp	.LBB32_301
.LBB32_304:
	movslq	-4(%rbp), %rax
	cmpl	$8, board(,%rax,4)
	je	.LBB32_306
# %bb.305:
	movslq	-4(%rbp), %rax
	cmpl	$10, board(,%rax,4)
	jne	.LBB32_307
.LBB32_306:
	movl	$0, -12(%rbp)
	jmp	.LBB32_364
.LBB32_307:
	jmp	.LBB32_316
.LBB32_308:
	movl	wking_loc, %eax
	addl	$1, %eax
	movl	%eax, -4(%rbp)
.LBB32_309:                             # =>This Inner Loop Header: Depth=1
	movslq	-4(%rbp), %rax
	cmpl	$13, board(,%rax,4)
	jne	.LBB32_312
# %bb.310:                              #   in Loop: Header=BB32_309 Depth=1
	jmp	.LBB32_311
.LBB32_311:                             #   in Loop: Header=BB32_309 Depth=1
	movl	-4(%rbp), %eax
	addl	$1, %eax
	movl	%eax, -4(%rbp)
	jmp	.LBB32_309
.LBB32_312:
	movslq	-4(%rbp), %rax
	cmpl	$8, board(,%rax,4)
	je	.LBB32_314
# %bb.313:
	movslq	-4(%rbp), %rax
	cmpl	$10, board(,%rax,4)
	jne	.LBB32_315
.LBB32_314:
	movl	$0, -12(%rbp)
	jmp	.LBB32_364
.LBB32_315:
	jmp	.LBB32_316
.LBB32_316:
	jmp	.LBB32_357
.LBB32_317:
	movslq	-8(%rbp), %rax
	movl	Xdiagl(,%rax,4), %eax
	movslq	wking_loc, %rcx
	cmpl	Xdiagl(,%rcx,4), %eax
	jne	.LBB32_336
# %bb.318:
	movl	wking_loc, %eax
	cmpl	-8(%rbp), %eax
	jle	.LBB32_327
# %bb.319:
	movl	wking_loc, %eax
	subl	$13, %eax
	movl	%eax, -4(%rbp)
.LBB32_320:                             # =>This Inner Loop Header: Depth=1
	movslq	-4(%rbp), %rax
	cmpl	$13, board(,%rax,4)
	jne	.LBB32_323
# %bb.321:                              #   in Loop: Header=BB32_320 Depth=1
	jmp	.LBB32_322
.LBB32_322:                             #   in Loop: Header=BB32_320 Depth=1
	movl	-4(%rbp), %eax
	subl	$13, %eax
	movl	%eax, -4(%rbp)
	jmp	.LBB32_320
.LBB32_323:
	movslq	-4(%rbp), %rax
	cmpl	$12, board(,%rax,4)
	je	.LBB32_325
# %bb.324:
	movslq	-4(%rbp), %rax
	cmpl	$10, board(,%rax,4)
	jne	.LBB32_326
.LBB32_325:
	movl	$0, -12(%rbp)
	jmp	.LBB32_364
.LBB32_326:
	jmp	.LBB32_335
.LBB32_327:
	movl	wking_loc, %eax
	addl	$13, %eax
	movl	%eax, -4(%rbp)
.LBB32_328:                             # =>This Inner Loop Header: Depth=1
	movslq	-4(%rbp), %rax
	cmpl	$13, board(,%rax,4)
	jne	.LBB32_331
# %bb.329:                              #   in Loop: Header=BB32_328 Depth=1
	jmp	.LBB32_330
.LBB32_330:                             #   in Loop: Header=BB32_328 Depth=1
	movl	-4(%rbp), %eax
	addl	$13, %eax
	movl	%eax, -4(%rbp)
	jmp	.LBB32_328
.LBB32_331:
	movslq	-4(%rbp), %rax
	cmpl	$12, board(,%rax,4)
	je	.LBB32_333
# %bb.332:
	movslq	-4(%rbp), %rax
	cmpl	$10, board(,%rax,4)
	jne	.LBB32_334
.LBB32_333:
	movl	$0, -12(%rbp)
	jmp	.LBB32_364
.LBB32_334:
	jmp	.LBB32_335
.LBB32_335:
	jmp	.LBB32_356
.LBB32_336:
	movslq	-8(%rbp), %rax
	movl	Xdiagr(,%rax,4), %eax
	movslq	wking_loc, %rcx
	cmpl	Xdiagr(,%rcx,4), %eax
	jne	.LBB32_355
# %bb.337:
	movl	wking_loc, %eax
	cmpl	-8(%rbp), %eax
	jle	.LBB32_346
# %bb.338:
	movl	wking_loc, %eax
	subl	$11, %eax
	movl	%eax, -4(%rbp)
.LBB32_339:                             # =>This Inner Loop Header: Depth=1
	movslq	-4(%rbp), %rax
	cmpl	$13, board(,%rax,4)
	jne	.LBB32_342
# %bb.340:                              #   in Loop: Header=BB32_339 Depth=1
	jmp	.LBB32_341
.LBB32_341:                             #   in Loop: Header=BB32_339 Depth=1
	movl	-4(%rbp), %eax
	subl	$11, %eax
	movl	%eax, -4(%rbp)
	jmp	.LBB32_339
.LBB32_342:
	movslq	-4(%rbp), %rax
	cmpl	$12, board(,%rax,4)
	je	.LBB32_344
# %bb.343:
	movslq	-4(%rbp), %rax
	cmpl	$10, board(,%rax,4)
	jne	.LBB32_345
.LBB32_344:
	movl	$0, -12(%rbp)
	jmp	.LBB32_364
.LBB32_345:
	jmp	.LBB32_354
.LBB32_346:
	movl	wking_loc, %eax
	addl	$11, %eax
	movl	%eax, -4(%rbp)
.LBB32_347:                             # =>This Inner Loop Header: Depth=1
	movslq	-4(%rbp), %rax
	cmpl	$13, board(,%rax,4)
	jne	.LBB32_350
# %bb.348:                              #   in Loop: Header=BB32_347 Depth=1
	jmp	.LBB32_349
.LBB32_349:                             #   in Loop: Header=BB32_347 Depth=1
	movl	-4(%rbp), %eax
	addl	$11, %eax
	movl	%eax, -4(%rbp)
	jmp	.LBB32_347
.LBB32_350:
	movslq	-4(%rbp), %rax
	cmpl	$12, board(,%rax,4)
	je	.LBB32_352
# %bb.351:
	movslq	-4(%rbp), %rax
	cmpl	$10, board(,%rax,4)
	jne	.LBB32_353
.LBB32_352:
	movl	$0, -12(%rbp)
	jmp	.LBB32_364
.LBB32_353:
	jmp	.LBB32_354
.LBB32_354:
	jmp	.LBB32_355
.LBB32_355:
	jmp	.LBB32_356
.LBB32_356:
	jmp	.LBB32_357
.LBB32_357:
	jmp	.LBB32_358
.LBB32_358:
	movl	$1, -12(%rbp)
	jmp	.LBB32_364
.LBB32_359:
	jmp	.LBB32_360
.LBB32_360:
	movl	wking_loc, %edi
	xorl	%esi, %esi
	callq	is_attacked
	cmpl	$0, %eax
	je	.LBB32_362
# %bb.361:
	movl	$0, -12(%rbp)
	jmp	.LBB32_364
.LBB32_362:
	movl	$1, -12(%rbp)
	jmp	.LBB32_364
.LBB32_363:
	movl	$0, -12(%rbp)
.LBB32_364:
	movl	-12(%rbp), %eax
	addq	$48, %rsp
	popq	%rbp
	retq
.Lfunc_end32:
	.size	check_legal, .Lfunc_end32-check_legal
	.cfi_endproc
	.section	.rodata,"a",@progbits
	.p2align	3
.LJTI32_0:
	.quad	.LBB32_208
	.quad	.LBB32_277
	.quad	.LBB32_221
	.quad	.LBB32_277
	.quad	.LBB32_277
	.quad	.LBB32_277
	.quad	.LBB32_238
	.quad	.LBB32_277
	.quad	.LBB32_249
	.quad	.LBB32_277
	.quad	.LBB32_227
.LJTI32_1:
	.quad	.LBB32_45
	.quad	.LBB32_114
	.quad	.LBB32_58
	.quad	.LBB32_114
	.quad	.LBB32_114
	.quad	.LBB32_114
	.quad	.LBB32_75
	.quad	.LBB32_114
	.quad	.LBB32_86
	.quad	.LBB32_114
	.quad	.LBB32_64
                                        # -- End function
	.text
	.globl	gen                     # -- Begin function gen
	.p2align	4, 0x90
	.type	gen,@function
gen:                                    # @gen
	.cfi_startproc
# %bb.0:
	pushq	%rbp
	.cfi_def_cfa_offset 16
	.cfi_offset %rbp, -16
	movq	%rsp, %rbp
	.cfi_def_cfa_register %rbp
	subq	$32, %rsp
	movq	%rdi, -24(%rbp)
	movl	$0, kingcap
	movl	$0, numb_moves
	movq	-24(%rbp), %rax
	movq	%rax, genfor
	cmpl	$3, Variant
	jne	.LBB33_2
# %bb.1:
	movl	$0, captures
	movl	$0, fcaptures
.LBB33_2:
	jmp	.LBB33_3
.LBB33_3:                               # =>This Loop Header: Depth=1
                                        #     Child Loop BB33_5 Depth 2
                                        #     Child Loop BB33_119 Depth 2
                                        #     Child Loop BB33_243 Depth 2
                                        #     Child Loop BB33_271 Depth 2
	cmpl	$0, white_to_move
	je	.LBB33_118
# %bb.4:                                #   in Loop: Header=BB33_3 Depth=1
	movl	$1, -16(%rbp)
	movl	$1, -12(%rbp)
.LBB33_5:                               #   Parent Loop BB33_3 Depth=1
                                        # =>  This Inner Loop Header: Depth=2
	xorl	%eax, %eax
	movl	-16(%rbp), %ecx
	cmpl	piece_count, %ecx
	jg	.LBB33_12
# %bb.6:                                #   in Loop: Header=BB33_5 Depth=2
	cmpl	$3, Variant
	je	.LBB33_8
# %bb.7:                                #   in Loop: Header=BB33_5 Depth=2
	movb	$1, %al
	cmpl	$0, kingcap
	je	.LBB33_11
.LBB33_8:                               #   in Loop: Header=BB33_5 Depth=2
	xorl	%eax, %eax
	cmpl	$3, Variant
	jne	.LBB33_10
# %bb.9:                                #   in Loop: Header=BB33_5 Depth=2
	movl	fcaptures, %eax
	cmpl	captures, %eax
	sete	%al
.LBB33_10:                              #   in Loop: Header=BB33_5 Depth=2
.LBB33_11:                              #   in Loop: Header=BB33_5 Depth=2
.LBB33_12:                              #   in Loop: Header=BB33_5 Depth=2
	testb	$1, %al
	jne	.LBB33_13
	jmp	.LBB33_117
.LBB33_13:                              #   in Loop: Header=BB33_5 Depth=2
	movslq	-12(%rbp), %rax
	movl	pieces(,%rax,4), %eax
	movl	%eax, -8(%rbp)
	cmpl	$0, -8(%rbp)
	jne	.LBB33_15
# %bb.14:                               #   in Loop: Header=BB33_5 Depth=2
	jmp	.LBB33_116
.LBB33_15:                              #   in Loop: Header=BB33_5 Depth=2
	movl	-16(%rbp), %eax
	addl	$1, %eax
	movl	%eax, -16(%rbp)
# %bb.16:                               #   in Loop: Header=BB33_5 Depth=2
	movl	-8(%rbp), %eax
	movl	%eax, -4(%rbp)
	movl	-8(%rbp), %eax
	movl	%eax, gfrom(%rip)
	movslq	-4(%rbp), %rax
	movl	board(,%rax,4), %eax
	addl	$-1, %eax
	movl	%eax, %ecx
	subl	$10, %ecx
	ja	.LBB33_114
# %bb.17:                               #   in Loop: Header=BB33_5 Depth=2
	movq	.LJTI33_1(,%rax,8), %rax
	jmpq	*%rax
.LBB33_18:                              #   in Loop: Header=BB33_5 Depth=2
	movl	-4(%rbp), %eax
	addl	$12, %eax
	cltq
	cmpl	$13, board(,%rax,4)
	jne	.LBB33_30
# %bb.19:                               #   in Loop: Header=BB33_5 Depth=2
	movslq	-4(%rbp), %rax
	cmpl	$7, Xrank(,%rax,4)
	jne	.LBB33_23
# %bb.20:                               #   in Loop: Header=BB33_5 Depth=2
	cmpl	$3, Variant
	je	.LBB33_23
# %bb.21:                               #   in Loop: Header=BB33_5 Depth=2
	cmpl	$4, Variant
	je	.LBB33_23
# %bb.22:                               #   in Loop: Header=BB33_5 Depth=2
	movl	-4(%rbp), %edi
	addl	$12, %edi
	xorl	%esi, %esi
	callq	push_pawn
	jmp	.LBB33_29
.LBB33_23:                              #   in Loop: Header=BB33_5 Depth=2
	cmpl	$0, captures
	jne	.LBB33_28
# %bb.24:                               #   in Loop: Header=BB33_5 Depth=2
	movl	-4(%rbp), %edi
	addl	$12, %edi
	xorl	%esi, %esi
	callq	push_pawn
	movslq	-4(%rbp), %rax
	cmpl	$2, Xrank(,%rax,4)
	jne	.LBB33_27
# %bb.25:                               #   in Loop: Header=BB33_5 Depth=2
	movl	-4(%rbp), %eax
	addl	$24, %eax
	cltq
	cmpl	$13, board(,%rax,4)
	jne	.LBB33_27
# %bb.26:                               #   in Loop: Header=BB33_5 Depth=2
	movl	-4(%rbp), %edi
	addl	$24, %edi
	callq	push_pawn_simple
.LBB33_27:                              #   in Loop: Header=BB33_5 Depth=2
	jmp	.LBB33_28
.LBB33_28:                              #   in Loop: Header=BB33_5 Depth=2
	jmp	.LBB33_29
.LBB33_29:                              #   in Loop: Header=BB33_5 Depth=2
	jmp	.LBB33_30
.LBB33_30:                              #   in Loop: Header=BB33_5 Depth=2
	movl	-4(%rbp), %eax
	addl	$13, %eax
	cltq
	movl	board(,%rax,4), %eax
	andl	$1, %eax
	cmpl	$0, %eax
	jne	.LBB33_33
# %bb.31:                               #   in Loop: Header=BB33_5 Depth=2
	movl	-4(%rbp), %eax
	addl	$13, %eax
	cltq
	cmpl	$0, board(,%rax,4)
	je	.LBB33_33
# %bb.32:                               #   in Loop: Header=BB33_5 Depth=2
	movl	-4(%rbp), %edi
	addl	$13, %edi
	xorl	%esi, %esi
	callq	push_pawn
.LBB33_33:                              #   in Loop: Header=BB33_5 Depth=2
	movl	-4(%rbp), %eax
	addl	$11, %eax
	cltq
	movl	board(,%rax,4), %eax
	andl	$1, %eax
	cmpl	$0, %eax
	jne	.LBB33_36
# %bb.34:                               #   in Loop: Header=BB33_5 Depth=2
	movl	-4(%rbp), %eax
	addl	$11, %eax
	cltq
	cmpl	$0, board(,%rax,4)
	je	.LBB33_36
# %bb.35:                               #   in Loop: Header=BB33_5 Depth=2
	movl	-4(%rbp), %edi
	addl	$11, %edi
	xorl	%esi, %esi
	callq	push_pawn
.LBB33_36:                              #   in Loop: Header=BB33_5 Depth=2
	movl	ep_square, %eax
	movl	-4(%rbp), %ecx
	addl	$13, %ecx
	cmpl	%ecx, %eax
	jne	.LBB33_38
# %bb.37:                               #   in Loop: Header=BB33_5 Depth=2
	movl	-4(%rbp), %edi
	addl	$13, %edi
	movl	$1, %esi
	callq	push_pawn
	jmp	.LBB33_41
.LBB33_38:                              #   in Loop: Header=BB33_5 Depth=2
	movl	ep_square, %eax
	movl	-4(%rbp), %ecx
	addl	$11, %ecx
	cmpl	%ecx, %eax
	jne	.LBB33_40
# %bb.39:                               #   in Loop: Header=BB33_5 Depth=2
	movl	-4(%rbp), %edi
	addl	$11, %edi
	movl	$1, %esi
	callq	push_pawn
.LBB33_40:                              #   in Loop: Header=BB33_5 Depth=2
	jmp	.LBB33_41
.LBB33_41:                              #   in Loop: Header=BB33_5 Depth=2
	jmp	.LBB33_115
.LBB33_42:                              #   in Loop: Header=BB33_5 Depth=2
	movl	-4(%rbp), %eax
	subl	$25, %eax
	cltq
	cmpl	$0, board(,%rax,4)
	je	.LBB33_44
# %bb.43:                               #   in Loop: Header=BB33_5 Depth=2
	movl	-4(%rbp), %edi
	subl	$25, %edi
	callq	push_knighT
.LBB33_44:                              #   in Loop: Header=BB33_5 Depth=2
	movl	-4(%rbp), %eax
	subl	$23, %eax
	cltq
	cmpl	$0, board(,%rax,4)
	je	.LBB33_46
# %bb.45:                               #   in Loop: Header=BB33_5 Depth=2
	movl	-4(%rbp), %edi
	subl	$23, %edi
	callq	push_knighT
.LBB33_46:                              #   in Loop: Header=BB33_5 Depth=2
	movl	-4(%rbp), %eax
	subl	$14, %eax
	cltq
	cmpl	$0, board(,%rax,4)
	je	.LBB33_48
# %bb.47:                               #   in Loop: Header=BB33_5 Depth=2
	movl	-4(%rbp), %edi
	subl	$14, %edi
	callq	push_knighT
.LBB33_48:                              #   in Loop: Header=BB33_5 Depth=2
	movl	-4(%rbp), %eax
	subl	$10, %eax
	cltq
	cmpl	$0, board(,%rax,4)
	je	.LBB33_50
# %bb.49:                               #   in Loop: Header=BB33_5 Depth=2
	movl	-4(%rbp), %edi
	subl	$10, %edi
	callq	push_knighT
.LBB33_50:                              #   in Loop: Header=BB33_5 Depth=2
	movl	-4(%rbp), %eax
	addl	$10, %eax
	cltq
	cmpl	$0, board(,%rax,4)
	je	.LBB33_52
# %bb.51:                               #   in Loop: Header=BB33_5 Depth=2
	movl	-4(%rbp), %edi
	addl	$10, %edi
	callq	push_knighT
.LBB33_52:                              #   in Loop: Header=BB33_5 Depth=2
	movl	-4(%rbp), %eax
	addl	$14, %eax
	cltq
	cmpl	$0, board(,%rax,4)
	je	.LBB33_54
# %bb.53:                               #   in Loop: Header=BB33_5 Depth=2
	movl	-4(%rbp), %edi
	addl	$14, %edi
	callq	push_knighT
.LBB33_54:                              #   in Loop: Header=BB33_5 Depth=2
	movl	-4(%rbp), %eax
	addl	$23, %eax
	cltq
	cmpl	$0, board(,%rax,4)
	je	.LBB33_56
# %bb.55:                               #   in Loop: Header=BB33_5 Depth=2
	movl	-4(%rbp), %edi
	addl	$23, %edi
	callq	push_knighT
.LBB33_56:                              #   in Loop: Header=BB33_5 Depth=2
	movl	-4(%rbp), %eax
	addl	$25, %eax
	cltq
	cmpl	$0, board(,%rax,4)
	je	.LBB33_58
# %bb.57:                               #   in Loop: Header=BB33_5 Depth=2
	movl	-4(%rbp), %edi
	addl	$25, %edi
	callq	push_knighT
.LBB33_58:                              #   in Loop: Header=BB33_5 Depth=2
	jmp	.LBB33_115
.LBB33_59:                              #   in Loop: Header=BB33_5 Depth=2
	movl	-4(%rbp), %eax
	subl	$13, %eax
	cltq
	cmpl	$0, board(,%rax,4)
	je	.LBB33_61
# %bb.60:                               #   in Loop: Header=BB33_5 Depth=2
	movl	-4(%rbp), %edi
	subl	$13, %edi
	callq	push_slidE
.LBB33_61:                              #   in Loop: Header=BB33_5 Depth=2
	movl	-4(%rbp), %eax
	subl	$11, %eax
	cltq
	cmpl	$0, board(,%rax,4)
	je	.LBB33_63
# %bb.62:                               #   in Loop: Header=BB33_5 Depth=2
	movl	-4(%rbp), %edi
	subl	$11, %edi
	callq	push_slidE
.LBB33_63:                              #   in Loop: Header=BB33_5 Depth=2
	movl	-4(%rbp), %eax
	addl	$11, %eax
	cltq
	cmpl	$0, board(,%rax,4)
	je	.LBB33_65
# %bb.64:                               #   in Loop: Header=BB33_5 Depth=2
	movl	-4(%rbp), %edi
	addl	$11, %edi
	callq	push_slidE
.LBB33_65:                              #   in Loop: Header=BB33_5 Depth=2
	movl	-4(%rbp), %eax
	addl	$13, %eax
	cltq
	cmpl	$0, board(,%rax,4)
	je	.LBB33_67
# %bb.66:                               #   in Loop: Header=BB33_5 Depth=2
	movl	-4(%rbp), %edi
	addl	$13, %edi
	callq	push_slidE
.LBB33_67:                              #   in Loop: Header=BB33_5 Depth=2
	jmp	.LBB33_115
.LBB33_68:                              #   in Loop: Header=BB33_5 Depth=2
	movl	-4(%rbp), %eax
	subl	$12, %eax
	cltq
	cmpl	$0, board(,%rax,4)
	je	.LBB33_70
# %bb.69:                               #   in Loop: Header=BB33_5 Depth=2
	movl	-4(%rbp), %edi
	subl	$12, %edi
	callq	push_slidE
.LBB33_70:                              #   in Loop: Header=BB33_5 Depth=2
	movl	-4(%rbp), %eax
	subl	$1, %eax
	cltq
	cmpl	$0, board(,%rax,4)
	je	.LBB33_72
# %bb.71:                               #   in Loop: Header=BB33_5 Depth=2
	movl	-4(%rbp), %edi
	subl	$1, %edi
	callq	push_slidE
.LBB33_72:                              #   in Loop: Header=BB33_5 Depth=2
	movl	-4(%rbp), %eax
	addl	$1, %eax
	cltq
	cmpl	$0, board(,%rax,4)
	je	.LBB33_74
# %bb.73:                               #   in Loop: Header=BB33_5 Depth=2
	movl	-4(%rbp), %edi
	addl	$1, %edi
	callq	push_slidE
.LBB33_74:                              #   in Loop: Header=BB33_5 Depth=2
	movl	-4(%rbp), %eax
	addl	$12, %eax
	cltq
	cmpl	$0, board(,%rax,4)
	je	.LBB33_76
# %bb.75:                               #   in Loop: Header=BB33_5 Depth=2
	movl	-4(%rbp), %edi
	addl	$12, %edi
	callq	push_slidE
.LBB33_76:                              #   in Loop: Header=BB33_5 Depth=2
	jmp	.LBB33_115
.LBB33_77:                              #   in Loop: Header=BB33_5 Depth=2
	movl	-4(%rbp), %eax
	subl	$13, %eax
	cltq
	cmpl	$0, board(,%rax,4)
	je	.LBB33_79
# %bb.78:                               #   in Loop: Header=BB33_5 Depth=2
	movl	-4(%rbp), %edi
	subl	$13, %edi
	callq	push_slidE
.LBB33_79:                              #   in Loop: Header=BB33_5 Depth=2
	movl	-4(%rbp), %eax
	subl	$12, %eax
	cltq
	cmpl	$0, board(,%rax,4)
	je	.LBB33_81
# %bb.80:                               #   in Loop: Header=BB33_5 Depth=2
	movl	-4(%rbp), %edi
	subl	$12, %edi
	callq	push_slidE
.LBB33_81:                              #   in Loop: Header=BB33_5 Depth=2
	movl	-4(%rbp), %eax
	subl	$11, %eax
	cltq
	cmpl	$0, board(,%rax,4)
	je	.LBB33_83
# %bb.82:                               #   in Loop: Header=BB33_5 Depth=2
	movl	-4(%rbp), %edi
	subl	$11, %edi
	callq	push_slidE
.LBB33_83:                              #   in Loop: Header=BB33_5 Depth=2
	movl	-4(%rbp), %eax
	subl	$1, %eax
	cltq
	cmpl	$0, board(,%rax,4)
	je	.LBB33_85
# %bb.84:                               #   in Loop: Header=BB33_5 Depth=2
	movl	-4(%rbp), %edi
	subl	$1, %edi
	callq	push_slidE
.LBB33_85:                              #   in Loop: Header=BB33_5 Depth=2
	movl	-4(%rbp), %eax
	addl	$1, %eax
	cltq
	cmpl	$0, board(,%rax,4)
	je	.LBB33_87
# %bb.86:                               #   in Loop: Header=BB33_5 Depth=2
	movl	-4(%rbp), %edi
	addl	$1, %edi
	callq	push_slidE
.LBB33_87:                              #   in Loop: Header=BB33_5 Depth=2
	movl	-4(%rbp), %eax
	addl	$11, %eax
	cltq
	cmpl	$0, board(,%rax,4)
	je	.LBB33_89
# %bb.88:                               #   in Loop: Header=BB33_5 Depth=2
	movl	-4(%rbp), %edi
	addl	$11, %edi
	callq	push_slidE
.LBB33_89:                              #   in Loop: Header=BB33_5 Depth=2
	movl	-4(%rbp), %eax
	addl	$12, %eax
	cltq
	cmpl	$0, board(,%rax,4)
	je	.LBB33_91
# %bb.90:                               #   in Loop: Header=BB33_5 Depth=2
	movl	-4(%rbp), %edi
	addl	$12, %edi
	callq	push_slidE
.LBB33_91:                              #   in Loop: Header=BB33_5 Depth=2
	movl	-4(%rbp), %eax
	addl	$13, %eax
	cltq
	cmpl	$0, board(,%rax,4)
	je	.LBB33_93
# %bb.92:                               #   in Loop: Header=BB33_5 Depth=2
	movl	-4(%rbp), %edi
	addl	$13, %edi
	callq	push_slidE
.LBB33_93:                              #   in Loop: Header=BB33_5 Depth=2
	jmp	.LBB33_115
.LBB33_94:                              #   in Loop: Header=BB33_5 Depth=2
	movl	-4(%rbp), %edi
	subl	$13, %edi
	callq	push_king
	movl	-4(%rbp), %edi
	subl	$12, %edi
	callq	push_king
	movl	-4(%rbp), %edi
	subl	$11, %edi
	callq	push_king
	movl	-4(%rbp), %edi
	subl	$1, %edi
	callq	push_king
	movl	-4(%rbp), %edi
	addl	$1, %edi
	callq	push_king
	movl	-4(%rbp), %edi
	addl	$11, %edi
	callq	push_king
	movl	-4(%rbp), %edi
	addl	$12, %edi
	callq	push_king
	movl	-4(%rbp), %edi
	addl	$13, %edi
	callq	push_king
	cmpl	$30, -4(%rbp)
	jne	.LBB33_113
# %bb.95:                               #   in Loop: Header=BB33_5 Depth=2
	cmpl	$0, moved+120
	jne	.LBB33_113
# %bb.96:                               #   in Loop: Header=BB33_5 Depth=2
	cmpl	$0, captures
	jne	.LBB33_113
# %bb.97:                               #   in Loop: Header=BB33_5 Depth=2
	cmpl	$3, Variant
	jne	.LBB33_99
# %bb.98:                               #   in Loop: Header=BB33_5 Depth=2
	cmpl	$1, Giveaway
	jne	.LBB33_113
.LBB33_99:                              #   in Loop: Header=BB33_5 Depth=2
	cmpl	$0, moved+132
	jne	.LBB33_105
# %bb.100:                              #   in Loop: Header=BB33_5 Depth=2
	cmpl	$7, board+132
	jne	.LBB33_105
# %bb.101:                              #   in Loop: Header=BB33_5 Depth=2
	cmpl	$13, board+124
	jne	.LBB33_104
# %bb.102:                              #   in Loop: Header=BB33_5 Depth=2
	cmpl	$13, board+128
	jne	.LBB33_104
# %bb.103:                              #   in Loop: Header=BB33_5 Depth=2
	movl	-4(%rbp), %edi
	addl	$2, %edi
	movl	$1, %esi
	callq	push_king_castle
.LBB33_104:                             #   in Loop: Header=BB33_5 Depth=2
	jmp	.LBB33_105
.LBB33_105:                             #   in Loop: Header=BB33_5 Depth=2
	cmpl	$0, moved+104
	jne	.LBB33_112
# %bb.106:                              #   in Loop: Header=BB33_5 Depth=2
	cmpl	$7, board+104
	jne	.LBB33_112
# %bb.107:                              #   in Loop: Header=BB33_5 Depth=2
	cmpl	$13, board+108
	jne	.LBB33_111
# %bb.108:                              #   in Loop: Header=BB33_5 Depth=2
	cmpl	$13, board+112
	jne	.LBB33_111
# %bb.109:                              #   in Loop: Header=BB33_5 Depth=2
	cmpl	$13, board+116
	jne	.LBB33_111
# %bb.110:                              #   in Loop: Header=BB33_5 Depth=2
	movl	-4(%rbp), %edi
	subl	$2, %edi
	movl	$2, %esi
	callq	push_king_castle
.LBB33_111:                             #   in Loop: Header=BB33_5 Depth=2
	jmp	.LBB33_112
.LBB33_112:                             #   in Loop: Header=BB33_5 Depth=2
	jmp	.LBB33_113
.LBB33_113:                             #   in Loop: Header=BB33_5 Depth=2
	jmp	.LBB33_115
.LBB33_114:                             #   in Loop: Header=BB33_5 Depth=2
	jmp	.LBB33_115
.LBB33_115:                             #   in Loop: Header=BB33_5 Depth=2
	jmp	.LBB33_116
.LBB33_116:                             #   in Loop: Header=BB33_5 Depth=2
	movl	-12(%rbp), %eax
	addl	$1, %eax
	movl	%eax, -12(%rbp)
	jmp	.LBB33_5
.LBB33_117:                             #   in Loop: Header=BB33_3 Depth=1
	jmp	.LBB33_232
.LBB33_118:                             #   in Loop: Header=BB33_3 Depth=1
	movl	$1, -16(%rbp)
	movl	$1, -12(%rbp)
.LBB33_119:                             #   Parent Loop BB33_3 Depth=1
                                        # =>  This Inner Loop Header: Depth=2
	xorl	%eax, %eax
	movl	-16(%rbp), %ecx
	cmpl	piece_count, %ecx
	jg	.LBB33_126
# %bb.120:                              #   in Loop: Header=BB33_119 Depth=2
	cmpl	$3, Variant
	je	.LBB33_122
# %bb.121:                              #   in Loop: Header=BB33_119 Depth=2
	movb	$1, %al
	cmpl	$0, kingcap
	je	.LBB33_125
.LBB33_122:                             #   in Loop: Header=BB33_119 Depth=2
	xorl	%eax, %eax
	cmpl	$3, Variant
	jne	.LBB33_124
# %bb.123:                              #   in Loop: Header=BB33_119 Depth=2
	movl	fcaptures, %eax
	cmpl	captures, %eax
	sete	%al
.LBB33_124:                             #   in Loop: Header=BB33_119 Depth=2
.LBB33_125:                             #   in Loop: Header=BB33_119 Depth=2
.LBB33_126:                             #   in Loop: Header=BB33_119 Depth=2
	testb	$1, %al
	jne	.LBB33_127
	jmp	.LBB33_231
.LBB33_127:                             #   in Loop: Header=BB33_119 Depth=2
	movslq	-12(%rbp), %rax
	movl	pieces(,%rax,4), %eax
	movl	%eax, -8(%rbp)
	cmpl	$0, -8(%rbp)
	jne	.LBB33_129
# %bb.128:                              #   in Loop: Header=BB33_119 Depth=2
	jmp	.LBB33_230
.LBB33_129:                             #   in Loop: Header=BB33_119 Depth=2
	movl	-16(%rbp), %eax
	addl	$1, %eax
	movl	%eax, -16(%rbp)
# %bb.130:                              #   in Loop: Header=BB33_119 Depth=2
	movl	-8(%rbp), %eax
	movl	%eax, -4(%rbp)
	movl	-8(%rbp), %eax
	movl	%eax, gfrom(%rip)
	movslq	-4(%rbp), %rax
	movl	board(,%rax,4), %eax
	addl	$-2, %eax
	movl	%eax, %ecx
	subl	$10, %ecx
	ja	.LBB33_228
# %bb.131:                              #   in Loop: Header=BB33_119 Depth=2
	movq	.LJTI33_0(,%rax,8), %rax
	jmpq	*%rax
.LBB33_132:                             #   in Loop: Header=BB33_119 Depth=2
	movl	-4(%rbp), %eax
	subl	$12, %eax
	cltq
	cmpl	$13, board(,%rax,4)
	jne	.LBB33_144
# %bb.133:                              #   in Loop: Header=BB33_119 Depth=2
	movslq	-4(%rbp), %rax
	cmpl	$2, Xrank(,%rax,4)
	jne	.LBB33_137
# %bb.134:                              #   in Loop: Header=BB33_119 Depth=2
	cmpl	$3, Variant
	je	.LBB33_137
# %bb.135:                              #   in Loop: Header=BB33_119 Depth=2
	cmpl	$4, Variant
	je	.LBB33_137
# %bb.136:                              #   in Loop: Header=BB33_119 Depth=2
	movl	-4(%rbp), %edi
	subl	$12, %edi
	xorl	%esi, %esi
	callq	push_pawn
	jmp	.LBB33_143
.LBB33_137:                             #   in Loop: Header=BB33_119 Depth=2
	cmpl	$0, captures
	jne	.LBB33_142
# %bb.138:                              #   in Loop: Header=BB33_119 Depth=2
	movl	-4(%rbp), %edi
	subl	$12, %edi
	xorl	%esi, %esi
	callq	push_pawn
	movslq	-4(%rbp), %rax
	cmpl	$7, Xrank(,%rax,4)
	jne	.LBB33_141
# %bb.139:                              #   in Loop: Header=BB33_119 Depth=2
	movl	-4(%rbp), %eax
	subl	$24, %eax
	cltq
	cmpl	$13, board(,%rax,4)
	jne	.LBB33_141
# %bb.140:                              #   in Loop: Header=BB33_119 Depth=2
	movl	-4(%rbp), %edi
	subl	$24, %edi
	callq	push_pawn_simple
.LBB33_141:                             #   in Loop: Header=BB33_119 Depth=2
	jmp	.LBB33_142
.LBB33_142:                             #   in Loop: Header=BB33_119 Depth=2
	jmp	.LBB33_143
.LBB33_143:                             #   in Loop: Header=BB33_119 Depth=2
	jmp	.LBB33_144
.LBB33_144:                             #   in Loop: Header=BB33_119 Depth=2
	movl	-4(%rbp), %eax
	subl	$13, %eax
	cltq
	movl	board(,%rax,4), %eax
	andl	$1, %eax
	cmpl	$1, %eax
	jne	.LBB33_147
# %bb.145:                              #   in Loop: Header=BB33_119 Depth=2
	movl	-4(%rbp), %eax
	subl	$13, %eax
	cltq
	cmpl	$13, board(,%rax,4)
	je	.LBB33_147
# %bb.146:                              #   in Loop: Header=BB33_119 Depth=2
	movl	-4(%rbp), %edi
	subl	$13, %edi
	xorl	%esi, %esi
	callq	push_pawn
.LBB33_147:                             #   in Loop: Header=BB33_119 Depth=2
	movl	-4(%rbp), %eax
	subl	$11, %eax
	cltq
	movl	board(,%rax,4), %eax
	andl	$1, %eax
	cmpl	$1, %eax
	jne	.LBB33_150
# %bb.148:                              #   in Loop: Header=BB33_119 Depth=2
	movl	-4(%rbp), %eax
	subl	$11, %eax
	cltq
	cmpl	$13, board(,%rax,4)
	je	.LBB33_150
# %bb.149:                              #   in Loop: Header=BB33_119 Depth=2
	movl	-4(%rbp), %edi
	subl	$11, %edi
	xorl	%esi, %esi
	callq	push_pawn
.LBB33_150:                             #   in Loop: Header=BB33_119 Depth=2
	movl	ep_square, %eax
	movl	-4(%rbp), %ecx
	subl	$13, %ecx
	cmpl	%ecx, %eax
	jne	.LBB33_152
# %bb.151:                              #   in Loop: Header=BB33_119 Depth=2
	movl	-4(%rbp), %edi
	subl	$13, %edi
	movl	$1, %esi
	callq	push_pawn
	jmp	.LBB33_155
.LBB33_152:                             #   in Loop: Header=BB33_119 Depth=2
	movl	ep_square, %eax
	movl	-4(%rbp), %ecx
	subl	$11, %ecx
	cmpl	%ecx, %eax
	jne	.LBB33_154
# %bb.153:                              #   in Loop: Header=BB33_119 Depth=2
	movl	-4(%rbp), %edi
	subl	$11, %edi
	movl	$1, %esi
	callq	push_pawn
.LBB33_154:                             #   in Loop: Header=BB33_119 Depth=2
	jmp	.LBB33_155
.LBB33_155:                             #   in Loop: Header=BB33_119 Depth=2
	jmp	.LBB33_229
.LBB33_156:                             #   in Loop: Header=BB33_119 Depth=2
	movl	-4(%rbp), %eax
	subl	$25, %eax
	cltq
	cmpl	$0, board(,%rax,4)
	je	.LBB33_158
# %bb.157:                              #   in Loop: Header=BB33_119 Depth=2
	movl	-4(%rbp), %edi
	subl	$25, %edi
	callq	push_knighT
.LBB33_158:                             #   in Loop: Header=BB33_119 Depth=2
	movl	-4(%rbp), %eax
	subl	$23, %eax
	cltq
	cmpl	$0, board(,%rax,4)
	je	.LBB33_160
# %bb.159:                              #   in Loop: Header=BB33_119 Depth=2
	movl	-4(%rbp), %edi
	subl	$23, %edi
	callq	push_knighT
.LBB33_160:                             #   in Loop: Header=BB33_119 Depth=2
	movl	-4(%rbp), %eax
	subl	$14, %eax
	cltq
	cmpl	$0, board(,%rax,4)
	je	.LBB33_162
# %bb.161:                              #   in Loop: Header=BB33_119 Depth=2
	movl	-4(%rbp), %edi
	subl	$14, %edi
	callq	push_knighT
.LBB33_162:                             #   in Loop: Header=BB33_119 Depth=2
	movl	-4(%rbp), %eax
	subl	$10, %eax
	cltq
	cmpl	$0, board(,%rax,4)
	je	.LBB33_164
# %bb.163:                              #   in Loop: Header=BB33_119 Depth=2
	movl	-4(%rbp), %edi
	subl	$10, %edi
	callq	push_knighT
.LBB33_164:                             #   in Loop: Header=BB33_119 Depth=2
	movl	-4(%rbp), %eax
	addl	$10, %eax
	cltq
	cmpl	$0, board(,%rax,4)
	je	.LBB33_166
# %bb.165:                              #   in Loop: Header=BB33_119 Depth=2
	movl	-4(%rbp), %edi
	addl	$10, %edi
	callq	push_knighT
.LBB33_166:                             #   in Loop: Header=BB33_119 Depth=2
	movl	-4(%rbp), %eax
	addl	$14, %eax
	cltq
	cmpl	$0, board(,%rax,4)
	je	.LBB33_168
# %bb.167:                              #   in Loop: Header=BB33_119 Depth=2
	movl	-4(%rbp), %edi
	addl	$14, %edi
	callq	push_knighT
.LBB33_168:                             #   in Loop: Header=BB33_119 Depth=2
	movl	-4(%rbp), %eax
	addl	$23, %eax
	cltq
	cmpl	$0, board(,%rax,4)
	je	.LBB33_170
# %bb.169:                              #   in Loop: Header=BB33_119 Depth=2
	movl	-4(%rbp), %edi
	addl	$23, %edi
	callq	push_knighT
.LBB33_170:                             #   in Loop: Header=BB33_119 Depth=2
	movl	-4(%rbp), %eax
	addl	$25, %eax
	cltq
	cmpl	$0, board(,%rax,4)
	je	.LBB33_172
# %bb.171:                              #   in Loop: Header=BB33_119 Depth=2
	movl	-4(%rbp), %edi
	addl	$25, %edi
	callq	push_knighT
.LBB33_172:                             #   in Loop: Header=BB33_119 Depth=2
	jmp	.LBB33_229
.LBB33_173:                             #   in Loop: Header=BB33_119 Depth=2
	movl	-4(%rbp), %eax
	subl	$13, %eax
	cltq
	cmpl	$0, board(,%rax,4)
	je	.LBB33_175
# %bb.174:                              #   in Loop: Header=BB33_119 Depth=2
	movl	-4(%rbp), %edi
	subl	$13, %edi
	callq	push_slidE
.LBB33_175:                             #   in Loop: Header=BB33_119 Depth=2
	movl	-4(%rbp), %eax
	subl	$11, %eax
	cltq
	cmpl	$0, board(,%rax,4)
	je	.LBB33_177
# %bb.176:                              #   in Loop: Header=BB33_119 Depth=2
	movl	-4(%rbp), %edi
	subl	$11, %edi
	callq	push_slidE
.LBB33_177:                             #   in Loop: Header=BB33_119 Depth=2
	movl	-4(%rbp), %eax
	addl	$11, %eax
	cltq
	cmpl	$0, board(,%rax,4)
	je	.LBB33_179
# %bb.178:                              #   in Loop: Header=BB33_119 Depth=2
	movl	-4(%rbp), %edi
	addl	$11, %edi
	callq	push_slidE
.LBB33_179:                             #   in Loop: Header=BB33_119 Depth=2
	movl	-4(%rbp), %eax
	addl	$13, %eax
	cltq
	cmpl	$0, board(,%rax,4)
	je	.LBB33_181
# %bb.180:                              #   in Loop: Header=BB33_119 Depth=2
	movl	-4(%rbp), %edi
	addl	$13, %edi
	callq	push_slidE
.LBB33_181:                             #   in Loop: Header=BB33_119 Depth=2
	jmp	.LBB33_229
.LBB33_182:                             #   in Loop: Header=BB33_119 Depth=2
	movl	-4(%rbp), %eax
	subl	$12, %eax
	cltq
	cmpl	$0, board(,%rax,4)
	je	.LBB33_184
# %bb.183:                              #   in Loop: Header=BB33_119 Depth=2
	movl	-4(%rbp), %edi
	subl	$12, %edi
	callq	push_slidE
.LBB33_184:                             #   in Loop: Header=BB33_119 Depth=2
	movl	-4(%rbp), %eax
	subl	$1, %eax
	cltq
	cmpl	$0, board(,%rax,4)
	je	.LBB33_186
# %bb.185:                              #   in Loop: Header=BB33_119 Depth=2
	movl	-4(%rbp), %edi
	subl	$1, %edi
	callq	push_slidE
.LBB33_186:                             #   in Loop: Header=BB33_119 Depth=2
	movl	-4(%rbp), %eax
	addl	$1, %eax
	cltq
	cmpl	$0, board(,%rax,4)
	je	.LBB33_188
# %bb.187:                              #   in Loop: Header=BB33_119 Depth=2
	movl	-4(%rbp), %edi
	addl	$1, %edi
	callq	push_slidE
.LBB33_188:                             #   in Loop: Header=BB33_119 Depth=2
	movl	-4(%rbp), %eax
	addl	$12, %eax
	cltq
	cmpl	$0, board(,%rax,4)
	je	.LBB33_190
# %bb.189:                              #   in Loop: Header=BB33_119 Depth=2
	movl	-4(%rbp), %edi
	addl	$12, %edi
	callq	push_slidE
.LBB33_190:                             #   in Loop: Header=BB33_119 Depth=2
	jmp	.LBB33_229
.LBB33_191:                             #   in Loop: Header=BB33_119 Depth=2
	movl	-4(%rbp), %eax
	subl	$13, %eax
	cltq
	cmpl	$0, board(,%rax,4)
	je	.LBB33_193
# %bb.192:                              #   in Loop: Header=BB33_119 Depth=2
	movl	-4(%rbp), %edi
	subl	$13, %edi
	callq	push_slidE
.LBB33_193:                             #   in Loop: Header=BB33_119 Depth=2
	movl	-4(%rbp), %eax
	subl	$12, %eax
	cltq
	cmpl	$0, board(,%rax,4)
	je	.LBB33_195
# %bb.194:                              #   in Loop: Header=BB33_119 Depth=2
	movl	-4(%rbp), %edi
	subl	$12, %edi
	callq	push_slidE
.LBB33_195:                             #   in Loop: Header=BB33_119 Depth=2
	movl	-4(%rbp), %eax
	subl	$11, %eax
	cltq
	cmpl	$0, board(,%rax,4)
	je	.LBB33_197
# %bb.196:                              #   in Loop: Header=BB33_119 Depth=2
	movl	-4(%rbp), %edi
	subl	$11, %edi
	callq	push_slidE
.LBB33_197:                             #   in Loop: Header=BB33_119 Depth=2
	movl	-4(%rbp), %eax
	subl	$1, %eax
	cltq
	cmpl	$0, board(,%rax,4)
	je	.LBB33_199
# %bb.198:                              #   in Loop: Header=BB33_119 Depth=2
	movl	-4(%rbp), %edi
	subl	$1, %edi
	callq	push_slidE
.LBB33_199:                             #   in Loop: Header=BB33_119 Depth=2
	movl	-4(%rbp), %eax
	addl	$1, %eax
	cltq
	cmpl	$0, board(,%rax,4)
	je	.LBB33_201
# %bb.200:                              #   in Loop: Header=BB33_119 Depth=2
	movl	-4(%rbp), %edi
	addl	$1, %edi
	callq	push_slidE
.LBB33_201:                             #   in Loop: Header=BB33_119 Depth=2
	movl	-4(%rbp), %eax
	addl	$11, %eax
	cltq
	cmpl	$0, board(,%rax,4)
	je	.LBB33_203
# %bb.202:                              #   in Loop: Header=BB33_119 Depth=2
	movl	-4(%rbp), %edi
	addl	$11, %edi
	callq	push_slidE
.LBB33_203:                             #   in Loop: Header=BB33_119 Depth=2
	movl	-4(%rbp), %eax
	addl	$12, %eax
	cltq
	cmpl	$0, board(,%rax,4)
	je	.LBB33_205
# %bb.204:                              #   in Loop: Header=BB33_119 Depth=2
	movl	-4(%rbp), %edi
	addl	$12, %edi
	callq	push_slidE
.LBB33_205:                             #   in Loop: Header=BB33_119 Depth=2
	movl	-4(%rbp), %eax
	addl	$13, %eax
	cltq
	cmpl	$0, board(,%rax,4)
	je	.LBB33_207
# %bb.206:                              #   in Loop: Header=BB33_119 Depth=2
	movl	-4(%rbp), %edi
	addl	$13, %edi
	callq	push_slidE
.LBB33_207:                             #   in Loop: Header=BB33_119 Depth=2
	jmp	.LBB33_229
.LBB33_208:                             #   in Loop: Header=BB33_119 Depth=2
	movl	-4(%rbp), %edi
	subl	$13, %edi
	callq	push_king
	movl	-4(%rbp), %edi
	subl	$12, %edi
	callq	push_king
	movl	-4(%rbp), %edi
	subl	$11, %edi
	callq	push_king
	movl	-4(%rbp), %edi
	subl	$1, %edi
	callq	push_king
	movl	-4(%rbp), %edi
	addl	$1, %edi
	callq	push_king
	movl	-4(%rbp), %edi
	addl	$11, %edi
	callq	push_king
	movl	-4(%rbp), %edi
	addl	$12, %edi
	callq	push_king
	movl	-4(%rbp), %edi
	addl	$13, %edi
	callq	push_king
	cmpl	$114, -4(%rbp)
	jne	.LBB33_227
# %bb.209:                              #   in Loop: Header=BB33_119 Depth=2
	cmpl	$0, moved+456
	jne	.LBB33_227
# %bb.210:                              #   in Loop: Header=BB33_119 Depth=2
	cmpl	$0, captures
	jne	.LBB33_227
# %bb.211:                              #   in Loop: Header=BB33_119 Depth=2
	cmpl	$3, Variant
	jne	.LBB33_213
# %bb.212:                              #   in Loop: Header=BB33_119 Depth=2
	cmpl	$1, Giveaway
	jne	.LBB33_227
.LBB33_213:                             #   in Loop: Header=BB33_119 Depth=2
	cmpl	$0, moved+468
	jne	.LBB33_219
# %bb.214:                              #   in Loop: Header=BB33_119 Depth=2
	cmpl	$8, board+468
	jne	.LBB33_219
# %bb.215:                              #   in Loop: Header=BB33_119 Depth=2
	cmpl	$13, board+460
	jne	.LBB33_218
# %bb.216:                              #   in Loop: Header=BB33_119 Depth=2
	cmpl	$13, board+464
	jne	.LBB33_218
# %bb.217:                              #   in Loop: Header=BB33_119 Depth=2
	movl	-4(%rbp), %edi
	addl	$2, %edi
	movl	$3, %esi
	callq	push_king_castle
.LBB33_218:                             #   in Loop: Header=BB33_119 Depth=2
	jmp	.LBB33_219
.LBB33_219:                             #   in Loop: Header=BB33_119 Depth=2
	cmpl	$0, moved+440
	jne	.LBB33_226
# %bb.220:                              #   in Loop: Header=BB33_119 Depth=2
	cmpl	$8, board+440
	jne	.LBB33_226
# %bb.221:                              #   in Loop: Header=BB33_119 Depth=2
	cmpl	$13, board+444
	jne	.LBB33_225
# %bb.222:                              #   in Loop: Header=BB33_119 Depth=2
	cmpl	$13, board+448
	jne	.LBB33_225
# %bb.223:                              #   in Loop: Header=BB33_119 Depth=2
	cmpl	$13, board+452
	jne	.LBB33_225
# %bb.224:                              #   in Loop: Header=BB33_119 Depth=2
	movl	-4(%rbp), %edi
	subl	$2, %edi
	movl	$4, %esi
	callq	push_king_castle
.LBB33_225:                             #   in Loop: Header=BB33_119 Depth=2
	jmp	.LBB33_226
.LBB33_226:                             #   in Loop: Header=BB33_119 Depth=2
	jmp	.LBB33_227
.LBB33_227:                             #   in Loop: Header=BB33_119 Depth=2
	jmp	.LBB33_229
.LBB33_228:                             #   in Loop: Header=BB33_119 Depth=2
	jmp	.LBB33_229
.LBB33_229:                             #   in Loop: Header=BB33_119 Depth=2
	jmp	.LBB33_230
.LBB33_230:                             #   in Loop: Header=BB33_119 Depth=2
	movl	-12(%rbp), %eax
	addl	$1, %eax
	movl	%eax, -12(%rbp)
	jmp	.LBB33_119
.LBB33_231:                             #   in Loop: Header=BB33_3 Depth=1
	jmp	.LBB33_232
.LBB33_232:                             #   in Loop: Header=BB33_3 Depth=1
	cmpl	$0, Variant
	je	.LBB33_234
# %bb.233:                              #   in Loop: Header=BB33_3 Depth=1
	cmpl	$1, Variant
	jne	.LBB33_294
.LBB33_234:                             #   in Loop: Header=BB33_3 Depth=1
	cmpl	$0, captures
	jne	.LBB33_294
# %bb.235:                              #   in Loop: Header=BB33_3 Depth=1
	cmpl	$0, kingcap
	jne	.LBB33_294
# %bb.236:                              #   in Loop: Header=BB33_3 Depth=1
	cmpl	$0, white_to_move
	je	.LBB33_264
# %bb.237:                              #   in Loop: Header=BB33_3 Depth=1
	cmpl	$0, holding+4
	jne	.LBB33_242
# %bb.238:                              #   in Loop: Header=BB33_3 Depth=1
	cmpl	$0, holding+12
	jne	.LBB33_242
# %bb.239:                              #   in Loop: Header=BB33_3 Depth=1
	cmpl	$0, holding+44
	jne	.LBB33_242
# %bb.240:                              #   in Loop: Header=BB33_3 Depth=1
	cmpl	$0, holding+36
	jne	.LBB33_242
# %bb.241:                              #   in Loop: Header=BB33_3 Depth=1
	cmpl	$0, holding+28
	je	.LBB33_264
.LBB33_242:                             #   in Loop: Header=BB33_3 Depth=1
	movl	$26, -4(%rbp)
.LBB33_243:                             #   Parent Loop BB33_3 Depth=1
                                        # =>  This Inner Loop Header: Depth=2
	cmpl	$118, -4(%rbp)
	jge	.LBB33_263
# %bb.244:                              #   in Loop: Header=BB33_243 Depth=2
	movl	-4(%rbp), %eax
	movl	%eax, gfrom(%rip)
	movslq	-4(%rbp), %rax
	movl	board(,%rax,4), %eax
	testl	%eax, %eax
	je	.LBB33_246
	jmp	.LBB33_245
.LBB33_245:                             #   in Loop: Header=BB33_243 Depth=2
	subl	$13, %eax
	je	.LBB33_247
	jmp	.LBB33_261
.LBB33_246:                             #   in Loop: Header=BB33_243 Depth=2
	movl	-4(%rbp), %eax
	addl	$3, %eax
	movl	%eax, -4(%rbp)
	jmp	.LBB33_262
.LBB33_247:                             #   in Loop: Header=BB33_243 Depth=2
	cmpl	$0, holding+4
	je	.LBB33_252
# %bb.248:                              #   in Loop: Header=BB33_243 Depth=2
	movslq	-4(%rbp), %rax
	cmpl	$8, Xrank(,%rax,4)
	je	.LBB33_251
# %bb.249:                              #   in Loop: Header=BB33_243 Depth=2
	movslq	-4(%rbp), %rax
	cmpl	$1, Xrank(,%rax,4)
	je	.LBB33_251
# %bb.250:                              #   in Loop: Header=BB33_243 Depth=2
	movl	$1, %edi
	callq	try_drop
.LBB33_251:                             #   in Loop: Header=BB33_243 Depth=2
	jmp	.LBB33_252
.LBB33_252:                             #   in Loop: Header=BB33_243 Depth=2
	cmpl	$0, holding+12
	je	.LBB33_254
# %bb.253:                              #   in Loop: Header=BB33_243 Depth=2
	movl	$3, %edi
	callq	try_drop
.LBB33_254:                             #   in Loop: Header=BB33_243 Depth=2
	cmpl	$0, holding+44
	je	.LBB33_256
# %bb.255:                              #   in Loop: Header=BB33_243 Depth=2
	movl	$11, %edi
	callq	try_drop
.LBB33_256:                             #   in Loop: Header=BB33_243 Depth=2
	cmpl	$0, holding+28
	je	.LBB33_258
# %bb.257:                              #   in Loop: Header=BB33_243 Depth=2
	movl	$7, %edi
	callq	try_drop
.LBB33_258:                             #   in Loop: Header=BB33_243 Depth=2
	cmpl	$0, holding+36
	je	.LBB33_260
# %bb.259:                              #   in Loop: Header=BB33_243 Depth=2
	movl	$9, %edi
	callq	try_drop
.LBB33_260:                             #   in Loop: Header=BB33_243 Depth=2
	jmp	.LBB33_261
.LBB33_261:                             #   in Loop: Header=BB33_243 Depth=2
	jmp	.LBB33_262
.LBB33_262:                             #   in Loop: Header=BB33_243 Depth=2
	movl	-4(%rbp), %eax
	addl	$1, %eax
	movl	%eax, -4(%rbp)
	jmp	.LBB33_243
.LBB33_263:                             #   in Loop: Header=BB33_3 Depth=1
	jmp	.LBB33_293
.LBB33_264:                             #   in Loop: Header=BB33_3 Depth=1
	cmpl	$0, white_to_move
	jne	.LBB33_292
# %bb.265:                              #   in Loop: Header=BB33_3 Depth=1
	cmpl	$0, holding+72
	jne	.LBB33_270
# %bb.266:                              #   in Loop: Header=BB33_3 Depth=1
	cmpl	$0, holding+80
	jne	.LBB33_270
# %bb.267:                              #   in Loop: Header=BB33_3 Depth=1
	cmpl	$0, holding+112
	jne	.LBB33_270
# %bb.268:                              #   in Loop: Header=BB33_3 Depth=1
	cmpl	$0, holding+104
	jne	.LBB33_270
# %bb.269:                              #   in Loop: Header=BB33_3 Depth=1
	cmpl	$0, holding+96
	je	.LBB33_292
.LBB33_270:                             #   in Loop: Header=BB33_3 Depth=1
	movl	$26, -4(%rbp)
.LBB33_271:                             #   Parent Loop BB33_3 Depth=1
                                        # =>  This Inner Loop Header: Depth=2
	cmpl	$118, -4(%rbp)
	jge	.LBB33_291
# %bb.272:                              #   in Loop: Header=BB33_271 Depth=2
	movl	-4(%rbp), %eax
	movl	%eax, gfrom(%rip)
	movslq	-4(%rbp), %rax
	movl	board(,%rax,4), %eax
	testl	%eax, %eax
	je	.LBB33_274
	jmp	.LBB33_273
.LBB33_273:                             #   in Loop: Header=BB33_271 Depth=2
	subl	$13, %eax
	je	.LBB33_275
	jmp	.LBB33_289
.LBB33_274:                             #   in Loop: Header=BB33_271 Depth=2
	movl	-4(%rbp), %eax
	addl	$3, %eax
	movl	%eax, -4(%rbp)
	jmp	.LBB33_290
.LBB33_275:                             #   in Loop: Header=BB33_271 Depth=2
	cmpl	$0, holding+72
	je	.LBB33_280
# %bb.276:                              #   in Loop: Header=BB33_271 Depth=2
	movslq	-4(%rbp), %rax
	cmpl	$8, Xrank(,%rax,4)
	je	.LBB33_279
# %bb.277:                              #   in Loop: Header=BB33_271 Depth=2
	movslq	-4(%rbp), %rax
	cmpl	$1, Xrank(,%rax,4)
	je	.LBB33_279
# %bb.278:                              #   in Loop: Header=BB33_271 Depth=2
	movl	$2, %edi
	callq	try_drop
.LBB33_279:                             #   in Loop: Header=BB33_271 Depth=2
	jmp	.LBB33_280
.LBB33_280:                             #   in Loop: Header=BB33_271 Depth=2
	cmpl	$0, holding+80
	je	.LBB33_282
# %bb.281:                              #   in Loop: Header=BB33_271 Depth=2
	movl	$4, %edi
	callq	try_drop
.LBB33_282:                             #   in Loop: Header=BB33_271 Depth=2
	cmpl	$0, holding+112
	je	.LBB33_284
# %bb.283:                              #   in Loop: Header=BB33_271 Depth=2
	movl	$12, %edi
	callq	try_drop
.LBB33_284:                             #   in Loop: Header=BB33_271 Depth=2
	cmpl	$0, holding+96
	je	.LBB33_286
# %bb.285:                              #   in Loop: Header=BB33_271 Depth=2
	movl	$8, %edi
	callq	try_drop
.LBB33_286:                             #   in Loop: Header=BB33_271 Depth=2
	cmpl	$0, holding+104
	je	.LBB33_288
# %bb.287:                              #   in Loop: Header=BB33_271 Depth=2
	movl	$10, %edi
	callq	try_drop
.LBB33_288:                             #   in Loop: Header=BB33_271 Depth=2
	jmp	.LBB33_289
.LBB33_289:                             #   in Loop: Header=BB33_271 Depth=2
	jmp	.LBB33_290
.LBB33_290:                             #   in Loop: Header=BB33_271 Depth=2
	movl	-4(%rbp), %eax
	addl	$1, %eax
	movl	%eax, -4(%rbp)
	jmp	.LBB33_271
.LBB33_291:                             #   in Loop: Header=BB33_3 Depth=1
	jmp	.LBB33_292
.LBB33_292:                             #   in Loop: Header=BB33_3 Depth=1
	jmp	.LBB33_293
.LBB33_293:                             #   in Loop: Header=BB33_3 Depth=1
	jmp	.LBB33_294
.LBB33_294:                             #   in Loop: Header=BB33_3 Depth=1
	cmpl	$3, Variant
	jne	.LBB33_298
# %bb.295:                              #   in Loop: Header=BB33_3 Depth=1
	cmpl	$1, fcaptures
	jne	.LBB33_298
# %bb.296:                              #   in Loop: Header=BB33_3 Depth=1
	cmpl	$0, captures
	jne	.LBB33_298
# %bb.297:                              #   in Loop: Header=BB33_3 Depth=1
	movl	$1, captures
	movl	$0, numb_moves
	jmp	.LBB33_3
.LBB33_298:
	cmpl	$3, Variant
	jne	.LBB33_300
# %bb.299:
	movl	$0, kingcap
.LBB33_300:
	addq	$32, %rsp
	popq	%rbp
	retq
.Lfunc_end33:
	.size	gen, .Lfunc_end33-gen
	.cfi_endproc
	.section	.rodata,"a",@progbits
	.p2align	3
.LJTI33_0:
	.quad	.LBB33_132
	.quad	.LBB33_228
	.quad	.LBB33_156
	.quad	.LBB33_228
	.quad	.LBB33_208
	.quad	.LBB33_228
	.quad	.LBB33_182
	.quad	.LBB33_228
	.quad	.LBB33_191
	.quad	.LBB33_228
	.quad	.LBB33_173
.LJTI33_1:
	.quad	.LBB33_18
	.quad	.LBB33_114
	.quad	.LBB33_42
	.quad	.LBB33_114
	.quad	.LBB33_94
	.quad	.LBB33_114
	.quad	.LBB33_68
	.quad	.LBB33_114
	.quad	.LBB33_77
	.quad	.LBB33_114
	.quad	.LBB33_59
                                        # -- End function
	.text
	.globl	push_pawn               # -- Begin function push_pawn
	.p2align	4, 0x90
	.type	push_pawn,@function
push_pawn:                              # @push_pawn
	.cfi_startproc
# %bb.0:
	pushq	%rbp
	.cfi_def_cfa_offset 16
	.cfi_offset %rbp, -16
	movq	%rsp, %rbp
	.cfi_def_cfa_register %rbp
	subq	$16, %rsp
	movl	%edi, -4(%rbp)
	movl	%esi, -12(%rbp)
	cmpl	$0, -12(%rbp)
	je	.LBB34_4
# %bb.1:
	movslq	gfrom, %rax
	cmpl	$1, board(,%rax,4)
	jne	.LBB34_3
# %bb.2:
	movl	-4(%rbp), %edi
	movl	$2, %esi
	xorl	%edx, %edx
	movl	$1, %ecx
	callq	add_capture
	jmp	.LBB34_15
.LBB34_3:
	movl	-4(%rbp), %edi
	movl	$1, %esi
	xorl	%edx, %edx
	movl	$1, %ecx
	callq	add_capture
	jmp	.LBB34_15
.LBB34_4:
	movslq	-4(%rbp), %rax
	movl	board(,%rax,4), %eax
	movl	%eax, -8(%rbp)
	movslq	gfrom, %rax
	cmpl	$1, board(,%rax,4)
	jne	.LBB34_9
# %bb.5:
	movslq	gfrom, %rax
	cmpl	$7, Xrank(,%rax,4)
	jne	.LBB34_9
# %bb.6:
	movl	-4(%rbp), %edi
	movl	-8(%rbp), %esi
	movl	$9, %edx
	xorl	%ecx, %ecx
	callq	add_capture
	movl	-4(%rbp), %edi
	movl	-8(%rbp), %esi
	movl	$7, %edx
	xorl	%ecx, %ecx
	callq	add_capture
	movl	-4(%rbp), %edi
	movl	-8(%rbp), %esi
	movl	$11, %edx
	xorl	%ecx, %ecx
	callq	add_capture
	movl	-4(%rbp), %edi
	movl	-8(%rbp), %esi
	movl	$3, %edx
	xorl	%ecx, %ecx
	callq	add_capture
	cmpl	$3, Variant
	jne	.LBB34_8
# %bb.7:
	movl	-4(%rbp), %edi
	movl	-8(%rbp), %esi
	movl	$5, %edx
	xorl	%ecx, %ecx
	callq	add_capture
.LBB34_8:
	jmp	.LBB34_15
.LBB34_9:
	movslq	gfrom, %rax
	cmpl	$2, board(,%rax,4)
	jne	.LBB34_14
# %bb.10:
	movslq	gfrom, %rax
	cmpl	$2, Xrank(,%rax,4)
	jne	.LBB34_14
# %bb.11:
	movl	-4(%rbp), %edi
	movl	-8(%rbp), %esi
	movl	$10, %edx
	xorl	%ecx, %ecx
	callq	add_capture
	movl	-4(%rbp), %edi
	movl	-8(%rbp), %esi
	movl	$8, %edx
	xorl	%ecx, %ecx
	callq	add_capture
	movl	-4(%rbp), %edi
	movl	-8(%rbp), %esi
	movl	$12, %edx
	xorl	%ecx, %ecx
	callq	add_capture
	movl	-4(%rbp), %edi
	movl	-8(%rbp), %esi
	movl	$4, %edx
	xorl	%ecx, %ecx
	callq	add_capture
	cmpl	$3, Variant
	jne	.LBB34_13
# %bb.12:
	movl	-4(%rbp), %edi
	movl	-8(%rbp), %esi
	movl	$6, %edx
	xorl	%ecx, %ecx
	callq	add_capture
.LBB34_13:
	jmp	.LBB34_15
.LBB34_14:
	movl	-4(%rbp), %edi
	movl	-8(%rbp), %esi
	xorl	%edx, %edx
	xorl	%ecx, %ecx
	callq	add_capture
.LBB34_15:
	addq	$16, %rsp
	popq	%rbp
	retq
.Lfunc_end34:
	.size	push_pawn, .Lfunc_end34-push_pawn
	.cfi_endproc
                                        # -- End function
	.globl	push_pawn_simple        # -- Begin function push_pawn_simple
	.p2align	4, 0x90
	.type	push_pawn_simple,@function
push_pawn_simple:                       # @push_pawn_simple
	.cfi_startproc
# %bb.0:
	pushq	%rbp
	.cfi_def_cfa_offset 16
	.cfi_offset %rbp, -16
	movq	%rsp, %rbp
	.cfi_def_cfa_register %rbp
	subq	$16, %rsp
	movl	%edi, -4(%rbp)
	movl	-4(%rbp), %edi
	xorl	%esi, %esi
	callq	add_move
	addq	$16, %rsp
	popq	%rbp
	retq
.Lfunc_end35:
	.size	push_pawn_simple, .Lfunc_end35-push_pawn_simple
	.cfi_endproc
                                        # -- End function
	.globl	push_knighT             # -- Begin function push_knighT
	.p2align	4, 0x90
	.type	push_knighT,@function
push_knighT:                            # @push_knighT
	.cfi_startproc
# %bb.0:
	pushq	%rbp
	.cfi_def_cfa_offset 16
	.cfi_offset %rbp, -16
	movq	%rsp, %rbp
	.cfi_def_cfa_register %rbp
	subq	$16, %rsp
	movl	%edi, -4(%rbp)
	movslq	-4(%rbp), %rax
	cmpl	$13, board(,%rax,4)
	jne	.LBB36_3
# %bb.1:
	cmpl	$0, captures
	je	.LBB36_3
# %bb.2:
	jmp	.LBB36_9
.LBB36_3:
	movslq	-4(%rbp), %rax
	cmpl	$13, board(,%rax,4)
	jne	.LBB36_5
# %bb.4:
	movl	-4(%rbp), %edi
	xorl	%esi, %esi
	callq	add_move
	jmp	.LBB36_9
.LBB36_5:
	movslq	-4(%rbp), %rax
	movl	board(,%rax,4), %eax
	andl	$1, %eax
	movslq	gfrom, %rcx
	movl	board(,%rcx,4), %ecx
	andl	$1, %ecx
	cmpl	%ecx, %eax
	je	.LBB36_7
# %bb.6:
	movl	-4(%rbp), %edi
	movslq	-4(%rbp), %rax
	movl	board(,%rax,4), %esi
	xorl	%edx, %edx
	xorl	%ecx, %ecx
	callq	add_capture
	jmp	.LBB36_9
.LBB36_7:
	jmp	.LBB36_8
.LBB36_8:
	jmp	.LBB36_9
.LBB36_9:
	addq	$16, %rsp
	popq	%rbp
	retq
.Lfunc_end36:
	.size	push_knighT, .Lfunc_end36-push_knighT
	.cfi_endproc
                                        # -- End function
	.globl	push_slidE              # -- Begin function push_slidE
	.p2align	4, 0x90
	.type	push_slidE,@function
push_slidE:                             # @push_slidE
	.cfi_startproc
# %bb.0:
	pushq	%rbp
	.cfi_def_cfa_offset 16
	.cfi_offset %rbp, -16
	movq	%rsp, %rbp
	.cfi_def_cfa_register %rbp
	subq	$16, %rsp
	movl	%edi, -4(%rbp)
	movl	-4(%rbp), %eax
	subl	gfrom, %eax
	movl	%eax, -12(%rbp)
	movslq	gfrom, %rax
	movl	board(,%rax,4), %eax
	andl	$1, %eax
	movl	%eax, -8(%rbp)
.LBB37_1:                               # =>This Inner Loop Header: Depth=1
	movslq	-4(%rbp), %rax
	cmpl	$13, board(,%rax,4)
	jne	.LBB37_5
# %bb.2:                                #   in Loop: Header=BB37_1 Depth=1
	cmpl	$0, captures
	jne	.LBB37_4
# %bb.3:                                #   in Loop: Header=BB37_1 Depth=1
	movl	-4(%rbp), %edi
	xorl	%esi, %esi
	callq	add_move
.LBB37_4:                               #   in Loop: Header=BB37_1 Depth=1
	movl	-12(%rbp), %eax
	addl	-4(%rbp), %eax
	movl	%eax, -4(%rbp)
	jmp	.LBB37_8
.LBB37_5:
	movslq	-4(%rbp), %rax
	movl	board(,%rax,4), %eax
	andl	$1, %eax
	cmpl	-8(%rbp), %eax
	je	.LBB37_7
# %bb.6:
	movl	-4(%rbp), %edi
	movslq	-4(%rbp), %rax
	movl	board(,%rax,4), %esi
	xorl	%edx, %edx
	xorl	%ecx, %ecx
	callq	add_capture
	jmp	.LBB37_11
.LBB37_7:
	jmp	.LBB37_11
.LBB37_8:                               #   in Loop: Header=BB37_1 Depth=1
	jmp	.LBB37_9
.LBB37_9:                               #   in Loop: Header=BB37_1 Depth=1
	movslq	-4(%rbp), %rax
	cmpl	$0, board(,%rax,4)
	jne	.LBB37_1
# %bb.10:                               # %.loopexit
	jmp	.LBB37_11
.LBB37_11:
	addq	$16, %rsp
	popq	%rbp
	retq
.Lfunc_end37:
	.size	push_slidE, .Lfunc_end37-push_slidE
	.cfi_endproc
                                        # -- End function
	.globl	push_king               # -- Begin function push_king
	.p2align	4, 0x90
	.type	push_king,@function
push_king:                              # @push_king
	.cfi_startproc
# %bb.0:
	pushq	%rbp
	.cfi_def_cfa_offset 16
	.cfi_offset %rbp, -16
	movq	%rsp, %rbp
	.cfi_def_cfa_register %rbp
	subq	$16, %rsp
	movl	%edi, -4(%rbp)
	movslq	-4(%rbp), %rax
	cmpl	$0, board(,%rax,4)
	jne	.LBB38_2
# %bb.1:
	jmp	.LBB38_11
.LBB38_2:
	movslq	-4(%rbp), %rax
	cmpl	$13, board(,%rax,4)
	jne	.LBB38_5
# %bb.3:
	cmpl	$0, captures
	je	.LBB38_5
# %bb.4:
	jmp	.LBB38_11
.LBB38_5:
	movslq	-4(%rbp), %rax
	cmpl	$13, board(,%rax,4)
	jne	.LBB38_7
# %bb.6:
	movl	-4(%rbp), %edi
	xorl	%esi, %esi
	callq	add_move
	jmp	.LBB38_11
.LBB38_7:
	movslq	-4(%rbp), %rax
	movl	board(,%rax,4), %eax
	andl	$1, %eax
	movslq	gfrom, %rcx
	movl	board(,%rcx,4), %ecx
	andl	$1, %ecx
	cmpl	%ecx, %eax
	je	.LBB38_9
# %bb.8:
	movl	-4(%rbp), %edi
	movslq	-4(%rbp), %rax
	movl	board(,%rax,4), %esi
	xorl	%edx, %edx
	xorl	%ecx, %ecx
	callq	add_capture
	jmp	.LBB38_11
.LBB38_9:
	jmp	.LBB38_10
.LBB38_10:
	jmp	.LBB38_11
.LBB38_11:
	addq	$16, %rsp
	popq	%rbp
	retq
.Lfunc_end38:
	.size	push_king, .Lfunc_end38-push_king
	.cfi_endproc
                                        # -- End function
	.globl	push_king_castle        # -- Begin function push_king_castle
	.p2align	4, 0x90
	.type	push_king_castle,@function
push_king_castle:                       # @push_king_castle
	.cfi_startproc
# %bb.0:
	pushq	%rbp
	.cfi_def_cfa_offset 16
	.cfi_offset %rbp, -16
	movq	%rsp, %rbp
	.cfi_def_cfa_register %rbp
	movl	%edi, -8(%rbp)
	movl	%esi, -4(%rbp)
	movl	gfrom, %eax
	movq	genfor, %rcx
	movslq	numb_moves, %rdx
	imulq	$24, %rdx, %rdx
	addq	%rdx, %rcx
	movl	%eax, (%rcx)
	movl	-8(%rbp), %eax
	movq	genfor, %rcx
	movslq	numb_moves, %rdx
	imulq	$24, %rdx, %rdx
	addq	%rdx, %rcx
	movl	%eax, 4(%rcx)
	movq	genfor, %rax
	movslq	numb_moves, %rcx
	imulq	$24, %rcx, %rcx
	addq	%rcx, %rax
	movl	$13, 8(%rax)
	movl	-4(%rbp), %eax
	movq	genfor, %rcx
	movslq	numb_moves, %rdx
	imulq	$24, %rdx, %rdx
	addq	%rdx, %rcx
	movl	%eax, 16(%rcx)
	movq	genfor, %rax
	movslq	numb_moves, %rcx
	imulq	$24, %rcx, %rcx
	addq	%rcx, %rax
	movl	$0, 12(%rax)
	movq	genfor, %rax
	movslq	numb_moves, %rcx
	imulq	$24, %rcx, %rcx
	addq	%rcx, %rax
	movl	$0, 20(%rax)
	movl	numb_moves, %eax
	addl	$1, %eax
	movl	%eax, numb_moves
	popq	%rbp
	retq
.Lfunc_end39:
	.size	push_king_castle, .Lfunc_end39-push_king_castle
	.cfi_endproc
                                        # -- End function
	.globl	try_drop                # -- Begin function try_drop
	.p2align	4, 0x90
	.type	try_drop,@function
try_drop:                               # @try_drop
	.cfi_startproc
# %bb.0:
	pushq	%rbp
	.cfi_def_cfa_offset 16
	.cfi_offset %rbp, -16
	movq	%rsp, %rbp
	.cfi_def_cfa_register %rbp
	movl	%edi, -4(%rbp)
	movq	genfor, %rax
	movslq	numb_moves, %rcx
	imulq	$24, %rcx, %rcx
	addq	%rcx, %rax
	movl	$0, (%rax)
	movl	gfrom, %eax
	movq	genfor, %rcx
	movslq	numb_moves, %rdx
	imulq	$24, %rdx, %rdx
	addq	%rdx, %rcx
	movl	%eax, 4(%rcx)
	movq	genfor, %rax
	movslq	numb_moves, %rcx
	imulq	$24, %rcx, %rcx
	addq	%rcx, %rax
	movl	$13, 8(%rax)
	movq	genfor, %rax
	movslq	numb_moves, %rcx
	imulq	$24, %rcx, %rcx
	addq	%rcx, %rax
	movl	$0, 16(%rax)
	movl	-4(%rbp), %eax
	movq	genfor, %rcx
	movslq	numb_moves, %rdx
	imulq	$24, %rdx, %rdx
	addq	%rdx, %rcx
	movl	%eax, 12(%rcx)
	movq	genfor, %rax
	movslq	numb_moves, %rcx
	imulq	$24, %rcx, %rcx
	addq	%rcx, %rax
	movl	$0, 20(%rax)
	movl	numb_moves, %eax
	addl	$1, %eax
	movl	%eax, numb_moves
	popq	%rbp
	retq
.Lfunc_end40:
	.size	try_drop, .Lfunc_end40-try_drop
	.cfi_endproc
                                        # -- End function
	.globl	add_move                # -- Begin function add_move
	.p2align	4, 0x90
	.type	add_move,@function
add_move:                               # @add_move
	.cfi_startproc
# %bb.0:
	pushq	%rbp
	.cfi_def_cfa_offset 16
	.cfi_offset %rbp, -16
	movq	%rsp, %rbp
	.cfi_def_cfa_register %rbp
	movl	%edi, -8(%rbp)
	movl	%esi, -4(%rbp)
	movl	gfrom, %eax
	movq	genfor, %rcx
	movslq	numb_moves, %rdx
	imulq	$24, %rdx, %rdx
	addq	%rdx, %rcx
	movl	%eax, (%rcx)
	movl	-8(%rbp), %eax
	movq	genfor, %rcx
	movslq	numb_moves, %rdx
	imulq	$24, %rdx, %rdx
	addq	%rdx, %rcx
	movl	%eax, 4(%rcx)
	movq	genfor, %rax
	movslq	numb_moves, %rcx
	imulq	$24, %rcx, %rcx
	addq	%rcx, %rax
	movl	$13, 8(%rax)
	movq	genfor, %rax
	movslq	numb_moves, %rcx
	imulq	$24, %rcx, %rcx
	addq	%rcx, %rax
	movl	$0, 16(%rax)
	movl	-4(%rbp), %eax
	movq	genfor, %rcx
	movslq	numb_moves, %rdx
	imulq	$24, %rdx, %rdx
	addq	%rdx, %rcx
	movl	%eax, 12(%rcx)
	movq	genfor, %rax
	movslq	numb_moves, %rcx
	imulq	$24, %rcx, %rcx
	addq	%rcx, %rax
	movl	$0, 20(%rax)
	movl	numb_moves, %eax
	addl	$1, %eax
	movl	%eax, numb_moves
	popq	%rbp
	retq
.Lfunc_end41:
	.size	add_move, .Lfunc_end41-add_move
	.cfi_endproc
                                        # -- End function
	.globl	add_capture             # -- Begin function add_capture
	.p2align	4, 0x90
	.type	add_capture,@function
add_capture:                            # @add_capture
	.cfi_startproc
# %bb.0:
	pushq	%rbp
	.cfi_def_cfa_offset 16
	.cfi_offset %rbp, -16
	movq	%rsp, %rbp
	.cfi_def_cfa_register %rbp
	movl	%edi, -16(%rbp)
	movl	%esi, -4(%rbp)
	movl	%edx, -12(%rbp)
	movl	%ecx, -8(%rbp)
	cmpl	$3, Variant
	je	.LBB42_4
# %bb.1:
	cmpl	$5, -4(%rbp)
	je	.LBB42_3
# %bb.2:
	cmpl	$6, -4(%rbp)
	jne	.LBB42_4
.LBB42_3:
	movl	$1, kingcap
	jmp	.LBB42_8
.LBB42_4:
	cmpl	$13, -4(%rbp)
	je	.LBB42_6
# %bb.5:
	movl	$1, fcaptures
.LBB42_6:
	jmp	.LBB42_7
.LBB42_7:
	movl	gfrom, %eax
	movq	genfor, %rcx
	movslq	numb_moves, %rdx
	imulq	$24, %rdx, %rdx
	addq	%rdx, %rcx
	movl	%eax, (%rcx)
	movl	-16(%rbp), %eax
	movq	genfor, %rcx
	movslq	numb_moves, %rdx
	imulq	$24, %rdx, %rdx
	addq	%rdx, %rcx
	movl	%eax, 4(%rcx)
	movl	-4(%rbp), %eax
	movq	genfor, %rcx
	movslq	numb_moves, %rdx
	imulq	$24, %rdx, %rdx
	addq	%rdx, %rcx
	movl	%eax, 8(%rcx)
	movq	genfor, %rax
	movslq	numb_moves, %rcx
	imulq	$24, %rcx, %rcx
	addq	%rcx, %rax
	movl	$0, 16(%rax)
	movl	-12(%rbp), %eax
	movq	genfor, %rcx
	movslq	numb_moves, %rdx
	imulq	$24, %rdx, %rdx
	addq	%rdx, %rcx
	movl	%eax, 12(%rcx)
	movl	-8(%rbp), %eax
	movq	genfor, %rcx
	movslq	numb_moves, %rdx
	imulq	$24, %rdx, %rdx
	addq	%rdx, %rcx
	movl	%eax, 20(%rcx)
	movl	numb_moves, %eax
	addl	$1, %eax
	movl	%eax, numb_moves
.LBB42_8:
	popq	%rbp
	retq
.Lfunc_end42:
	.size	add_capture, .Lfunc_end42-add_capture
	.cfi_endproc
                                        # -- End function
	.globl	in_check                # -- Begin function in_check
	.p2align	4, 0x90
	.type	in_check,@function
in_check:                               # @in_check
	.cfi_startproc
# %bb.0:
	pushq	%rbp
	.cfi_def_cfa_offset 16
	.cfi_offset %rbp, -16
	movq	%rsp, %rbp
	.cfi_def_cfa_register %rbp
	subq	$16, %rsp
	cmpl	$3, Variant
	jne	.LBB43_2
# %bb.1:
	movl	$0, -4(%rbp)
	jmp	.LBB43_10
.LBB43_2:
	cmpl	$1, white_to_move
	jne	.LBB43_6
# %bb.3:
	movl	wking_loc, %edi
	xorl	%esi, %esi
	callq	is_attacked
	cmpl	$0, %eax
	je	.LBB43_5
# %bb.4:
	movl	$1, -4(%rbp)
	jmp	.LBB43_10
.LBB43_5:
	jmp	.LBB43_9
.LBB43_6:
	movl	bking_loc, %edi
	movl	$1, %esi
	callq	is_attacked
	cmpl	$0, %eax
	je	.LBB43_8
# %bb.7:
	movl	$1, -4(%rbp)
	jmp	.LBB43_10
.LBB43_8:
	jmp	.LBB43_9
.LBB43_9:
	movl	$0, -4(%rbp)
.LBB43_10:
	movl	-4(%rbp), %eax
	addq	$16, %rsp
	popq	%rbp
	retq
.Lfunc_end43:
	.size	in_check, .Lfunc_end43-in_check
	.cfi_endproc
                                        # -- End function
	.globl	f_in_check              # -- Begin function f_in_check
	.p2align	4, 0x90
	.type	f_in_check,@function
f_in_check:                             # @f_in_check
	.cfi_startproc
# %bb.0:
	pushq	%rbp
	.cfi_def_cfa_offset 16
	.cfi_offset %rbp, -16
	movq	%rsp, %rbp
	.cfi_def_cfa_register %rbp
	subq	$32, %rsp
	movq	%rdi, -32(%rbp)
	movl	%esi, -20(%rbp)
	movq	-32(%rbp), %rax
	movslq	-20(%rbp), %rcx
	imulq	$24, %rcx, %rcx
	addq	%rcx, %rax
	movl	4(%rax), %eax
	movl	%eax, -8(%rbp)
	movq	-32(%rbp), %rax
	movslq	-20(%rbp), %rcx
	imulq	$24, %rcx, %rcx
	addq	%rcx, %rax
	movl	(%rax), %eax
	movl	%eax, -16(%rbp)
	cmpl	$3, Variant
	jne	.LBB44_2
# %bb.1:
	movl	$0, -12(%rbp)
	jmp	.LBB44_491
.LBB44_2:
	cmpl	$1, white_to_move
	jne	.LBB44_247
# %bb.3:
	movslq	-8(%rbp), %rax
	movl	board(,%rax,4), %eax
	addl	$-2, %eax
	movl	%eax, %ecx
	subl	$10, %ecx
	ja	.LBB44_165
# %bb.4:
	movq	.LJTI44_1(,%rax,8), %rax
	jmpq	*%rax
.LBB44_5:
	movl	-8(%rbp), %eax
	subl	$11, %eax
	cltq
	cmpl	$5, board(,%rax,4)
	je	.LBB44_7
# %bb.6:
	movl	-8(%rbp), %eax
	subl	$13, %eax
	cltq
	cmpl	$5, board(,%rax,4)
	jne	.LBB44_8
.LBB44_7:
	movl	$1, -12(%rbp)
	jmp	.LBB44_491
.LBB44_8:
	jmp	.LBB44_165
.LBB44_9:
	movslq	-8(%rbp), %rax
	movl	Xdiagl(,%rax,4), %eax
	movslq	wking_loc, %rcx
	cmpl	Xdiagl(,%rcx,4), %eax
	jne	.LBB44_26
# %bb.10:
	movl	wking_loc, %eax
	cmpl	-8(%rbp), %eax
	jge	.LBB44_18
# %bb.11:
	movl	wking_loc, %eax
	addl	$13, %eax
	movl	%eax, -4(%rbp)
.LBB44_12:                              # =>This Inner Loop Header: Depth=1
	movslq	-4(%rbp), %rax
	cmpl	$13, board(,%rax,4)
	jne	.LBB44_15
# %bb.13:                               #   in Loop: Header=BB44_12 Depth=1
	jmp	.LBB44_14
.LBB44_14:                              #   in Loop: Header=BB44_12 Depth=1
	movl	-4(%rbp), %eax
	addl	$13, %eax
	movl	%eax, -4(%rbp)
	jmp	.LBB44_12
.LBB44_15:
	movl	-4(%rbp), %eax
	cmpl	-8(%rbp), %eax
	jne	.LBB44_17
# %bb.16:
	movl	$1, -12(%rbp)
	jmp	.LBB44_491
.LBB44_17:
	jmp	.LBB44_25
.LBB44_18:
	movl	wking_loc, %eax
	subl	$13, %eax
	movl	%eax, -4(%rbp)
.LBB44_19:                              # =>This Inner Loop Header: Depth=1
	movslq	-4(%rbp), %rax
	cmpl	$13, board(,%rax,4)
	jne	.LBB44_22
# %bb.20:                               #   in Loop: Header=BB44_19 Depth=1
	jmp	.LBB44_21
.LBB44_21:                              #   in Loop: Header=BB44_19 Depth=1
	movl	-4(%rbp), %eax
	subl	$13, %eax
	movl	%eax, -4(%rbp)
	jmp	.LBB44_19
.LBB44_22:
	movl	-4(%rbp), %eax
	cmpl	-8(%rbp), %eax
	jne	.LBB44_24
# %bb.23:
	movl	$1, -12(%rbp)
	jmp	.LBB44_491
.LBB44_24:
	jmp	.LBB44_25
.LBB44_25:
	jmp	.LBB44_44
.LBB44_26:
	movslq	-8(%rbp), %rax
	movl	Xdiagr(,%rax,4), %eax
	movslq	wking_loc, %rcx
	cmpl	Xdiagr(,%rcx,4), %eax
	jne	.LBB44_43
# %bb.27:
	movl	wking_loc, %eax
	cmpl	-8(%rbp), %eax
	jge	.LBB44_35
# %bb.28:
	movl	wking_loc, %eax
	addl	$11, %eax
	movl	%eax, -4(%rbp)
.LBB44_29:                              # =>This Inner Loop Header: Depth=1
	movslq	-4(%rbp), %rax
	cmpl	$13, board(,%rax,4)
	jne	.LBB44_32
# %bb.30:                               #   in Loop: Header=BB44_29 Depth=1
	jmp	.LBB44_31
.LBB44_31:                              #   in Loop: Header=BB44_29 Depth=1
	movl	-4(%rbp), %eax
	addl	$11, %eax
	movl	%eax, -4(%rbp)
	jmp	.LBB44_29
.LBB44_32:
	movl	-4(%rbp), %eax
	cmpl	-8(%rbp), %eax
	jne	.LBB44_34
# %bb.33:
	movl	$1, -12(%rbp)
	jmp	.LBB44_491
.LBB44_34:
	jmp	.LBB44_42
.LBB44_35:
	movl	wking_loc, %eax
	subl	$11, %eax
	movl	%eax, -4(%rbp)
.LBB44_36:                              # =>This Inner Loop Header: Depth=1
	movslq	-4(%rbp), %rax
	cmpl	$13, board(,%rax,4)
	jne	.LBB44_39
# %bb.37:                               #   in Loop: Header=BB44_36 Depth=1
	jmp	.LBB44_38
.LBB44_38:                              #   in Loop: Header=BB44_36 Depth=1
	movl	-4(%rbp), %eax
	subl	$11, %eax
	movl	%eax, -4(%rbp)
	jmp	.LBB44_36
.LBB44_39:
	movl	-4(%rbp), %eax
	cmpl	-8(%rbp), %eax
	jne	.LBB44_41
# %bb.40:
	movl	$1, -12(%rbp)
	jmp	.LBB44_491
.LBB44_41:
	jmp	.LBB44_42
.LBB44_42:
	jmp	.LBB44_43
.LBB44_43:
	jmp	.LBB44_44
.LBB44_44:
	jmp	.LBB44_165
.LBB44_45:
	movslq	-8(%rbp), %rax
	movl	Xfile(,%rax,4), %eax
	movslq	wking_loc, %rcx
	cmpl	Xfile(,%rcx,4), %eax
	jne	.LBB44_62
# %bb.46:
	movl	wking_loc, %eax
	cmpl	-8(%rbp), %eax
	jge	.LBB44_54
# %bb.47:
	movl	wking_loc, %eax
	addl	$12, %eax
	movl	%eax, -4(%rbp)
.LBB44_48:                              # =>This Inner Loop Header: Depth=1
	movslq	-4(%rbp), %rax
	cmpl	$13, board(,%rax,4)
	jne	.LBB44_51
# %bb.49:                               #   in Loop: Header=BB44_48 Depth=1
	jmp	.LBB44_50
.LBB44_50:                              #   in Loop: Header=BB44_48 Depth=1
	movl	-4(%rbp), %eax
	addl	$12, %eax
	movl	%eax, -4(%rbp)
	jmp	.LBB44_48
.LBB44_51:
	movl	-4(%rbp), %eax
	cmpl	-8(%rbp), %eax
	jne	.LBB44_53
# %bb.52:
	movl	$1, -12(%rbp)
	jmp	.LBB44_491
.LBB44_53:
	jmp	.LBB44_61
.LBB44_54:
	movl	wking_loc, %eax
	subl	$12, %eax
	movl	%eax, -4(%rbp)
.LBB44_55:                              # =>This Inner Loop Header: Depth=1
	movslq	-4(%rbp), %rax
	cmpl	$13, board(,%rax,4)
	jne	.LBB44_58
# %bb.56:                               #   in Loop: Header=BB44_55 Depth=1
	jmp	.LBB44_57
.LBB44_57:                              #   in Loop: Header=BB44_55 Depth=1
	movl	-4(%rbp), %eax
	subl	$12, %eax
	movl	%eax, -4(%rbp)
	jmp	.LBB44_55
.LBB44_58:
	movl	-4(%rbp), %eax
	cmpl	-8(%rbp), %eax
	jne	.LBB44_60
# %bb.59:
	movl	$1, -12(%rbp)
	jmp	.LBB44_491
.LBB44_60:
	jmp	.LBB44_61
.LBB44_61:
	jmp	.LBB44_80
.LBB44_62:
	movslq	-8(%rbp), %rax
	movl	Xrank(,%rax,4), %eax
	movslq	wking_loc, %rcx
	cmpl	Xrank(,%rcx,4), %eax
	jne	.LBB44_79
# %bb.63:
	movl	wking_loc, %eax
	cmpl	-8(%rbp), %eax
	jge	.LBB44_71
# %bb.64:
	movl	wking_loc, %eax
	addl	$1, %eax
	movl	%eax, -4(%rbp)
.LBB44_65:                              # =>This Inner Loop Header: Depth=1
	movslq	-4(%rbp), %rax
	cmpl	$13, board(,%rax,4)
	jne	.LBB44_68
# %bb.66:                               #   in Loop: Header=BB44_65 Depth=1
	jmp	.LBB44_67
.LBB44_67:                              #   in Loop: Header=BB44_65 Depth=1
	movl	-4(%rbp), %eax
	addl	$1, %eax
	movl	%eax, -4(%rbp)
	jmp	.LBB44_65
.LBB44_68:
	movl	-4(%rbp), %eax
	cmpl	-8(%rbp), %eax
	jne	.LBB44_70
# %bb.69:
	movl	$1, -12(%rbp)
	jmp	.LBB44_491
.LBB44_70:
	jmp	.LBB44_78
.LBB44_71:
	movl	wking_loc, %eax
	subl	$1, %eax
	movl	%eax, -4(%rbp)
.LBB44_72:                              # =>This Inner Loop Header: Depth=1
	movslq	-4(%rbp), %rax
	cmpl	$13, board(,%rax,4)
	jne	.LBB44_75
# %bb.73:                               #   in Loop: Header=BB44_72 Depth=1
	jmp	.LBB44_74
.LBB44_74:                              #   in Loop: Header=BB44_72 Depth=1
	movl	-4(%rbp), %eax
	addl	$-1, %eax
	movl	%eax, -4(%rbp)
	jmp	.LBB44_72
.LBB44_75:
	movl	-4(%rbp), %eax
	cmpl	-8(%rbp), %eax
	jne	.LBB44_77
# %bb.76:
	movl	$1, -12(%rbp)
	jmp	.LBB44_491
.LBB44_77:
	jmp	.LBB44_78
.LBB44_78:
	jmp	.LBB44_79
.LBB44_79:
	jmp	.LBB44_80
.LBB44_80:
	jmp	.LBB44_165
.LBB44_81:
	movl	$0, -4(%rbp)
.LBB44_82:                              # =>This Inner Loop Header: Depth=1
	cmpl	$8, -4(%rbp)
	jge	.LBB44_87
# %bb.83:                               #   in Loop: Header=BB44_82 Depth=1
	movl	wking_loc, %eax
	movslq	-4(%rbp), %rcx
	addl	f_in_check.knight_o(,%rcx,4), %eax
	cmpl	-8(%rbp), %eax
	jne	.LBB44_85
# %bb.84:
	movl	$1, -12(%rbp)
	jmp	.LBB44_491
.LBB44_85:                              #   in Loop: Header=BB44_82 Depth=1
	jmp	.LBB44_86
.LBB44_86:                              #   in Loop: Header=BB44_82 Depth=1
	movl	-4(%rbp), %eax
	addl	$1, %eax
	movl	%eax, -4(%rbp)
	jmp	.LBB44_82
.LBB44_87:
	jmp	.LBB44_165
.LBB44_88:
	movslq	-8(%rbp), %rax
	movl	Xfile(,%rax,4), %eax
	movslq	wking_loc, %rcx
	cmpl	Xfile(,%rcx,4), %eax
	jne	.LBB44_105
# %bb.89:
	movl	wking_loc, %eax
	cmpl	-8(%rbp), %eax
	jge	.LBB44_97
# %bb.90:
	movl	wking_loc, %eax
	addl	$12, %eax
	movl	%eax, -4(%rbp)
.LBB44_91:                              # =>This Inner Loop Header: Depth=1
	movslq	-4(%rbp), %rax
	cmpl	$13, board(,%rax,4)
	jne	.LBB44_94
# %bb.92:                               #   in Loop: Header=BB44_91 Depth=1
	jmp	.LBB44_93
.LBB44_93:                              #   in Loop: Header=BB44_91 Depth=1
	movl	-4(%rbp), %eax
	addl	$12, %eax
	movl	%eax, -4(%rbp)
	jmp	.LBB44_91
.LBB44_94:
	movl	-4(%rbp), %eax
	cmpl	-8(%rbp), %eax
	jne	.LBB44_96
# %bb.95:
	movl	$1, -12(%rbp)
	jmp	.LBB44_491
.LBB44_96:
	jmp	.LBB44_104
.LBB44_97:
	movl	wking_loc, %eax
	subl	$12, %eax
	movl	%eax, -4(%rbp)
.LBB44_98:                              # =>This Inner Loop Header: Depth=1
	movslq	-4(%rbp), %rax
	cmpl	$13, board(,%rax,4)
	jne	.LBB44_101
# %bb.99:                               #   in Loop: Header=BB44_98 Depth=1
	jmp	.LBB44_100
.LBB44_100:                             #   in Loop: Header=BB44_98 Depth=1
	movl	-4(%rbp), %eax
	subl	$12, %eax
	movl	%eax, -4(%rbp)
	jmp	.LBB44_98
.LBB44_101:
	movl	-4(%rbp), %eax
	cmpl	-8(%rbp), %eax
	jne	.LBB44_103
# %bb.102:
	movl	$1, -12(%rbp)
	jmp	.LBB44_491
.LBB44_103:
	jmp	.LBB44_104
.LBB44_104:
	jmp	.LBB44_159
.LBB44_105:
	movslq	-8(%rbp), %rax
	movl	Xrank(,%rax,4), %eax
	movslq	wking_loc, %rcx
	cmpl	Xrank(,%rcx,4), %eax
	jne	.LBB44_122
# %bb.106:
	movl	wking_loc, %eax
	cmpl	-8(%rbp), %eax
	jge	.LBB44_114
# %bb.107:
	movl	wking_loc, %eax
	addl	$1, %eax
	movl	%eax, -4(%rbp)
.LBB44_108:                             # =>This Inner Loop Header: Depth=1
	movslq	-4(%rbp), %rax
	cmpl	$13, board(,%rax,4)
	jne	.LBB44_111
# %bb.109:                              #   in Loop: Header=BB44_108 Depth=1
	jmp	.LBB44_110
.LBB44_110:                             #   in Loop: Header=BB44_108 Depth=1
	movl	-4(%rbp), %eax
	addl	$1, %eax
	movl	%eax, -4(%rbp)
	jmp	.LBB44_108
.LBB44_111:
	movl	-4(%rbp), %eax
	cmpl	-8(%rbp), %eax
	jne	.LBB44_113
# %bb.112:
	movl	$1, -12(%rbp)
	jmp	.LBB44_491
.LBB44_113:
	jmp	.LBB44_121
.LBB44_114:
	movl	wking_loc, %eax
	subl	$1, %eax
	movl	%eax, -4(%rbp)
.LBB44_115:                             # =>This Inner Loop Header: Depth=1
	movslq	-4(%rbp), %rax
	cmpl	$13, board(,%rax,4)
	jne	.LBB44_118
# %bb.116:                              #   in Loop: Header=BB44_115 Depth=1
	jmp	.LBB44_117
.LBB44_117:                             #   in Loop: Header=BB44_115 Depth=1
	movl	-4(%rbp), %eax
	subl	$1, %eax
	movl	%eax, -4(%rbp)
	jmp	.LBB44_115
.LBB44_118:
	movl	-4(%rbp), %eax
	cmpl	-8(%rbp), %eax
	jne	.LBB44_120
# %bb.119:
	movl	$1, -12(%rbp)
	jmp	.LBB44_491
.LBB44_120:
	jmp	.LBB44_121
.LBB44_121:
	jmp	.LBB44_158
.LBB44_122:
	movslq	-8(%rbp), %rax
	movl	Xdiagl(,%rax,4), %eax
	movslq	wking_loc, %rcx
	cmpl	Xdiagl(,%rcx,4), %eax
	jne	.LBB44_139
# %bb.123:
	movl	wking_loc, %eax
	cmpl	-8(%rbp), %eax
	jge	.LBB44_131
# %bb.124:
	movl	wking_loc, %eax
	addl	$13, %eax
	movl	%eax, -4(%rbp)
.LBB44_125:                             # =>This Inner Loop Header: Depth=1
	movslq	-4(%rbp), %rax
	cmpl	$13, board(,%rax,4)
	jne	.LBB44_128
# %bb.126:                              #   in Loop: Header=BB44_125 Depth=1
	jmp	.LBB44_127
.LBB44_127:                             #   in Loop: Header=BB44_125 Depth=1
	movl	-4(%rbp), %eax
	addl	$13, %eax
	movl	%eax, -4(%rbp)
	jmp	.LBB44_125
.LBB44_128:
	movl	-4(%rbp), %eax
	cmpl	-8(%rbp), %eax
	jne	.LBB44_130
# %bb.129:
	movl	$1, -12(%rbp)
	jmp	.LBB44_491
.LBB44_130:
	jmp	.LBB44_138
.LBB44_131:
	movl	wking_loc, %eax
	subl	$13, %eax
	movl	%eax, -4(%rbp)
.LBB44_132:                             # =>This Inner Loop Header: Depth=1
	movslq	-4(%rbp), %rax
	cmpl	$13, board(,%rax,4)
	jne	.LBB44_135
# %bb.133:                              #   in Loop: Header=BB44_132 Depth=1
	jmp	.LBB44_134
.LBB44_134:                             #   in Loop: Header=BB44_132 Depth=1
	movl	-4(%rbp), %eax
	subl	$13, %eax
	movl	%eax, -4(%rbp)
	jmp	.LBB44_132
.LBB44_135:
	movl	-4(%rbp), %eax
	cmpl	-8(%rbp), %eax
	jne	.LBB44_137
# %bb.136:
	movl	$1, -12(%rbp)
	jmp	.LBB44_491
.LBB44_137:
	jmp	.LBB44_138
.LBB44_138:
	jmp	.LBB44_157
.LBB44_139:
	movslq	-8(%rbp), %rax
	movl	Xdiagr(,%rax,4), %eax
	movslq	wking_loc, %rcx
	cmpl	Xdiagr(,%rcx,4), %eax
	jne	.LBB44_156
# %bb.140:
	movl	wking_loc, %eax
	cmpl	-8(%rbp), %eax
	jge	.LBB44_148
# %bb.141:
	movl	wking_loc, %eax
	addl	$11, %eax
	movl	%eax, -4(%rbp)
.LBB44_142:                             # =>This Inner Loop Header: Depth=1
	movslq	-4(%rbp), %rax
	cmpl	$13, board(,%rax,4)
	jne	.LBB44_145
# %bb.143:                              #   in Loop: Header=BB44_142 Depth=1
	jmp	.LBB44_144
.LBB44_144:                             #   in Loop: Header=BB44_142 Depth=1
	movl	-4(%rbp), %eax
	addl	$11, %eax
	movl	%eax, -4(%rbp)
	jmp	.LBB44_142
.LBB44_145:
	movl	-4(%rbp), %eax
	cmpl	-8(%rbp), %eax
	jne	.LBB44_147
# %bb.146:
	movl	$1, -12(%rbp)
	jmp	.LBB44_491
.LBB44_147:
	jmp	.LBB44_155
.LBB44_148:
	movl	wking_loc, %eax
	subl	$11, %eax
	movl	%eax, -4(%rbp)
.LBB44_149:                             # =>This Inner Loop Header: Depth=1
	movslq	-4(%rbp), %rax
	cmpl	$13, board(,%rax,4)
	jne	.LBB44_152
# %bb.150:                              #   in Loop: Header=BB44_149 Depth=1
	jmp	.LBB44_151
.LBB44_151:                             #   in Loop: Header=BB44_149 Depth=1
	movl	-4(%rbp), %eax
	subl	$11, %eax
	movl	%eax, -4(%rbp)
	jmp	.LBB44_149
.LBB44_152:
	movl	-4(%rbp), %eax
	cmpl	-8(%rbp), %eax
	jne	.LBB44_154
# %bb.153:
	movl	$1, -12(%rbp)
	jmp	.LBB44_491
.LBB44_154:
	jmp	.LBB44_155
.LBB44_155:
	jmp	.LBB44_156
.LBB44_156:
	jmp	.LBB44_157
.LBB44_157:
	jmp	.LBB44_158
.LBB44_158:
	jmp	.LBB44_159
.LBB44_159:
	jmp	.LBB44_165
.LBB44_160:
	movq	-32(%rbp), %rax
	movslq	-20(%rbp), %rcx
	imulq	$24, %rcx, %rcx
	addq	%rcx, %rax
	cmpl	$0, 16(%rax)
	je	.LBB44_164
# %bb.161:
	movl	wking_loc, %edi
	xorl	%esi, %esi
	callq	is_attacked
	cmpl	$0, %eax
	je	.LBB44_163
# %bb.162:
	movl	$1, -12(%rbp)
	jmp	.LBB44_491
.LBB44_163:
	movl	$0, -12(%rbp)
	jmp	.LBB44_491
.LBB44_164:
	jmp	.LBB44_165
.LBB44_165:
	cmpl	$0, -16(%rbp)
	jne	.LBB44_167
# %bb.166:
	movl	$0, -12(%rbp)
	jmp	.LBB44_491
.LBB44_167:
	movslq	-16(%rbp), %rax
	movl	Xrank(,%rax,4), %eax
	movslq	wking_loc, %rcx
	cmpl	Xrank(,%rcx,4), %eax
	jne	.LBB44_186
# %bb.168:
	movl	wking_loc, %eax
	cmpl	-16(%rbp), %eax
	jle	.LBB44_177
# %bb.169:
	movl	wking_loc, %eax
	subl	$1, %eax
	movl	%eax, -4(%rbp)
.LBB44_170:                             # =>This Inner Loop Header: Depth=1
	movslq	-4(%rbp), %rax
	cmpl	$13, board(,%rax,4)
	jne	.LBB44_173
# %bb.171:                              #   in Loop: Header=BB44_170 Depth=1
	jmp	.LBB44_172
.LBB44_172:                             #   in Loop: Header=BB44_170 Depth=1
	movl	-4(%rbp), %eax
	addl	$-1, %eax
	movl	%eax, -4(%rbp)
	jmp	.LBB44_170
.LBB44_173:
	movslq	-4(%rbp), %rax
	cmpl	$8, board(,%rax,4)
	je	.LBB44_175
# %bb.174:
	movslq	-4(%rbp), %rax
	cmpl	$10, board(,%rax,4)
	jne	.LBB44_176
.LBB44_175:
	movl	$1, -12(%rbp)
	jmp	.LBB44_491
.LBB44_176:
	jmp	.LBB44_185
.LBB44_177:
	movl	wking_loc, %eax
	addl	$1, %eax
	movl	%eax, -4(%rbp)
.LBB44_178:                             # =>This Inner Loop Header: Depth=1
	movslq	-4(%rbp), %rax
	cmpl	$13, board(,%rax,4)
	jne	.LBB44_181
# %bb.179:                              #   in Loop: Header=BB44_178 Depth=1
	jmp	.LBB44_180
.LBB44_180:                             #   in Loop: Header=BB44_178 Depth=1
	movl	-4(%rbp), %eax
	addl	$1, %eax
	movl	%eax, -4(%rbp)
	jmp	.LBB44_178
.LBB44_181:
	movslq	-4(%rbp), %rax
	cmpl	$8, board(,%rax,4)
