	.text
	.file	"llvm-link"
	.globl	BZ2_blockSort           # -- Begin function BZ2_blockSort
	.p2align	4, 0x90
	.type	BZ2_blockSort,@function
BZ2_blockSort:                          # @BZ2_blockSort
	.cfi_startproc
# %bb.0:
	pushq	%rbp
	.cfi_def_cfa_offset 16
	.cfi_offset %rbp, -16
	movq	%rsp, %rbp
	.cfi_def_cfa_register %rbp
	subq	$80, %rsp
	movq	%rdi, -16(%rbp)
	movq	-16(%rbp), %rax
	movq	56(%rax), %rax
	movq	%rax, -56(%rbp)
	movq	-16(%rbp), %rax
	movq	64(%rax), %rax
	movq	%rax, -48(%rbp)
	movq	-16(%rbp), %rax
	movq	40(%rax), %rax
	movq	%rax, -40(%rbp)
	movq	-16(%rbp), %rax
	movl	108(%rax), %eax
	movl	%eax, -8(%rbp)
	movq	-16(%rbp), %rax
	movl	656(%rax), %eax
	movl	%eax, -24(%rbp)
	movq	-16(%rbp), %rax
	movl	88(%rax), %eax
	movl	%eax, -20(%rbp)
	cmpl	$10000, -8(%rbp)        # imm = 0x2710
	jge	.LBB0_2
# %bb.1:
	movq	-16(%rbp), %rax
	movq	24(%rax), %rdi
	movq	-16(%rbp), %rax
	movq	32(%rax), %rsi
	movq	-40(%rbp), %rdx
	movl	-8(%rbp), %ecx
	movl	-24(%rbp), %r8d
	callq	fallbackSort
	jmp	.LBB0_18
.LBB0_2:
	movl	-8(%rbp), %eax
	addl	$34, %eax
	movl	%eax, -4(%rbp)
	movl	-4(%rbp), %eax
	andl	$1, %eax
	cmpl	$0, %eax
	je	.LBB0_4
# %bb.3:
	movl	-4(%rbp), %eax
	addl	$1, %eax
	movl	%eax, -4(%rbp)
.LBB0_4:
	movq	-48(%rbp), %rax
	movslq	-4(%rbp), %rcx
	addq	%rcx, %rax
	movq	%rax, -64(%rbp)
	cmpl	$1, -20(%rbp)
	jge	.LBB0_6
# %bb.5:
	movl	$1, -20(%rbp)
.LBB0_6:
	cmpl	$100, -20(%rbp)
	jle	.LBB0_8
# %bb.7:
	movl	$100, -20(%rbp)
.LBB0_8:
	leaq	-28(%rbp), %r10
	movl	$3, %ecx
	movl	-8(%rbp), %esi
	movl	-20(%rbp), %eax
	subl	$1, %eax
	cltd
	idivl	%ecx
	imull	%eax, %esi
	movl	%esi, -32(%rbp)
	movl	-32(%rbp), %eax
	movl	%eax, -28(%rbp)
	movq	-56(%rbp), %rdi
	movq	-48(%rbp), %rsi
	movq	-64(%rbp), %rdx
	movq	-40(%rbp), %rcx
	movl	-8(%rbp), %r8d
	movl	-24(%rbp), %r9d
	movq	%r10, (%rsp)
	callq	mainSort
	cmpl	$3, -24(%rbp)
	jl	.LBB0_13
# %bb.9:
	movq	stderr, %rdi
	movl	-32(%rbp), %edx
	subl	-28(%rbp), %edx
	movl	-8(%rbp), %ecx
	movl	-32(%rbp), %eax
	subl	-28(%rbp), %eax
	cvtsi2ssl	%eax, %xmm0
	cmpl	$0, -8(%rbp)
	jne	.LBB0_11
# %bb.10:
	movl	$1, %eax
	jmp	.LBB0_12
.LBB0_11:
	movl	-8(%rbp), %eax
.LBB0_12:
	movabsq	$.L.str, %rsi
	cvtsi2ssl	%eax, %xmm1
	divss	%xmm1, %xmm0
	cvtss2sd	%xmm0, %xmm0
	movb	$1, %al
	callq	fprintf
.LBB0_13:
	cmpl	$0, -28(%rbp)
	jge	.LBB0_17
# %bb.14:
	cmpl	$2, -24(%rbp)
	jl	.LBB0_16
# %bb.15:
	movabsq	$.L.str.1, %rsi
	movq	stderr, %rdi
	movb	$0, %al
	callq	fprintf
.LBB0_16:
	movq	-16(%rbp), %rax
	movq	24(%rax), %rdi
	movq	-16(%rbp), %rax
	movq	32(%rax), %rsi
	movq	-40(%rbp), %rdx
	movl	-8(%rbp), %ecx
	movl	-24(%rbp), %r8d
	callq	fallbackSort
.LBB0_17:
	jmp	.LBB0_18
.LBB0_18:
	movq	-16(%rbp), %rax
	movl	$-1, 48(%rax)
	movl	$0, -4(%rbp)
.LBB0_19:                               # =>This Inner Loop Header: Depth=1
	movl	-4(%rbp), %eax
	movq	-16(%rbp), %rcx
	cmpl	108(%rcx), %eax
	jge	.LBB0_24
# %bb.20:                               #   in Loop: Header=BB0_19 Depth=1
	movq	-56(%rbp), %rax
	movslq	-4(%rbp), %rcx
	cmpl	$0, (%rax,%rcx,4)
	jne	.LBB0_22
# %bb.21:
	movl	-4(%rbp), %eax
	movq	-16(%rbp), %rcx
	movl	%eax, 48(%rcx)
	jmp	.LBB0_25
.LBB0_22:                               #   in Loop: Header=BB0_19 Depth=1
	jmp	.LBB0_23
.LBB0_23:                               #   in Loop: Header=BB0_19 Depth=1
	movl	-4(%rbp), %eax
	addl	$1, %eax
	movl	%eax, -4(%rbp)
	jmp	.LBB0_19
.LBB0_24:                               # %.loopexit
	jmp	.LBB0_25
.LBB0_25:
	movq	-16(%rbp), %rax
	cmpl	$-1, 48(%rax)
	jne	.LBB0_27
# %bb.26:
	movl	$1003, %edi             # imm = 0x3EB
	callq	BZ2_bz__AssertH__fail
.LBB0_27:
	addq	$80, %rsp
	popq	%rbp
	retq
.Lfunc_end0:
	.size	BZ2_blockSort, .Lfunc_end0-BZ2_blockSort
	.cfi_endproc
                                        # -- End function
	.p2align	4, 0x90         # -- Begin function fallbackSort
	.type	fallbackSort,@function
fallbackSort:                           # @fallbackSort
	.cfi_startproc
# %bb.0:
	pushq	%rbp
	.cfi_def_cfa_offset 16
	.cfi_offset %rbp, -16
	movq	%rsp, %rbp
	.cfi_def_cfa_register %rbp
	subq	$2144, %rsp             # imm = 0x860
	movq	%rdi, -56(%rbp)
	movq	%rsi, -72(%rbp)
	movq	%rdx, -32(%rbp)
	movl	%ecx, -12(%rbp)
	movl	%r8d, -48(%rbp)
	movq	-72(%rbp), %rax
	movq	%rax, -80(%rbp)
	cmpl	$4, -48(%rbp)
	jl	.LBB1_2
# %bb.1:
	movabsq	$.L.str.2, %rsi
	movq	stderr, %rdi
	movb	$0, %al
	callq	fprintf
.LBB1_2:
	movl	$0, -4(%rbp)
.LBB1_3:                                # =>This Inner Loop Header: Depth=1
	cmpl	$257, -4(%rbp)          # imm = 0x101
	jge	.LBB1_6
# %bb.4:                                #   in Loop: Header=BB1_3 Depth=1
	movslq	-4(%rbp), %rax
	movl	$0, -1120(%rbp,%rax,4)
# %bb.5:                                #   in Loop: Header=BB1_3 Depth=1
	movl	-4(%rbp), %eax
	addl	$1, %eax
	movl	%eax, -4(%rbp)
	jmp	.LBB1_3
.LBB1_6:
	movl	$0, -4(%rbp)
.LBB1_7:                                # =>This Inner Loop Header: Depth=1
	movl	-4(%rbp), %eax
	cmpl	-12(%rbp), %eax
	jge	.LBB1_10
# %bb.8:                                #   in Loop: Header=BB1_7 Depth=1
	movq	-80(%rbp), %rax
	movslq	-4(%rbp), %rcx
	movzbl	(%rax,%rcx), %eax
	movl	-1120(%rbp,%rax,4), %ecx
	addl	$1, %ecx
	movl	%ecx, -1120(%rbp,%rax,4)
# %bb.9:                                #   in Loop: Header=BB1_7 Depth=1
	movl	-4(%rbp), %eax
	addl	$1, %eax
	movl	%eax, -4(%rbp)
	jmp	.LBB1_7
.LBB1_10:
	movl	$0, -4(%rbp)
.LBB1_11:                               # =>This Inner Loop Header: Depth=1
	cmpl	$256, -4(%rbp)          # imm = 0x100
	jge	.LBB1_14
# %bb.12:                               #   in Loop: Header=BB1_11 Depth=1
	movslq	-4(%rbp), %rax
	movl	-1120(%rbp,%rax,4), %eax
	movslq	-4(%rbp), %rcx
	movl	%eax, -2144(%rbp,%rcx,4)
# %bb.13:                               #   in Loop: Header=BB1_11 Depth=1
	movl	-4(%rbp), %eax
	addl	$1, %eax
	movl	%eax, -4(%rbp)
	jmp	.LBB1_11
.LBB1_14:
	movl	$1, -4(%rbp)
.LBB1_15:                               # =>This Inner Loop Header: Depth=1
	cmpl	$257, -4(%rbp)          # imm = 0x101
	jge	.LBB1_18
# %bb.16:                               #   in Loop: Header=BB1_15 Depth=1
	movl	-4(%rbp), %eax
	subl	$1, %eax
	cltq
	movl	-1120(%rbp,%rax,4), %eax
	movslq	-4(%rbp), %rcx
	addl	-1120(%rbp,%rcx,4), %eax
	movl	%eax, -1120(%rbp,%rcx,4)
# %bb.17:                               #   in Loop: Header=BB1_15 Depth=1
	movl	-4(%rbp), %eax
	addl	$1, %eax
	movl	%eax, -4(%rbp)
	jmp	.LBB1_15
.LBB1_18:
	movl	$0, -4(%rbp)
.LBB1_19:                               # =>This Inner Loop Header: Depth=1
	movl	-4(%rbp), %eax
	cmpl	-12(%rbp), %eax
	jge	.LBB1_22
# %bb.20:                               #   in Loop: Header=BB1_19 Depth=1
	movq	-80(%rbp), %rax
	movslq	-4(%rbp), %rcx
	movzbl	(%rax,%rcx), %eax
	movl	%eax, -16(%rbp)
	movslq	-16(%rbp), %rax
	movl	-1120(%rbp,%rax,4), %eax
	subl	$1, %eax
	movl	%eax, -8(%rbp)
	movl	-8(%rbp), %eax
	movslq	-16(%rbp), %rcx
	movl	%eax, -1120(%rbp,%rcx,4)
	movl	-4(%rbp), %eax
	movq	-56(%rbp), %rcx
	movslq	-8(%rbp), %rdx
	movl	%eax, (%rcx,%rdx,4)
# %bb.21:                               #   in Loop: Header=BB1_19 Depth=1
	movl	-4(%rbp), %eax
	addl	$1, %eax
	movl	%eax, -4(%rbp)
	jmp	.LBB1_19
.LBB1_22:
	movl	$32, %ecx
	movl	-12(%rbp), %eax
	cltd
	idivl	%ecx
	addl	$2, %eax
	movl	%eax, -84(%rbp)
	movl	$0, -4(%rbp)
.LBB1_23:                               # =>This Inner Loop Header: Depth=1
	movl	-4(%rbp), %eax
	cmpl	-84(%rbp), %eax
	jge	.LBB1_26
# %bb.24:                               #   in Loop: Header=BB1_23 Depth=1
	movq	-32(%rbp), %rax
	movslq	-4(%rbp), %rcx
	movl	$0, (%rax,%rcx,4)
# %bb.25:                               #   in Loop: Header=BB1_23 Depth=1
	movl	-4(%rbp), %eax
	addl	$1, %eax
	movl	%eax, -4(%rbp)
	jmp	.LBB1_23
.LBB1_26:
	movl	$0, -4(%rbp)
.LBB1_27:                               # =>This Inner Loop Header: Depth=1
	cmpl	$256, -4(%rbp)          # imm = 0x100
	jge	.LBB1_30
# %bb.28:                               #   in Loop: Header=BB1_27 Depth=1
	movl	$1, %eax
	movslq	-4(%rbp), %rcx
	movl	-1120(%rbp,%rcx,4), %ecx
	andl	$31, %ecx
                                        # kill: def %cl killed %ecx
	shll	%cl, %eax
	movq	-32(%rbp), %rcx
	movslq	-4(%rbp), %rdx
	movl	-1120(%rbp,%rdx,4), %edx
	sarl	$5, %edx
	movslq	%edx, %rdx
	orl	(%rcx,%rdx,4), %eax
	movl	%eax, (%rcx,%rdx,4)
# %bb.29:                               #   in Loop: Header=BB1_27 Depth=1
	movl	-4(%rbp), %eax
	addl	$1, %eax
	movl	%eax, -4(%rbp)
	jmp	.LBB1_27
.LBB1_30:
	movl	$0, -4(%rbp)
.LBB1_31:                               # =>This Inner Loop Header: Depth=1
	cmpl	$32, -4(%rbp)
	jge	.LBB1_34
# %bb.32:                               #   in Loop: Header=BB1_31 Depth=1
	movl	$1, %eax
	movl	-12(%rbp), %ecx
	movl	-4(%rbp), %edx
	shll	$1, %edx
	addl	%edx, %ecx
	andl	$31, %ecx
                                        # kill: def %cl killed %ecx
	movl	$1, %edx
	shll	%cl, %edx
	movq	-32(%rbp), %rcx
	movl	-12(%rbp), %esi
	movl	-4(%rbp), %edi
	shll	$1, %edi
	addl	%edi, %esi
	sarl	$5, %esi
	movslq	%esi, %rsi
	orl	(%rcx,%rsi,4), %edx
	movl	%edx, (%rcx,%rsi,4)
	movl	-12(%rbp), %ecx
	movl	-4(%rbp), %edx
	shll	$1, %edx
	addl	%edx, %ecx
	addl	$1, %ecx
	andl	$31, %ecx
                                        # kill: def %cl killed %ecx
	shll	%cl, %eax
	xorl	$-1, %eax
	movq	-32(%rbp), %rcx
	movl	-12(%rbp), %edx
	movl	-4(%rbp), %esi
	shll	$1, %esi
	addl	%esi, %edx
	addl	$1, %edx
	sarl	$5, %edx
	movslq	%edx, %rdx
	andl	(%rcx,%rdx,4), %eax
	movl	%eax, (%rcx,%rdx,4)
# %bb.33:                               #   in Loop: Header=BB1_31 Depth=1
	movl	-4(%rbp), %eax
	addl	$1, %eax
	movl	%eax, -4(%rbp)
	jmp	.LBB1_31
.LBB1_34:
	movl	$1, -40(%rbp)
.LBB1_35:                               # =>This Loop Header: Depth=1
                                        #     Child Loop BB1_38 Depth 2
                                        #     Child Loop BB1_46 Depth 2
                                        #       Child Loop BB1_47 Depth 3
                                        #       Child Loop BB1_53 Depth 3
                                        #       Child Loop BB1_56 Depth 3
                                        #       Child Loop BB1_62 Depth 3
                                        #       Child Loop BB1_68 Depth 3
                                        #       Child Loop BB1_71 Depth 3
                                        #       Child Loop BB1_78 Depth 3
	cmpl	$4, -48(%rbp)
	jl	.LBB1_37
# %bb.36:                               #   in Loop: Header=BB1_35 Depth=1
	movabsq	$.L.str.3, %rsi
	movq	stderr, %rdi
	movl	-40(%rbp), %edx
	movb	$0, %al
	callq	fprintf
.LBB1_37:                               #   in Loop: Header=BB1_35 Depth=1
	movl	$0, -16(%rbp)
	movl	$0, -4(%rbp)
.LBB1_38:                               #   Parent Loop BB1_35 Depth=1
                                        # =>  This Inner Loop Header: Depth=2
	movl	-4(%rbp), %eax
	cmpl	-12(%rbp), %eax
	jge	.LBB1_45
# %bb.39:                               #   in Loop: Header=BB1_38 Depth=2
	movl	$1, %eax
	movq	-32(%rbp), %rcx
	movl	-4(%rbp), %edx
	sarl	$5, %edx
	movslq	%edx, %rdx
	movl	(%rcx,%rdx,4), %edx
	movl	-4(%rbp), %ecx
	andl	$31, %ecx
                                        # kill: def %cl killed %ecx
	shll	%cl, %eax
	andl	%eax, %edx
	cmpl	$0, %edx
	je	.LBB1_41
# %bb.40:                               #   in Loop: Header=BB1_38 Depth=2
	movl	-4(%rbp), %eax
	movl	%eax, -16(%rbp)
.LBB1_41:                               #   in Loop: Header=BB1_38 Depth=2
	movq	-56(%rbp), %rax
	movslq	-4(%rbp), %rcx
	movl	(%rax,%rcx,4), %eax
	subl	-40(%rbp), %eax
	movl	%eax, -8(%rbp)
	cmpl	$0, -8(%rbp)
	jge	.LBB1_43
# %bb.42:                               #   in Loop: Header=BB1_38 Depth=2
	movl	-12(%rbp), %eax
	addl	-8(%rbp), %eax
	movl	%eax, -8(%rbp)
.LBB1_43:                               #   in Loop: Header=BB1_38 Depth=2
	movl	-16(%rbp), %eax
	movq	-72(%rbp), %rcx
	movslq	-8(%rbp), %rdx
	movl	%eax, (%rcx,%rdx,4)
# %bb.44:                               #   in Loop: Header=BB1_38 Depth=2
	movl	-4(%rbp), %eax
	addl	$1, %eax
	movl	%eax, -4(%rbp)
	jmp	.LBB1_38
.LBB1_45:                               #   in Loop: Header=BB1_35 Depth=1
	movl	$0, -44(%rbp)
	movl	$-1, -20(%rbp)
.LBB1_46:                               #   Parent Loop BB1_35 Depth=1
                                        # =>  This Loop Header: Depth=2
                                        #       Child Loop BB1_47 Depth 3
                                        #       Child Loop BB1_53 Depth 3
                                        #       Child Loop BB1_56 Depth 3
                                        #       Child Loop BB1_62 Depth 3
                                        #       Child Loop BB1_68 Depth 3
                                        #       Child Loop BB1_71 Depth 3
                                        #       Child Loop BB1_78 Depth 3
	movl	-20(%rbp), %eax
	addl	$1, %eax
	movl	%eax, -8(%rbp)
.LBB1_47:                               #   Parent Loop BB1_35 Depth=1
                                        #     Parent Loop BB1_46 Depth=2
                                        # =>    This Inner Loop Header: Depth=3
	xorl	%eax, %eax
	movl	$1, %edx
	movq	-32(%rbp), %rcx
	movl	-8(%rbp), %esi
	sarl	$5, %esi
	movslq	%esi, %rsi
	movl	(%rcx,%rsi,4), %esi
	movl	-8(%rbp), %ecx
	andl	$31, %ecx
                                        # kill: def %cl killed %ecx
	shll	%cl, %edx
	andl	%edx, %esi
	cmpl	$0, %esi
	je	.LBB1_49
# %bb.48:                               #   in Loop: Header=BB1_47 Depth=3
	movl	-8(%rbp), %eax
	andl	$31, %eax
	cmpl	$0, %eax
	setne	%al
.LBB1_49:                               #   in Loop: Header=BB1_47 Depth=3
	testb	$1, %al
	jne	.LBB1_50
	jmp	.LBB1_51
.LBB1_50:                               #   in Loop: Header=BB1_47 Depth=3
	movl	-8(%rbp), %eax
	addl	$1, %eax
	movl	%eax, -8(%rbp)
	jmp	.LBB1_47
.LBB1_51:                               #   in Loop: Header=BB1_46 Depth=2
	movl	$1, %eax
	movq	-32(%rbp), %rcx
	movl	-8(%rbp), %edx
	sarl	$5, %edx
	movslq	%edx, %rdx
	movl	(%rcx,%rdx,4), %edx
	movl	-8(%rbp), %ecx
	andl	$31, %ecx
                                        # kill: def %cl killed %ecx
	shll	%cl, %eax
	andl	%eax, %edx
	cmpl	$0, %edx
	je	.LBB1_59
# %bb.52:                               #   in Loop: Header=BB1_46 Depth=2
	jmp	.LBB1_53
.LBB1_53:                               #   Parent Loop BB1_35 Depth=1
                                        #     Parent Loop BB1_46 Depth=2
                                        # =>    This Inner Loop Header: Depth=3
	movq	-32(%rbp), %rax
	movl	-8(%rbp), %ecx
	sarl	$5, %ecx
	movslq	%ecx, %rcx
	cmpl	$-1, (%rax,%rcx,4)
	jne	.LBB1_55
# %bb.54:                               #   in Loop: Header=BB1_53 Depth=3
	movl	-8(%rbp), %eax
	addl	$32, %eax
	movl	%eax, -8(%rbp)
	jmp	.LBB1_53
.LBB1_55:                               #   in Loop: Header=BB1_46 Depth=2
	jmp	.LBB1_56
.LBB1_56:                               #   Parent Loop BB1_35 Depth=1
                                        #     Parent Loop BB1_46 Depth=2
                                        # =>    This Inner Loop Header: Depth=3
	movl	$1, %eax
	movq	-32(%rbp), %rcx
	movl	-8(%rbp), %edx
	sarl	$5, %edx
	movslq	%edx, %rdx
	movl	(%rcx,%rdx,4), %edx
	movl	-8(%rbp), %ecx
	andl	$31, %ecx
                                        # kill: def %cl killed %ecx
	shll	%cl, %eax
	andl	%eax, %edx
	cmpl	$0, %edx
	je	.LBB1_58
# %bb.57:                               #   in Loop: Header=BB1_56 Depth=3
	movl	-8(%rbp), %eax
	addl	$1, %eax
	movl	%eax, -8(%rbp)
	jmp	.LBB1_56
.LBB1_58:                               #   in Loop: Header=BB1_46 Depth=2
	jmp	.LBB1_59
.LBB1_59:                               #   in Loop: Header=BB1_46 Depth=2
	movl	-8(%rbp), %eax
	subl	$1, %eax
	movl	%eax, -36(%rbp)
	movl	-36(%rbp), %eax
	cmpl	-12(%rbp), %eax
	jl	.LBB1_61
# %bb.60:                               #   in Loop: Header=BB1_35 Depth=1
	jmp	.LBB1_85
.LBB1_61:                               #   in Loop: Header=BB1_46 Depth=2
	jmp	.LBB1_62
.LBB1_62:                               #   Parent Loop BB1_35 Depth=1
                                        #     Parent Loop BB1_46 Depth=2
                                        # =>    This Inner Loop Header: Depth=3
	xorl	%eax, %eax
	movl	$1, %edx
	movq	-32(%rbp), %rcx
	movl	-8(%rbp), %esi
	sarl	$5, %esi
	movslq	%esi, %rsi
	movl	(%rcx,%rsi,4), %esi
	movl	-8(%rbp), %ecx
	andl	$31, %ecx
                                        # kill: def %cl killed %ecx
	shll	%cl, %edx
	andl	%edx, %esi
	cmpl	$0, %esi
	jne	.LBB1_64
# %bb.63:                               #   in Loop: Header=BB1_62 Depth=3
	movl	-8(%rbp), %eax
	andl	$31, %eax
	cmpl	$0, %eax
	setne	%al
.LBB1_64:                               #   in Loop: Header=BB1_62 Depth=3
	testb	$1, %al
	jne	.LBB1_65
	jmp	.LBB1_66
.LBB1_65:                               #   in Loop: Header=BB1_62 Depth=3
	movl	-8(%rbp), %eax
	addl	$1, %eax
	movl	%eax, -8(%rbp)
	jmp	.LBB1_62
.LBB1_66:                               #   in Loop: Header=BB1_46 Depth=2
	movl	$1, %eax
	movq	-32(%rbp), %rcx
	movl	-8(%rbp), %edx
	sarl	$5, %edx
	movslq	%edx, %rdx
	movl	(%rcx,%rdx,4), %edx
	movl	-8(%rbp), %ecx
	andl	$31, %ecx
                                        # kill: def %cl killed %ecx
	shll	%cl, %eax
	andl	%eax, %edx
	cmpl	$0, %edx
	jne	.LBB1_74
# %bb.67:                               #   in Loop: Header=BB1_46 Depth=2
	jmp	.LBB1_68
.LBB1_68:                               #   Parent Loop BB1_35 Depth=1
                                        #     Parent Loop BB1_46 Depth=2
                                        # =>    This Inner Loop Header: Depth=3
	movq	-32(%rbp), %rax
	movl	-8(%rbp), %ecx
	sarl	$5, %ecx
	movslq	%ecx, %rcx
	cmpl	$0, (%rax,%rcx,4)
	jne	.LBB1_70
# %bb.69:                               #   in Loop: Header=BB1_68 Depth=3
	movl	-8(%rbp), %eax
	addl	$32, %eax
	movl	%eax, -8(%rbp)
	jmp	.LBB1_68
.LBB1_70:                               #   in Loop: Header=BB1_46 Depth=2
	jmp	.LBB1_71
.LBB1_71:                               #   Parent Loop BB1_35 Depth=1
                                        #     Parent Loop BB1_46 Depth=2
                                        # =>    This Inner Loop Header: Depth=3
	movl	$1, %eax
	movq	-32(%rbp), %rcx
	movl	-8(%rbp), %edx
	sarl	$5, %edx
	movslq	%edx, %rdx
	movl	(%rcx,%rdx,4), %edx
	movl	-8(%rbp), %ecx
	andl	$31, %ecx
                                        # kill: def %cl killed %ecx
	shll	%cl, %eax
	andl	%eax, %edx
	cmpl	$0, %edx
	setne	%al
	xorb	$-1, %al
	testb	$1, %al
	jne	.LBB1_72
	jmp	.LBB1_73
.LBB1_72:                               #   in Loop: Header=BB1_71 Depth=3
	movl	-8(%rbp), %eax
	addl	$1, %eax
	movl	%eax, -8(%rbp)
	jmp	.LBB1_71
.LBB1_73:                               #   in Loop: Header=BB1_46 Depth=2
	jmp	.LBB1_74
.LBB1_74:                               #   in Loop: Header=BB1_46 Depth=2
	movl	-8(%rbp), %eax
	subl	$1, %eax
	movl	%eax, -20(%rbp)
	movl	-20(%rbp), %eax
	cmpl	-12(%rbp), %eax
	jl	.LBB1_76
# %bb.75:                               #   in Loop: Header=BB1_35 Depth=1
	jmp	.LBB1_85
.LBB1_76:                               #   in Loop: Header=BB1_46 Depth=2
	movl	-20(%rbp), %eax
	cmpl	-36(%rbp), %eax
	jle	.LBB1_84
# %bb.77:                               #   in Loop: Header=BB1_46 Depth=2
	movl	-20(%rbp), %eax
	subl	-36(%rbp), %eax
	addl	$1, %eax
	addl	-44(%rbp), %eax
	movl	%eax, -44(%rbp)
	movq	-56(%rbp), %rdi
	movq	-72(%rbp), %rsi
	movl	-36(%rbp), %edx
	movl	-20(%rbp), %ecx
	callq	fallbackQSort3
	movl	$-1, -64(%rbp)
	movl	-36(%rbp), %eax
	movl	%eax, -4(%rbp)
.LBB1_78:                               #   Parent Loop BB1_35 Depth=1
                                        #     Parent Loop BB1_46 Depth=2
                                        # =>    This Inner Loop Header: Depth=3
	movl	-4(%rbp), %eax
	cmpl	-20(%rbp), %eax
	jg	.LBB1_83
# %bb.79:                               #   in Loop: Header=BB1_78 Depth=3
	movq	-72(%rbp), %rax
	movq	-56(%rbp), %rcx
	movslq	-4(%rbp), %rdx
	movl	(%rcx,%rdx,4), %ecx
	movl	(%rax,%rcx,4), %eax
	movl	%eax, -60(%rbp)
	movl	-64(%rbp), %eax
	cmpl	-60(%rbp), %eax
	je	.LBB1_81
# %bb.80:                               #   in Loop: Header=BB1_78 Depth=3
	movl	$1, %eax
	movl	-4(%rbp), %ecx
	andl	$31, %ecx
                                        # kill: def %cl killed %ecx
	shll	%cl, %eax
	movq	-32(%rbp), %rcx
	movl	-4(%rbp), %edx
	sarl	$5, %edx
	movslq	%edx, %rdx
	orl	(%rcx,%rdx,4), %eax
	movl	%eax, (%rcx,%rdx,4)
	movl	-60(%rbp), %eax
	movl	%eax, -64(%rbp)
.LBB1_81:                               #   in Loop: Header=BB1_78 Depth=3
	jmp	.LBB1_82
.LBB1_82:                               #   in Loop: Header=BB1_78 Depth=3
	movl	-4(%rbp), %eax
	addl	$1, %eax
	movl	%eax, -4(%rbp)
	jmp	.LBB1_78
.LBB1_83:                               #   in Loop: Header=BB1_46 Depth=2
	jmp	.LBB1_84
.LBB1_84:                               #   in Loop: Header=BB1_46 Depth=2
	jmp	.LBB1_46
.LBB1_85:                               #   in Loop: Header=BB1_35 Depth=1
	cmpl	$4, -48(%rbp)
	jl	.LBB1_87
# %bb.86:                               #   in Loop: Header=BB1_35 Depth=1
	movabsq	$.L.str.4, %rsi
	movq	stderr, %rdi
	movl	-44(%rbp), %edx
	movb	$0, %al
	callq	fprintf
.LBB1_87:                               #   in Loop: Header=BB1_35 Depth=1
	movl	-40(%rbp), %eax
	shll	$1, %eax
	movl	%eax, -40(%rbp)
	movl	-40(%rbp), %eax
	cmpl	-12(%rbp), %eax
	jg	.LBB1_89
# %bb.88:                               #   in Loop: Header=BB1_35 Depth=1
	cmpl	$0, -44(%rbp)
	jne	.LBB1_90
.LBB1_89:
	jmp	.LBB1_91
.LBB1_90:                               #   in Loop: Header=BB1_35 Depth=1
	jmp	.LBB1_35
.LBB1_91:
	cmpl	$4, -48(%rbp)
	jl	.LBB1_93
# %bb.92:
	movabsq	$.L.str.5, %rsi
	movq	stderr, %rdi
	movb	$0, %al
	callq	fprintf
.LBB1_93:
	movl	$0, -16(%rbp)
	movl	$0, -4(%rbp)
.LBB1_94:                               # =>This Loop Header: Depth=1
                                        #     Child Loop BB1_96 Depth 2
	movl	-4(%rbp), %eax
	cmpl	-12(%rbp), %eax
	jge	.LBB1_100
# %bb.95:                               #   in Loop: Header=BB1_94 Depth=1
	jmp	.LBB1_96
.LBB1_96:                               #   Parent Loop BB1_94 Depth=1
                                        # =>  This Inner Loop Header: Depth=2
	movslq	-16(%rbp), %rax
	cmpl	$0, -2144(%rbp,%rax,4)
	jne	.LBB1_98
# %bb.97:                               #   in Loop: Header=BB1_96 Depth=2
	movl	-16(%rbp), %eax
	addl	$1, %eax
	movl	%eax, -16(%rbp)
	jmp	.LBB1_96
.LBB1_98:                               #   in Loop: Header=BB1_94 Depth=1
	movslq	-16(%rbp), %rax
	movl	-2144(%rbp,%rax,4), %ecx
	addl	$-1, %ecx
	movl	%ecx, -2144(%rbp,%rax,4)
	movl	-16(%rbp), %eax
	movq	-80(%rbp), %rcx
	movq	-56(%rbp), %rdx
	movslq	-4(%rbp), %rsi
	movl	(%rdx,%rsi,4), %edx
	movb	%al, (%rcx,%rdx)
# %bb.99:                               #   in Loop: Header=BB1_94 Depth=1
	movl	-4(%rbp), %eax
	addl	$1, %eax
	movl	%eax, -4(%rbp)
	jmp	.LBB1_94
.LBB1_100:
	cmpl	$256, -16(%rbp)         # imm = 0x100
	jl	.LBB1_102
# %bb.101:
	movl	$1005, %edi             # imm = 0x3ED
	callq	BZ2_bz__AssertH__fail
.LBB1_102:
	addq	$2144, %rsp             # imm = 0x860
	popq	%rbp
	retq
.Lfunc_end1:
	.size	fallbackSort, .Lfunc_end1-fallbackSort
	.cfi_endproc
                                        # -- End function
	.p2align	4, 0x90         # -- Begin function mainSort
	.type	mainSort,@function
mainSort:                               # @mainSort
	.cfi_startproc
# %bb.0:
	pushq	%rbp
	.cfi_def_cfa_offset 16
	.cfi_offset %rbp, -16
	movq	%rsp, %rbp
	.cfi_def_cfa_register %rbp
	subq	$3456, %rsp             # imm = 0xD80
	movq	16(%rbp), %rax
	movq	%rdi, -56(%rbp)
	movq	%rsi, -48(%rbp)
	movq	%rdx, -80(%rbp)
	movq	%rcx, -24(%rbp)
	movl	%r8d, -36(%rbp)
	movl	%r9d, -96(%rbp)
	cmpl	$4, -96(%rbp)
	jl	.LBB2_2
# %bb.1:
	movabsq	$.L.str.6, %rsi
	movq	stderr, %rdi
	movb	$0, %al
	callq	fprintf
.LBB2_2:
	movl	$65536, -8(%rbp)        # imm = 0x10000
.LBB2_3:                                # =>This Inner Loop Header: Depth=1
	cmpl	$0, -8(%rbp)
	jl	.LBB2_6
# %bb.4:                                #   in Loop: Header=BB2_3 Depth=1
	movq	-24(%rbp), %rax
	movslq	-8(%rbp), %rcx
	movl	$0, (%rax,%rcx,4)
# %bb.5:                                #   in Loop: Header=BB2_3 Depth=1
	movl	-8(%rbp), %eax
	addl	$-1, %eax
	movl	%eax, -8(%rbp)
	jmp	.LBB2_3
.LBB2_6:
	movq	-48(%rbp), %rax
	movzbl	(%rax), %eax
	shll	$8, %eax
	movl	%eax, -4(%rbp)
	movl	-36(%rbp), %eax
	subl	$1, %eax
	movl	%eax, -8(%rbp)
.LBB2_7:                                # =>This Inner Loop Header: Depth=1
	cmpl	$3, -8(%rbp)
	jl	.LBB2_10
# %bb.8:                                #   in Loop: Header=BB2_7 Depth=1
	movq	-80(%rbp), %rax
	movslq	-8(%rbp), %rcx
	movw	$0, (%rax,%rcx,2)
	movl	-4(%rbp), %eax
	sarl	$8, %eax
	movq	-48(%rbp), %rcx
	movslq	-8(%rbp), %rdx
	movzbl	(%rcx,%rdx), %ecx
	movzwl	%cx, %ecx
	shll	$8, %ecx
	orl	%ecx, %eax
	movl	%eax, -4(%rbp)
	movq	-24(%rbp), %rax
	movslq	-4(%rbp), %rcx
	movl	(%rax,%rcx,4), %edx
	addl	$1, %edx
	movl	%edx, (%rax,%rcx,4)
	movq	-80(%rbp), %rax
	movl	-8(%rbp), %ecx
	subl	$1, %ecx
	movslq	%ecx, %rcx
	movw	$0, (%rax,%rcx,2)
	movl	-4(%rbp), %eax
	sarl	$8, %eax
	movq	-48(%rbp), %rcx
	movl	-8(%rbp), %edx
	subl	$1, %edx
	movslq	%edx, %rdx
	movzbl	(%rcx,%rdx), %ecx
	movzwl	%cx, %ecx
	shll	$8, %ecx
	orl	%ecx, %eax
	movl	%eax, -4(%rbp)
	movq	-24(%rbp), %rax
	movslq	-4(%rbp), %rcx
	movl	(%rax,%rcx,4), %edx
	addl	$1, %edx
	movl	%edx, (%rax,%rcx,4)
	movq	-80(%rbp), %rax
	movl	-8(%rbp), %ecx
	subl	$2, %ecx
	movslq	%ecx, %rcx
	movw	$0, (%rax,%rcx,2)
	movl	-4(%rbp), %eax
	sarl	$8, %eax
	movq	-48(%rbp), %rcx
	movl	-8(%rbp), %edx
	subl	$2, %edx
	movslq	%edx, %rdx
	movzbl	(%rcx,%rdx), %ecx
	movzwl	%cx, %ecx
	shll	$8, %ecx
	orl	%ecx, %eax
	movl	%eax, -4(%rbp)
	movq	-24(%rbp), %rax
	movslq	-4(%rbp), %rcx
	movl	(%rax,%rcx,4), %edx
	addl	$1, %edx
	movl	%edx, (%rax,%rcx,4)
	movq	-80(%rbp), %rax
	movl	-8(%rbp), %ecx
	subl	$3, %ecx
	movslq	%ecx, %rcx
	movw	$0, (%rax,%rcx,2)
	movl	-4(%rbp), %eax
	sarl	$8, %eax
	movq	-48(%rbp), %rcx
	movl	-8(%rbp), %edx
	subl	$3, %edx
	movslq	%edx, %rdx
	movzbl	(%rcx,%rdx), %ecx
	movzwl	%cx, %ecx
	shll	$8, %ecx
	orl	%ecx, %eax
	movl	%eax, -4(%rbp)
	movq	-24(%rbp), %rax
	movslq	-4(%rbp), %rcx
	movl	(%rax,%rcx,4), %edx
	addl	$1, %edx
	movl	%edx, (%rax,%rcx,4)
# %bb.9:                                #   in Loop: Header=BB2_7 Depth=1
	movl	-8(%rbp), %eax
	subl	$4, %eax
	movl	%eax, -8(%rbp)
	jmp	.LBB2_7
.LBB2_10:
	jmp	.LBB2_11
.LBB2_11:                               # =>This Inner Loop Header: Depth=1
	cmpl	$0, -8(%rbp)
	jl	.LBB2_14
# %bb.12:                               #   in Loop: Header=BB2_11 Depth=1
	movq	-80(%rbp), %rax
	movslq	-8(%rbp), %rcx
	movw	$0, (%rax,%rcx,2)
	movl	-4(%rbp), %eax
	sarl	$8, %eax
	movq	-48(%rbp), %rcx
	movslq	-8(%rbp), %rdx
	movzbl	(%rcx,%rdx), %ecx
	movzwl	%cx, %ecx
	shll	$8, %ecx
	orl	%ecx, %eax
	movl	%eax, -4(%rbp)
	movq	-24(%rbp), %rax
	movslq	-4(%rbp), %rcx
	movl	(%rax,%rcx,4), %edx
	addl	$1, %edx
	movl	%edx, (%rax,%rcx,4)
# %bb.13:                               #   in Loop: Header=BB2_11 Depth=1
	movl	-8(%rbp), %eax
	addl	$-1, %eax
	movl	%eax, -8(%rbp)
	jmp	.LBB2_11
.LBB2_14:
	movl	$0, -8(%rbp)
.LBB2_15:                               # =>This Inner Loop Header: Depth=1
	cmpl	$34, -8(%rbp)
	jge	.LBB2_18
# %bb.16:                               #   in Loop: Header=BB2_15 Depth=1
	movq	-48(%rbp), %rax
	movslq	-8(%rbp), %rcx
	movb	(%rax,%rcx), %al
	movq	-48(%rbp), %rcx
	movl	-36(%rbp), %edx
	addl	-8(%rbp), %edx
	movslq	%edx, %rdx
	movb	%al, (%rcx,%rdx)
	movq	-80(%rbp), %rax
	movl	-36(%rbp), %ecx
	addl	-8(%rbp), %ecx
	movslq	%ecx, %rcx
	movw	$0, (%rax,%rcx,2)
# %bb.17:                               #   in Loop: Header=BB2_15 Depth=1
	movl	-8(%rbp), %eax
	addl	$1, %eax
	movl	%eax, -8(%rbp)
	jmp	.LBB2_15
.LBB2_18:
	cmpl	$4, -96(%rbp)
	jl	.LBB2_20
# %bb.19:
	movabsq	$.L.str.2, %rsi
	movq	stderr, %rdi
	movb	$0, %al
	callq	fprintf
.LBB2_20:
	movl	$1, -8(%rbp)
.LBB2_21:                               # =>This Inner Loop Header: Depth=1
	cmpl	$65536, -8(%rbp)        # imm = 0x10000
	jg	.LBB2_24
# %bb.22:                               #   in Loop: Header=BB2_21 Depth=1
	movq	-24(%rbp), %rax
	movl	-8(%rbp), %ecx
	subl	$1, %ecx
	movslq	%ecx, %rcx
	movl	(%rax,%rcx,4), %eax
	movq	-24(%rbp), %rcx
	movslq	-8(%rbp), %rdx
	addl	(%rcx,%rdx,4), %eax
	movl	%eax, (%rcx,%rdx,4)
# %bb.23:                               #   in Loop: Header=BB2_21 Depth=1
	movl	-8(%rbp), %eax
	addl	$1, %eax
	movl	%eax, -8(%rbp)
	jmp	.LBB2_21
.LBB2_24:
	movq	-48(%rbp), %rax
	movzbl	(%rax), %eax
	shll	$8, %eax
	movw	%ax, -10(%rbp)
	movl	-36(%rbp), %eax
	subl	$1, %eax
	movl	%eax, -8(%rbp)
.LBB2_25:                               # =>This Inner Loop Header: Depth=1
	cmpl	$3, -8(%rbp)
	jl	.LBB2_28
# %bb.26:                               #   in Loop: Header=BB2_25 Depth=1
	movzwl	-10(%rbp), %eax
	sarl	$8, %eax
	movq	-48(%rbp), %rcx
	movslq	-8(%rbp), %rdx
	movzbl	(%rcx,%rdx), %ecx
	shll	$8, %ecx
	orl	%ecx, %eax
	movw	%ax, -10(%rbp)
	movq	-24(%rbp), %rax
	movzwl	-10(%rbp), %ecx
	movl	(%rax,%rcx,4), %eax
	subl	$1, %eax
	movl	%eax, -4(%rbp)
	movl	-4(%rbp), %eax
	movq	-24(%rbp), %rcx
	movzwl	-10(%rbp), %edx
	movl	%eax, (%rcx,%rdx,4)
	movl	-8(%rbp), %eax
	movq	-56(%rbp), %rcx
	movslq	-4(%rbp), %rdx
	movl	%eax, (%rcx,%rdx,4)
	movzwl	-10(%rbp), %eax
	sarl	$8, %eax
	movq	-48(%rbp), %rcx
	movl	-8(%rbp), %edx
	subl	$1, %edx
	movslq	%edx, %rdx
	movzbl	(%rcx,%rdx), %ecx
	shll	$8, %ecx
	orl	%ecx, %eax
	movw	%ax, -10(%rbp)
	movq	-24(%rbp), %rax
	movzwl	-10(%rbp), %ecx
	movl	(%rax,%rcx,4), %eax
	subl	$1, %eax
	movl	%eax, -4(%rbp)
	movl	-4(%rbp), %eax
	movq	-24(%rbp), %rcx
	movzwl	-10(%rbp), %edx
	movl	%eax, (%rcx,%rdx,4)
	movl	-8(%rbp), %eax
	subl	$1, %eax
	movq	-56(%rbp), %rcx
	movslq	-4(%rbp), %rdx
	movl	%eax, (%rcx,%rdx,4)
	movzwl	-10(%rbp), %eax
	sarl	$8, %eax
	movq	-48(%rbp), %rcx
	movl	-8(%rbp), %edx
	subl	$2, %edx
	movslq	%edx, %rdx
	movzbl	(%rcx,%rdx), %ecx
	shll	$8, %ecx
	orl	%ecx, %eax
	movw	%ax, -10(%rbp)
	movq	-24(%rbp), %rax
	movzwl	-10(%rbp), %ecx
	movl	(%rax,%rcx,4), %eax
	subl	$1, %eax
	movl	%eax, -4(%rbp)
	movl	-4(%rbp), %eax
	movq	-24(%rbp), %rcx
	movzwl	-10(%rbp), %edx
	movl	%eax, (%rcx,%rdx,4)
	movl	-8(%rbp), %eax
	subl	$2, %eax
	movq	-56(%rbp), %rcx
	movslq	-4(%rbp), %rdx
	movl	%eax, (%rcx,%rdx,4)
	movzwl	-10(%rbp), %eax
	sarl	$8, %eax
	movq	-48(%rbp), %rcx
	movl	-8(%rbp), %edx
	subl	$3, %edx
	movslq	%edx, %rdx
	movzbl	(%rcx,%rdx), %ecx
	shll	$8, %ecx
	orl	%ecx, %eax
	movw	%ax, -10(%rbp)
	movq	-24(%rbp), %rax
	movzwl	-10(%rbp), %ecx
	movl	(%rax,%rcx,4), %eax
	subl	$1, %eax
	movl	%eax, -4(%rbp)
	movl	-4(%rbp), %eax
	movq	-24(%rbp), %rcx
	movzwl	-10(%rbp), %edx
	movl	%eax, (%rcx,%rdx,4)
	movl	-8(%rbp), %eax
	subl	$3, %eax
	movq	-56(%rbp), %rcx
	movslq	-4(%rbp), %rdx
	movl	%eax, (%rcx,%rdx,4)
# %bb.27:                               #   in Loop: Header=BB2_25 Depth=1
	movl	-8(%rbp), %eax
	subl	$4, %eax
	movl	%eax, -8(%rbp)
	jmp	.LBB2_25
.LBB2_28:
	jmp	.LBB2_29
.LBB2_29:                               # =>This Inner Loop Header: Depth=1
	cmpl	$0, -8(%rbp)
	jl	.LBB2_32
# %bb.30:                               #   in Loop: Header=BB2_29 Depth=1
	movzwl	-10(%rbp), %eax
	sarl	$8, %eax
	movq	-48(%rbp), %rcx
	movslq	-8(%rbp), %rdx
	movzbl	(%rcx,%rdx), %ecx
	shll	$8, %ecx
	orl	%ecx, %eax
	movw	%ax, -10(%rbp)
	movq	-24(%rbp), %rax
	movzwl	-10(%rbp), %ecx
	movl	(%rax,%rcx,4), %eax
	subl	$1, %eax
	movl	%eax, -4(%rbp)
	movl	-4(%rbp), %eax
	movq	-24(%rbp), %rcx
	movzwl	-10(%rbp), %edx
	movl	%eax, (%rcx,%rdx,4)
	movl	-8(%rbp), %eax
	movq	-56(%rbp), %rcx
	movslq	-4(%rbp), %rdx
	movl	%eax, (%rcx,%rdx,4)
# %bb.31:                               #   in Loop: Header=BB2_29 Depth=1
	movl	-8(%rbp), %eax
	addl	$-1, %eax
	movl	%eax, -8(%rbp)
	jmp	.LBB2_29
.LBB2_32:
	movl	$0, -8(%rbp)
.LBB2_33:                               # =>This Inner Loop Header: Depth=1
	cmpl	$255, -8(%rbp)
	jg	.LBB2_36
# %bb.34:                               #   in Loop: Header=BB2_33 Depth=1
	movslq	-8(%rbp), %rax
	movb	$0, -368(%rbp,%rax)
	movl	-8(%rbp), %eax
	movslq	-8(%rbp), %rcx
	movl	%eax, -1392(%rbp,%rcx,4)
# %bb.35:                               #   in Loop: Header=BB2_33 Depth=1
	movl	-8(%rbp), %eax
	addl	$1, %eax
	movl	%eax, -8(%rbp)
	jmp	.LBB2_33
.LBB2_36:
	movl	$1, -28(%rbp)
.LBB2_37:                               # =>This Inner Loop Header: Depth=1
	imull	$3, -28(%rbp), %eax
	addl	$1, %eax
	movl	%eax, -28(%rbp)
# %bb.38:                               #   in Loop: Header=BB2_37 Depth=1
	cmpl	$256, -28(%rbp)         # imm = 0x100
	jle	.LBB2_37
# %bb.39:
	jmp	.LBB2_40
.LBB2_40:                               # =>This Loop Header: Depth=1
                                        #     Child Loop BB2_41 Depth 2
                                        #       Child Loop BB2_43 Depth 3
	movl	$3, %ecx
	movl	-28(%rbp), %eax
	cltd
	idivl	%ecx
	movl	%eax, -28(%rbp)
	movl	-28(%rbp), %eax
	movl	%eax, -8(%rbp)
.LBB2_41:                               #   Parent Loop BB2_40 Depth=1
                                        # =>  This Loop Header: Depth=2
                                        #       Child Loop BB2_43 Depth 3
	cmpl	$255, -8(%rbp)
	jg	.LBB2_50
# %bb.42:                               #   in Loop: Header=BB2_41 Depth=2
	movslq	-8(%rbp), %rax
	movl	-1392(%rbp,%rax,4), %eax
	movl	%eax, -108(%rbp)
	movl	-8(%rbp), %eax
	movl	%eax, -4(%rbp)
.LBB2_43:                               #   Parent Loop BB2_40 Depth=1
                                        #     Parent Loop BB2_41 Depth=2
                                        # =>    This Inner Loop Header: Depth=3
	movq	-24(%rbp), %rax
	movl	-4(%rbp), %ecx
	subl	-28(%rbp), %ecx
	movslq	%ecx, %rcx
	movl	-1392(%rbp,%rcx,4), %ecx
	addl	$1, %ecx
	shll	$8, %ecx
	movslq	%ecx, %rcx
	movl	(%rax,%rcx,4), %eax
	movq	-24(%rbp), %rcx
	movl	-4(%rbp), %edx
	subl	-28(%rbp), %edx
	movslq	%edx, %rdx
	movl	-1392(%rbp,%rdx,4), %edx
	shll	$8, %edx
	movslq	%edx, %rdx
	subl	(%rcx,%rdx,4), %eax
	movq	-24(%rbp), %rcx
	movl	-108(%rbp), %edx
	addl	$1, %edx
	shll	$8, %edx
	movslq	%edx, %rdx
	movl	(%rcx,%rdx,4), %ecx
	movq	-24(%rbp), %rdx
	movl	-108(%rbp), %esi
	shll	$8, %esi
	movslq	%esi, %rsi
	subl	(%rdx,%rsi,4), %ecx
	cmpl	%ecx, %eax
	jbe	.LBB2_47
# %bb.44:                               #   in Loop: Header=BB2_43 Depth=3
	movl	-4(%rbp), %eax
	subl	-28(%rbp), %eax
	cltq
	movl	-1392(%rbp,%rax,4), %eax
	movslq	-4(%rbp), %rcx
	movl	%eax, -1392(%rbp,%rcx,4)
	movl	-4(%rbp), %eax
	subl	-28(%rbp), %eax
	movl	%eax, -4(%rbp)
	movl	-4(%rbp), %eax
	movl	-28(%rbp), %ecx
	subl	$1, %ecx
	cmpl	%ecx, %eax
	jg	.LBB2_46
# %bb.45:                               #   in Loop: Header=BB2_41 Depth=2
	jmp	.LBB2_48
.LBB2_46:                               #   in Loop: Header=BB2_43 Depth=3
	jmp	.LBB2_43
.LBB2_47:                               #   in Loop: Header=BB2_41 Depth=2
	jmp	.LBB2_48
.LBB2_48:                               #   in Loop: Header=BB2_41 Depth=2
	movl	-108(%rbp), %eax
	movslq	-4(%rbp), %rcx
	movl	%eax, -1392(%rbp,%rcx,4)
# %bb.49:                               #   in Loop: Header=BB2_41 Depth=2
	movl	-8(%rbp), %eax
	addl	$1, %eax
	movl	%eax, -8(%rbp)
	jmp	.LBB2_41
.LBB2_50:                               #   in Loop: Header=BB2_40 Depth=1
	jmp	.LBB2_51
.LBB2_51:                               #   in Loop: Header=BB2_40 Depth=1
	cmpl	$1, -28(%rbp)
	jne	.LBB2_40
# %bb.52:
	movl	$0, -64(%rbp)
	movl	$0, -8(%rbp)
.LBB2_53:                               # =>This Loop Header: Depth=1
                                        #     Child Loop BB2_55 Depth 2
                                        #     Child Loop BB2_71 Depth 2
                                        #     Child Loop BB2_75 Depth 2
                                        #     Child Loop BB2_83 Depth 2
                                        #     Child Loop BB2_95 Depth 2
                                        #     Child Loop BB2_100 Depth 2
                                        #     Child Loop BB2_103 Depth 2
	cmpl	$255, -8(%rbp)
	jg	.LBB2_113
# %bb.54:                               #   in Loop: Header=BB2_53 Depth=1
	movslq	-8(%rbp), %rax
	movl	-1392(%rbp,%rax,4), %eax
	movl	%eax, -16(%rbp)
	movl	$0, -4(%rbp)
.LBB2_55:                               #   Parent Loop BB2_53 Depth=1
                                        # =>  This Inner Loop Header: Depth=2
	cmpl	$255, -4(%rbp)
	jg	.LBB2_68
# %bb.56:                               #   in Loop: Header=BB2_55 Depth=2
	movl	-4(%rbp), %eax
	cmpl	-16(%rbp), %eax
	je	.LBB2_66
# %bb.57:                               #   in Loop: Header=BB2_55 Depth=2
	movl	-16(%rbp), %eax
	shll	$8, %eax
	addl	-4(%rbp), %eax
	movl	%eax, -92(%rbp)
	movq	-24(%rbp), %rax
	movslq	-92(%rbp), %rcx
	movl	(%rax,%rcx,4), %eax
	andl	$2097152, %eax          # imm = 0x200000
	cmpl	$0, %eax
	jne	.LBB2_65
# %bb.58:                               #   in Loop: Header=BB2_55 Depth=2
	movq	-24(%rbp), %rax
	movslq	-92(%rbp), %rcx
	movl	(%rax,%rcx,4), %eax
	andl	$-2097153, %eax         # imm = 0xFFDFFFFF
	movl	%eax, -88(%rbp)
	movq	-24(%rbp), %rax
	movl	-92(%rbp), %ecx
	addl	$1, %ecx
	movslq	%ecx, %rcx
	movl	(%rax,%rcx,4), %eax
	andl	$-2097153, %eax         # imm = 0xFFDFFFFF
	subl	$1, %eax
	movl	%eax, -84(%rbp)
	movl	-84(%rbp), %eax
	cmpl	-88(%rbp), %eax
	jle	.LBB2_64
# %bb.59:                               #   in Loop: Header=BB2_55 Depth=2
	cmpl	$4, -96(%rbp)
	jl	.LBB2_61
# %bb.60:                               #   in Loop: Header=BB2_55 Depth=2
	movabsq	$.L.str.7, %rsi
	movq	stderr, %rdi
	movl	-16(%rbp), %edx
	movl	-4(%rbp), %ecx
	movl	-64(%rbp), %r8d
	movl	-84(%rbp), %r9d
	subl	-88(%rbp), %r9d
	addl	$1, %r9d
	movb	$0, %al
	callq	fprintf
.LBB2_61:                               #   in Loop: Header=BB2_55 Depth=2
	movl	$2, %eax
	movq	-56(%rbp), %rdi
	movq	-48(%rbp), %rsi
	movq	-80(%rbp), %rdx
	movl	-36(%rbp), %ecx
	movl	-88(%rbp), %r8d
	movl	-84(%rbp), %r9d
	movq	16(%rbp), %rax
	movl	$2, (%rsp)
	movq	%rax, 8(%rsp)
	callq	mainQSort3
	movl	-84(%rbp), %eax
	subl	-88(%rbp), %eax
	addl	$1, %eax
	addl	-64(%rbp), %eax
	movl	%eax, -64(%rbp)
	movq	16(%rbp), %rax
	cmpl	$0, (%rax)
	jge	.LBB2_63
# %bb.62:
	jmp	.LBB2_115
.LBB2_63:                               #   in Loop: Header=BB2_55 Depth=2
	jmp	.LBB2_64
.LBB2_64:                               #   in Loop: Header=BB2_55 Depth=2
	jmp	.LBB2_65
.LBB2_65:                               #   in Loop: Header=BB2_55 Depth=2
	movq	-24(%rbp), %rax
	movslq	-92(%rbp), %rcx
	movl	(%rax,%rcx,4), %edx
	orl	$2097152, %edx          # imm = 0x200000
	movl	%edx, (%rax,%rcx,4)
.LBB2_66:                               #   in Loop: Header=BB2_55 Depth=2
	jmp	.LBB2_67
.LBB2_67:                               #   in Loop: Header=BB2_55 Depth=2
	movl	-4(%rbp), %eax
	addl	$1, %eax
	movl	%eax, -4(%rbp)
	jmp	.LBB2_55
.LBB2_68:                               #   in Loop: Header=BB2_53 Depth=1
	movslq	-16(%rbp), %rax
	cmpb	$0, -368(%rbp,%rax)
	je	.LBB2_70
# %bb.69:                               #   in Loop: Header=BB2_53 Depth=1
	movl	$1006, %edi             # imm = 0x3EE
	callq	BZ2_bz__AssertH__fail
.LBB2_70:                               #   in Loop: Header=BB2_53 Depth=1
	movl	$0, -4(%rbp)
.LBB2_71:                               #   Parent Loop BB2_53 Depth=1
                                        # =>  This Inner Loop Header: Depth=2
	cmpl	$255, -4(%rbp)
	jg	.LBB2_74
# %bb.72:                               #   in Loop: Header=BB2_71 Depth=2
	movq	-24(%rbp), %rax
	movl	-4(%rbp), %ecx
	shll	$8, %ecx
	addl	-16(%rbp), %ecx
	movslq	%ecx, %rcx
	movl	(%rax,%rcx,4), %eax
	andl	$-2097153, %eax         # imm = 0xFFDFFFFF
	movslq	-4(%rbp), %rcx
	movl	%eax, -3440(%rbp,%rcx,4)
	movq	-24(%rbp), %rax
	movl	-4(%rbp), %ecx
	shll	$8, %ecx
	addl	-16(%rbp), %ecx
	addl	$1, %ecx
	movslq	%ecx, %rcx
	movl	(%rax,%rcx,4), %eax
	andl	$-2097153, %eax         # imm = 0xFFDFFFFF
	subl	$1, %eax
	movslq	-4(%rbp), %rcx
	movl	%eax, -2416(%rbp,%rcx,4)
# %bb.73:                               #   in Loop: Header=BB2_71 Depth=2
	movl	-4(%rbp), %eax
	addl	$1, %eax
	movl	%eax, -4(%rbp)
	jmp	.LBB2_71
.LBB2_74:                               #   in Loop: Header=BB2_53 Depth=1
	movq	-24(%rbp), %rax
	movl	-16(%rbp), %ecx
	shll	$8, %ecx
	movslq	%ecx, %rcx
	movl	(%rax,%rcx,4), %eax
	andl	$-2097153, %eax         # imm = 0xFFDFFFFF
	movl	%eax, -4(%rbp)
.LBB2_75:                               #   Parent Loop BB2_53 Depth=1
                                        # =>  This Inner Loop Header: Depth=2
	movl	-4(%rbp), %eax
	movslq	-16(%rbp), %rcx
	cmpl	-3440(%rbp,%rcx,4), %eax
	jge	.LBB2_82
# %bb.76:                               #   in Loop: Header=BB2_75 Depth=2
	movq	-56(%rbp), %rax
	movslq	-4(%rbp), %rcx
	movl	(%rax,%rcx,4), %eax
	subl	$1, %eax
	movl	%eax, -32(%rbp)
	cmpl	$0, -32(%rbp)
	jge	.LBB2_78
# %bb.77:                               #   in Loop: Header=BB2_75 Depth=2
	movl	-36(%rbp), %eax
	addl	-32(%rbp), %eax
	movl	%eax, -32(%rbp)
.LBB2_78:                               #   in Loop: Header=BB2_75 Depth=2
	movq	-48(%rbp), %rax
	movslq	-32(%rbp), %rcx
	movb	(%rax,%rcx), %al
	movb	%al, -11(%rbp)
	movzbl	-11(%rbp), %eax
	cmpb	$0, -368(%rbp,%rax)
	jne	.LBB2_80
# %bb.79:                               #   in Loop: Header=BB2_75 Depth=2
	movl	-32(%rbp), %eax
	movq	-56(%rbp), %rcx
	movzbl	-11(%rbp), %edx
	movl	-3440(%rbp,%rdx,4), %esi
	movl	%esi, %edi
	addl	$1, %edi
	movl	%edi, -3440(%rbp,%rdx,4)
	movslq	%esi, %rdx
	movl	%eax, (%rcx,%rdx,4)
.LBB2_80:                               #   in Loop: Header=BB2_75 Depth=2
	jmp	.LBB2_81
.LBB2_81:                               #   in Loop: Header=BB2_75 Depth=2
	movl	-4(%rbp), %eax
	addl	$1, %eax
	movl	%eax, -4(%rbp)
	jmp	.LBB2_75
.LBB2_82:                               #   in Loop: Header=BB2_53 Depth=1
	movq	-24(%rbp), %rax
	movl	-16(%rbp), %ecx
	addl	$1, %ecx
	shll	$8, %ecx
	movslq	%ecx, %rcx
	movl	(%rax,%rcx,4), %eax
	andl	$-2097153, %eax         # imm = 0xFFDFFFFF
	subl	$1, %eax
	movl	%eax, -4(%rbp)
.LBB2_83:                               #   Parent Loop BB2_53 Depth=1
                                        # =>  This Inner Loop Header: Depth=2
	movl	-4(%rbp), %eax
	movslq	-16(%rbp), %rcx
	cmpl	-2416(%rbp,%rcx,4), %eax
	jle	.LBB2_90
# %bb.84:                               #   in Loop: Header=BB2_83 Depth=2
	movq	-56(%rbp), %rax
	movslq	-4(%rbp), %rcx
	movl	(%rax,%rcx,4), %eax
	subl	$1, %eax
	movl	%eax, -32(%rbp)
	cmpl	$0, -32(%rbp)
	jge	.LBB2_86
# %bb.85:                               #   in Loop: Header=BB2_83 Depth=2
	movl	-36(%rbp), %eax
	addl	-32(%rbp), %eax
	movl	%eax, -32(%rbp)
.LBB2_86:                               #   in Loop: Header=BB2_83 Depth=2
	movq	-48(%rbp), %rax
	movslq	-32(%rbp), %rcx
	movb	(%rax,%rcx), %al
	movb	%al, -11(%rbp)
	movzbl	-11(%rbp), %eax
	cmpb	$0, -368(%rbp,%rax)
	jne	.LBB2_88
# %bb.87:                               #   in Loop: Header=BB2_83 Depth=2
	movl	-32(%rbp), %eax
	movq	-56(%rbp), %rcx
	movzbl	-11(%rbp), %edx
	movl	-2416(%rbp,%rdx,4), %esi
	movl	%esi, %edi
	addl	$-1, %edi
	movl	%edi, -2416(%rbp,%rdx,4)
	movslq	%esi, %rdx
	movl	%eax, (%rcx,%rdx,4)
.LBB2_88:                               #   in Loop: Header=BB2_83 Depth=2
	jmp	.LBB2_89
.LBB2_89:                               #   in Loop: Header=BB2_83 Depth=2
	movl	-4(%rbp), %eax
	addl	$-1, %eax
	movl	%eax, -4(%rbp)
	jmp	.LBB2_83
.LBB2_90:                               #   in Loop: Header=BB2_53 Depth=1
	movslq	-16(%rbp), %rax
	movl	-3440(%rbp,%rax,4), %eax
	subl	$1, %eax
	movslq	-16(%rbp), %rcx
	cmpl	-2416(%rbp,%rcx,4), %eax
	je	.LBB2_94
# %bb.91:                               #   in Loop: Header=BB2_53 Depth=1
	movslq	-16(%rbp), %rax
	cmpl	$0, -3440(%rbp,%rax,4)
	jne	.LBB2_93
# %bb.92:                               #   in Loop: Header=BB2_53 Depth=1
	movslq	-16(%rbp), %rax
	movl	-2416(%rbp,%rax,4), %eax
	movl	-36(%rbp), %ecx
	subl	$1, %ecx
	cmpl	%ecx, %eax
	je	.LBB2_94
.LBB2_93:                               #   in Loop: Header=BB2_53 Depth=1
	movl	$1007, %edi             # imm = 0x3EF
	callq	BZ2_bz__AssertH__fail
.LBB2_94:                               #   in Loop: Header=BB2_53 Depth=1
	movl	$0, -4(%rbp)
.LBB2_95:                               #   Parent Loop BB2_53 Depth=1
                                        # =>  This Inner Loop Header: Depth=2
	cmpl	$255, -4(%rbp)
	jg	.LBB2_98
# %bb.96:                               #   in Loop: Header=BB2_95 Depth=2
	movq	-24(%rbp), %rax
	movl	-4(%rbp), %ecx
	shll	$8, %ecx
	addl	-16(%rbp), %ecx
	movslq	%ecx, %rcx
	movl	(%rax,%rcx,4), %edx
	orl	$2097152, %edx          # imm = 0x200000
	movl	%edx, (%rax,%rcx,4)
# %bb.97:                               #   in Loop: Header=BB2_95 Depth=2
	movl	-4(%rbp), %eax
	addl	$1, %eax
	movl	%eax, -4(%rbp)
	jmp	.LBB2_95
.LBB2_98:                               #   in Loop: Header=BB2_53 Depth=1
	movslq	-16(%rbp), %rax
	movb	$1, -368(%rbp,%rax)
	cmpl	$255, -8(%rbp)
	jge	.LBB2_111
# %bb.99:                               #   in Loop: Header=BB2_53 Depth=1
	movq	-24(%rbp), %rax
	movl	-16(%rbp), %ecx
	shll	$8, %ecx
	movslq	%ecx, %rcx
	movl	(%rax,%rcx,4), %eax
	andl	$-2097153, %eax         # imm = 0xFFDFFFFF
	movl	%eax, -112(%rbp)
	movq	-24(%rbp), %rax
	movl	-16(%rbp), %ecx
	addl	$1, %ecx
	shll	$8, %ecx
	movslq	%ecx, %rcx
	movl	(%rax,%rcx,4), %eax
	andl	$-2097153, %eax         # imm = 0xFFDFFFFF
	subl	-112(%rbp), %eax
	movl	%eax, -104(%rbp)
	movl	$0, -60(%rbp)
.LBB2_100:                              #   Parent Loop BB2_53 Depth=1
                                        # =>  This Inner Loop Header: Depth=2
	movl	-104(%rbp), %eax
	movl	-60(%rbp), %ecx
                                        # kill: def %cl killed %ecx
	sarl	%cl, %eax
	cmpl	$65534, %eax            # imm = 0xFFFE
	jle	.LBB2_102
# %bb.101:                              #   in Loop: Header=BB2_100 Depth=2
	movl	-60(%rbp), %eax
	addl	$1, %eax
	movl	%eax, -60(%rbp)
	jmp	.LBB2_100
.LBB2_102:                              #   in Loop: Header=BB2_53 Depth=1
	movl	-104(%rbp), %eax
	subl	$1, %eax
	movl	%eax, -4(%rbp)
.LBB2_103:                              #   Parent Loop BB2_53 Depth=1
                                        # =>  This Inner Loop Header: Depth=2
	cmpl	$0, -4(%rbp)
	jl	.LBB2_108
# %bb.104:                              #   in Loop: Header=BB2_103 Depth=2
	movq	-56(%rbp), %rax
	movl	-112(%rbp), %ecx
	addl	-4(%rbp), %ecx
	movslq	%ecx, %rcx
	movl	(%rax,%rcx,4), %eax
	movl	%eax, -100(%rbp)
	movl	-4(%rbp), %eax
	movl	-60(%rbp), %ecx
                                        # kill: def %cl killed %ecx
	sarl	%cl, %eax
	movw	%ax, -66(%rbp)
	movw	-66(%rbp), %ax
	movq	-80(%rbp), %rcx
	movslq	-100(%rbp), %rdx
	movw	%ax, (%rcx,%rdx,2)
	cmpl	$34, -100(%rbp)
	jge	.LBB2_106
# %bb.105:                              #   in Loop: Header=BB2_103 Depth=2
	movw	-66(%rbp), %ax
	movq	-80(%rbp), %rcx
	movl	-100(%rbp), %edx
	addl	-36(%rbp), %edx
	movslq	%edx, %rdx
	movw	%ax, (%rcx,%rdx,2)
.LBB2_106:                              #   in Loop: Header=BB2_103 Depth=2
	jmp	.LBB2_107
.LBB2_107:                              #   in Loop: Header=BB2_103 Depth=2
	movl	-4(%rbp), %eax
	addl	$-1, %eax
	movl	%eax, -4(%rbp)
	jmp	.LBB2_103
.LBB2_108:                              #   in Loop: Header=BB2_53 Depth=1
	movl	-104(%rbp), %eax
	subl	$1, %eax
	movl	-60(%rbp), %ecx
                                        # kill: def %cl killed %ecx
	sarl	%cl, %eax
	cmpl	$65535, %eax            # imm = 0xFFFF
	jle	.LBB2_110
# %bb.109:                              #   in Loop: Header=BB2_53 Depth=1
	movl	$1002, %edi             # imm = 0x3EA
	callq	BZ2_bz__AssertH__fail
.LBB2_110:                              #   in Loop: Header=BB2_53 Depth=1
	jmp	.LBB2_111
.LBB2_111:                              #   in Loop: Header=BB2_53 Depth=1
	jmp	.LBB2_112
.LBB2_112:                              #   in Loop: Header=BB2_53 Depth=1
	movl	-8(%rbp), %eax
	addl	$1, %eax
	movl	%eax, -8(%rbp)
	jmp	.LBB2_53
.LBB2_113:
	cmpl	$4, -96(%rbp)
	jl	.LBB2_115
# %bb.114:
	movabsq	$.L.str.8, %rsi
	movq	stderr, %rdi
	movl	-36(%rbp), %edx
	movl	-64(%rbp), %ecx
	movl	-36(%rbp), %r8d
	subl	-64(%rbp), %r8d
	movb	$0, %al
	callq	fprintf
.LBB2_115:
	addq	$3456, %rsp             # imm = 0xD80
	popq	%rbp
	retq
.Lfunc_end2:
	.size	mainSort, .Lfunc_end2-mainSort
	.cfi_endproc
                                        # -- End function
	.p2align	4, 0x90         # -- Begin function mainQSort3
	.type	mainQSort3,@function
mainQSort3:                             # @mainQSort3
	.cfi_startproc
# %bb.0:
	pushq	%rbp
	.cfi_def_cfa_offset 16
	.cfi_offset %rbp, -16
	movq	%rsp, %rbp
	.cfi_def_cfa_register %rbp
	subq	$1408, %rsp             # imm = 0x580
	movq	24(%rbp), %rax
	movl	16(%rbp), %eax
	movq	%rdi, -24(%rbp)
	movq	%rsi, -136(%rbp)
	movq	%rdx, -184(%rbp)
	movl	%ecx, -172(%rbp)
	movl	%r8d, -168(%rbp)
	movl	%r9d, -164(%rbp)
	movl	$0, -4(%rbp)
	movl	-168(%rbp), %eax
	movslq	-4(%rbp), %rcx
	movl	%eax, -1392(%rbp,%rcx,4)
	movl	-164(%rbp), %eax
	movslq	-4(%rbp), %rcx
	movl	%eax, -992(%rbp,%rcx,4)
	movl	16(%rbp), %eax
	movslq	-4(%rbp), %rcx
	movl	%eax, -592(%rbp,%rcx,4)
	movl	-4(%rbp), %eax
	addl	$1, %eax
	movl	%eax, -4(%rbp)
.LBB3_1:                                # =>This Loop Header: Depth=1
                                        #     Child Loop BB3_11 Depth 2
                                        #       Child Loop BB3_12 Depth 3
                                        #       Child Loop BB3_21 Depth 3
                                        #     Child Loop BB3_38 Depth 2
                                        #     Child Loop BB3_44 Depth 2
	cmpl	$0, -4(%rbp)
	jle	.LBB3_53
# %bb.2:                                #   in Loop: Header=BB3_1 Depth=1
	cmpl	$100, -4(%rbp)
	jl	.LBB3_4
# %bb.3:                                #   in Loop: Header=BB3_1 Depth=1
	movl	$1001, %edi             # imm = 0x3E9
	callq	BZ2_bz__AssertH__fail
.LBB3_4:                                #   in Loop: Header=BB3_1 Depth=1
	movl	-4(%rbp), %eax
	addl	$-1, %eax
	movl	%eax, -4(%rbp)
	movslq	-4(%rbp), %rax
	movl	-1392(%rbp,%rax,4), %eax
	movl	%eax, -36(%rbp)
	movslq	-4(%rbp), %rax
	movl	-992(%rbp,%rax,4), %eax
	movl	%eax, -32(%rbp)
	movslq	-4(%rbp), %rax
	movl	-592(%rbp,%rax,4), %eax
	movl	%eax, -28(%rbp)
	movl	-32(%rbp), %eax
	subl	-36(%rbp), %eax
	cmpl	$20, %eax
	jl	.LBB3_6
# %bb.5:                                #   in Loop: Header=BB3_1 Depth=1
	cmpl	$14, -28(%rbp)
	jle	.LBB3_10
.LBB3_6:                                #   in Loop: Header=BB3_1 Depth=1
	movq	-24(%rbp), %rdi
	movq	-136(%rbp), %rsi
	movq	-184(%rbp), %rdx
	movl	-172(%rbp), %ecx
	movl	-36(%rbp), %r8d
	movl	-32(%rbp), %r9d
	movl	-28(%rbp), %eax
	movq	24(%rbp), %r10
	movl	%eax, (%rsp)
	movq	%r10, 8(%rsp)
	callq	mainSimpleSort
	movq	24(%rbp), %rax
	cmpl	$0, (%rax)
	jge	.LBB3_8
# %bb.7:
	jmp	.LBB3_54
.LBB3_8:                                #   in Loop: Header=BB3_1 Depth=1
	jmp	.LBB3_9
.LBB3_9:                                # %.backedge2
                                        #   in Loop: Header=BB3_1 Depth=1
	jmp	.LBB3_1
.LBB3_10:                               #   in Loop: Header=BB3_1 Depth=1
	movq	-136(%rbp), %rax
	movq	-24(%rbp), %rcx
	movslq	-36(%rbp), %rdx
	movl	(%rcx,%rdx,4), %ecx
	addl	-28(%rbp), %ecx
	movl	%ecx, %ecx
	movb	(%rax,%rcx), %r8b
	movq	-136(%rbp), %rcx
	movq	-24(%rbp), %rdx
	movslq	-32(%rbp), %rsi
	movl	(%rdx,%rsi,4), %edx
	addl	-28(%rbp), %edx
	movl	%edx, %edx
	movb	(%rcx,%rdx), %cl
	movq	-136(%rbp), %rdx
	movq	-24(%rbp), %rsi
	movl	-36(%rbp), %edi
	addl	-32(%rbp), %edi
	sarl	$1, %edi
	movslq	%edi, %rdi
	movl	(%rsi,%rdi,4), %esi
	addl	-28(%rbp), %esi
	movl	%esi, %eax
	movzbl	%r8b, %edi
	movzbl	%cl, %esi
	movzbl	(%rdx,%rax), %edx
	callq	mmed3
	movzbl	%al, %eax
	movl	%eax, -140(%rbp)
	movl	-36(%rbp), %eax
	movl	%eax, -48(%rbp)
	movl	%eax, -8(%rbp)
	movl	-32(%rbp), %eax
	movl	%eax, -44(%rbp)
	movl	%eax, -12(%rbp)
.LBB3_11:                               #   Parent Loop BB3_1 Depth=1
                                        # =>  This Loop Header: Depth=2
                                        #       Child Loop BB3_12 Depth 3
                                        #       Child Loop BB3_21 Depth 3
	jmp	.LBB3_12
.LBB3_12:                               #   Parent Loop BB3_1 Depth=1
                                        #     Parent Loop BB3_11 Depth=2
                                        # =>    This Inner Loop Header: Depth=3
	movl	-8(%rbp), %eax
	cmpl	-12(%rbp), %eax
	jle	.LBB3_14
# %bb.13:                               #   in Loop: Header=BB3_11 Depth=2
	jmp	.LBB3_20
.LBB3_14:                               #   in Loop: Header=BB3_12 Depth=3
	movq	-136(%rbp), %rax
	movq	-24(%rbp), %rcx
	movslq	-8(%rbp), %rdx
	movl	(%rcx,%rdx,4), %ecx
	addl	-28(%rbp), %ecx
	movl	%ecx, %ecx
	movzbl	(%rax,%rcx), %eax
	subl	-140(%rbp), %eax
	movl	%eax, -40(%rbp)
	cmpl	$0, -40(%rbp)
	jne	.LBB3_17
# %bb.15:                               #   in Loop: Header=BB3_12 Depth=3
	movq	-24(%rbp), %rax
	movslq	-8(%rbp), %rcx
	movl	(%rax,%rcx,4), %eax
	movl	%eax, -160(%rbp)
	movq	-24(%rbp), %rax
	movslq	-48(%rbp), %rcx
	movl	(%rax,%rcx,4), %eax
	movq	-24(%rbp), %rcx
	movslq	-8(%rbp), %rdx
	movl	%eax, (%rcx,%rdx,4)
	movl	-160(%rbp), %eax
	movq	-24(%rbp), %rcx
	movslq	-48(%rbp), %rdx
	movl	%eax, (%rcx,%rdx,4)
	movl	-48(%rbp), %eax
	addl	$1, %eax
	movl	%eax, -48(%rbp)
	movl	-8(%rbp), %eax
	addl	$1, %eax
	movl	%eax, -8(%rbp)
.LBB3_16:                               # %.backedge1
                                        #   in Loop: Header=BB3_12 Depth=3
	jmp	.LBB3_12
.LBB3_17:                               #   in Loop: Header=BB3_12 Depth=3
	cmpl	$0, -40(%rbp)
	jle	.LBB3_19
# %bb.18:                               #   in Loop: Header=BB3_11 Depth=2
	jmp	.LBB3_20
.LBB3_19:                               #   in Loop: Header=BB3_12 Depth=3
	movl	-8(%rbp), %eax
	addl	$1, %eax
	movl	%eax, -8(%rbp)
	jmp	.LBB3_16
.LBB3_20:                               #   in Loop: Header=BB3_11 Depth=2
	jmp	.LBB3_21
.LBB3_21:                               #   Parent Loop BB3_1 Depth=1
                                        #     Parent Loop BB3_11 Depth=2
                                        # =>    This Inner Loop Header: Depth=3
	movl	-8(%rbp), %eax
	cmpl	-12(%rbp), %eax
	jle	.LBB3_23
# %bb.22:                               #   in Loop: Header=BB3_11 Depth=2
	jmp	.LBB3_29
.LBB3_23:                               #   in Loop: Header=BB3_21 Depth=3
	movq	-136(%rbp), %rax
	movq	-24(%rbp), %rcx
	movslq	-12(%rbp), %rdx
	movl	(%rcx,%rdx,4), %ecx
	addl	-28(%rbp), %ecx
	movl	%ecx, %ecx
	movzbl	(%rax,%rcx), %eax
	subl	-140(%rbp), %eax
	movl	%eax, -40(%rbp)
	cmpl	$0, -40(%rbp)
	jne	.LBB3_26
# %bb.24:                               #   in Loop: Header=BB3_21 Depth=3
	movq	-24(%rbp), %rax
	movslq	-12(%rbp), %rcx
	movl	(%rax,%rcx,4), %eax
	movl	%eax, -156(%rbp)
	movq	-24(%rbp), %rax
	movslq	-44(%rbp), %rcx
	movl	(%rax,%rcx,4), %eax
	movq	-24(%rbp), %rcx
	movslq	-12(%rbp), %rdx
	movl	%eax, (%rcx,%rdx,4)
	movl	-156(%rbp), %eax
	movq	-24(%rbp), %rcx
	movslq	-44(%rbp), %rdx
	movl	%eax, (%rcx,%rdx,4)
	movl	-44(%rbp), %eax
	addl	$-1, %eax
	movl	%eax, -44(%rbp)
	movl	-12(%rbp), %eax
	addl	$-1, %eax
	movl	%eax, -12(%rbp)
.LBB3_25:                               # %.backedge
                                        #   in Loop: Header=BB3_21 Depth=3
	jmp	.LBB3_21
.LBB3_26:                               #   in Loop: Header=BB3_21 Depth=3
	cmpl	$0, -40(%rbp)
	jge	.LBB3_28
# %bb.27:                               #   in Loop: Header=BB3_11 Depth=2
	jmp	.LBB3_29
.LBB3_28:                               #   in Loop: Header=BB3_21 Depth=3
	movl	-12(%rbp), %eax
	addl	$-1, %eax
	movl	%eax, -12(%rbp)
	jmp	.LBB3_25
.LBB3_29:                               #   in Loop: Header=BB3_11 Depth=2
	movl	-8(%rbp), %eax
	cmpl	-12(%rbp), %eax
	jle	.LBB3_31
# %bb.30:                               #   in Loop: Header=BB3_1 Depth=1
	jmp	.LBB3_32
.LBB3_31:                               #   in Loop: Header=BB3_11 Depth=2
	movq	-24(%rbp), %rax
	movslq	-8(%rbp), %rcx
	movl	(%rax,%rcx,4), %eax
	movl	%eax, -152(%rbp)
	movq	-24(%rbp), %rax
	movslq	-12(%rbp), %rcx
	movl	(%rax,%rcx,4), %eax
	movq	-24(%rbp), %rcx
	movslq	-8(%rbp), %rdx
	movl	%eax, (%rcx,%rdx,4)
	movl	-152(%rbp), %eax
	movq	-24(%rbp), %rcx
	movslq	-12(%rbp), %rdx
	movl	%eax, (%rcx,%rdx,4)
	movl	-8(%rbp), %eax
	addl	$1, %eax
	movl	%eax, -8(%rbp)
	movl	-12(%rbp), %eax
	addl	$-1, %eax
	movl	%eax, -12(%rbp)
	jmp	.LBB3_11
.LBB3_32:                               #   in Loop: Header=BB3_1 Depth=1
	movl	-44(%rbp), %eax
	cmpl	-48(%rbp), %eax
	jge	.LBB3_34
# %bb.33:                               #   in Loop: Header=BB3_1 Depth=1
	movl	-36(%rbp), %eax
	movslq	-4(%rbp), %rcx
	movl	%eax, -1392(%rbp,%rcx,4)
	movl	-32(%rbp), %eax
	movslq	-4(%rbp), %rcx
	movl	%eax, -992(%rbp,%rcx,4)
	movl	-28(%rbp), %eax
	addl	$1, %eax
	movslq	-4(%rbp), %rcx
	movl	%eax, -592(%rbp,%rcx,4)
	movl	-4(%rbp), %eax
	addl	$1, %eax
	movl	%eax, -4(%rbp)
	jmp	.LBB3_9
.LBB3_34:                               #   in Loop: Header=BB3_1 Depth=1
	movl	-48(%rbp), %eax
	subl	-36(%rbp), %eax
	movl	-8(%rbp), %ecx
	subl	-48(%rbp), %ecx
	cmpl	%ecx, %eax
	jge	.LBB3_36
# %bb.35:                               #   in Loop: Header=BB3_1 Depth=1
	movl	-48(%rbp), %eax
	subl	-36(%rbp), %eax
	jmp	.LBB3_37
.LBB3_36:                               #   in Loop: Header=BB3_1 Depth=1
	movl	-8(%rbp), %eax
	subl	-48(%rbp), %eax
.LBB3_37:                               #   in Loop: Header=BB3_1 Depth=1
	movl	%eax, -40(%rbp)
	movl	-36(%rbp), %eax
	movl	%eax, -116(%rbp)
	movl	-8(%rbp), %eax
	subl	-40(%rbp), %eax
	movl	%eax, -112(%rbp)
	movl	-40(%rbp), %eax
	movl	%eax, -124(%rbp)
.LBB3_38:                               #   Parent Loop BB3_1 Depth=1
                                        # =>  This Inner Loop Header: Depth=2
	cmpl	$0, -124(%rbp)
	jle	.LBB3_40
# %bb.39:                               #   in Loop: Header=BB3_38 Depth=2
	movq	-24(%rbp), %rax
	movslq	-116(%rbp), %rcx
	movl	(%rax,%rcx,4), %eax
	movl	%eax, -148(%rbp)
	movq	-24(%rbp), %rax
	movslq	-112(%rbp), %rcx
	movl	(%rax,%rcx,4), %eax
	movq	-24(%rbp), %rcx
	movslq	-116(%rbp), %rdx
	movl	%eax, (%rcx,%rdx,4)
	movl	-148(%rbp), %eax
	movq	-24(%rbp), %rcx
	movslq	-112(%rbp), %rdx
	movl	%eax, (%rcx,%rdx,4)
	movl	-116(%rbp), %eax
	addl	$1, %eax
	movl	%eax, -116(%rbp)
	movl	-112(%rbp), %eax
	addl	$1, %eax
	movl	%eax, -112(%rbp)
	movl	-124(%rbp), %eax
	addl	$-1, %eax
	movl	%eax, -124(%rbp)
	jmp	.LBB3_38
.LBB3_40:                               #   in Loop: Header=BB3_1 Depth=1
	movl	-32(%rbp), %eax
	subl	-44(%rbp), %eax
	movl	-44(%rbp), %ecx
	subl	-12(%rbp), %ecx
	cmpl	%ecx, %eax
	jge	.LBB3_42
# %bb.41:                               #   in Loop: Header=BB3_1 Depth=1
	movl	-32(%rbp), %eax
	subl	-44(%rbp), %eax
	jmp	.LBB3_43
.LBB3_42:                               #   in Loop: Header=BB3_1 Depth=1
	movl	-44(%rbp), %eax
	subl	-12(%rbp), %eax
.LBB3_43:                               #   in Loop: Header=BB3_1 Depth=1
	movl	%eax, -100(%rbp)
	movl	-8(%rbp), %eax
	movl	%eax, -108(%rbp)
	movl	-32(%rbp), %eax
	subl	-100(%rbp), %eax
	addl	$1, %eax
	movl	%eax, -104(%rbp)
	movl	-100(%rbp), %eax
	movl	%eax, -120(%rbp)
.LBB3_44:                               #   Parent Loop BB3_1 Depth=1
                                        # =>  This Inner Loop Header: Depth=2
	cmpl	$0, -120(%rbp)
	jle	.LBB3_46
# %bb.45:                               #   in Loop: Header=BB3_44 Depth=2
	movq	-24(%rbp), %rax
	movslq	-108(%rbp), %rcx
	movl	(%rax,%rcx,4), %eax
	movl	%eax, -144(%rbp)
	movq	-24(%rbp), %rax
	movslq	-104(%rbp), %rcx
	movl	(%rax,%rcx,4), %eax
	movq	-24(%rbp), %rcx
	movslq	-108(%rbp), %rdx
	movl	%eax, (%rcx,%rdx,4)
	movl	-144(%rbp), %eax
	movq	-24(%rbp), %rcx
	movslq	-104(%rbp), %rdx
	movl	%eax, (%rcx,%rdx,4)
	movl	-108(%rbp), %eax
	addl	$1, %eax
	movl	%eax, -108(%rbp)
	movl	-104(%rbp), %eax
	addl	$1, %eax
	movl	%eax, -104(%rbp)
	movl	-120(%rbp), %eax
	addl	$-1, %eax
	movl	%eax, -120(%rbp)
	jmp	.LBB3_44
.LBB3_46:                               #   in Loop: Header=BB3_1 Depth=1
	movl	-36(%rbp), %eax
	addl	-8(%rbp), %eax
	subl	-48(%rbp), %eax
	subl	$1, %eax
	movl	%eax, -40(%rbp)
	movl	-32(%rbp), %eax
	movl	-44(%rbp), %ecx
	subl	-12(%rbp), %ecx
	subl	%ecx, %eax
	addl	$1, %eax
	movl	%eax, -100(%rbp)
	movl	-36(%rbp), %eax
	movl	%eax, -72(%rbp)
	movl	-40(%rbp), %eax
	movl	%eax, -60(%rbp)
	movl	-28(%rbp), %eax
	movl	%eax, -96(%rbp)
	movl	-100(%rbp), %eax
	movl	%eax, -68(%rbp)
	movl	-32(%rbp), %eax
	movl	%eax, -56(%rbp)
	movl	-28(%rbp), %eax
	movl	%eax, -92(%rbp)
	movl	-40(%rbp), %eax
	addl	$1, %eax
	movl	%eax, -64(%rbp)
	movl	-100(%rbp), %eax
	subl	$1, %eax
	movl	%eax, -52(%rbp)
	movl	-28(%rbp), %eax
	addl	$1, %eax
	movl	%eax, -88(%rbp)
	movl	-60(%rbp), %eax
	subl	-72(%rbp), %eax
	movl	-56(%rbp), %ecx
	subl	-68(%rbp), %ecx
	cmpl	%ecx, %eax
	jge	.LBB3_48
# %bb.47:                               #   in Loop: Header=BB3_1 Depth=1
	movl	-72(%rbp), %eax
	movl	%eax, -84(%rbp)
	movl	-68(%rbp), %eax
	movl	%eax, -72(%rbp)
	movl	-84(%rbp), %eax
	movl	%eax, -68(%rbp)
	movl	-60(%rbp), %eax
	movl	%eax, -84(%rbp)
	movl	-56(%rbp), %eax
	movl	%eax, -60(%rbp)
	movl	-84(%rbp), %eax
	movl	%eax, -56(%rbp)
	movl	-96(%rbp), %eax
	movl	%eax, -84(%rbp)
	movl	-92(%rbp), %eax
	movl	%eax, -96(%rbp)
	movl	-84(%rbp), %eax
	movl	%eax, -92(%rbp)
.LBB3_48:                               #   in Loop: Header=BB3_1 Depth=1
	movl	-56(%rbp), %eax
	subl	-68(%rbp), %eax
	movl	-52(%rbp), %ecx
	subl	-64(%rbp), %ecx
	cmpl	%ecx, %eax
	jge	.LBB3_50
# %bb.49:                               #   in Loop: Header=BB3_1 Depth=1
	movl	-68(%rbp), %eax
	movl	%eax, -80(%rbp)
	movl	-64(%rbp), %eax
	movl	%eax, -68(%rbp)
	movl	-80(%rbp), %eax
	movl	%eax, -64(%rbp)
	movl	-56(%rbp), %eax
	movl	%eax, -80(%rbp)
	movl	-52(%rbp), %eax
	movl	%eax, -56(%rbp)
	movl	-80(%rbp), %eax
	movl	%eax, -52(%rbp)
	movl	-92(%rbp), %eax
	movl	%eax, -80(%rbp)
	movl	-88(%rbp), %eax
	movl	%eax, -92(%rbp)
	movl	-80(%rbp), %eax
	movl	%eax, -88(%rbp)
.LBB3_50:                               #   in Loop: Header=BB3_1 Depth=1
	movl	-60(%rbp), %eax
	subl	-72(%rbp), %eax
	movl	-56(%rbp), %ecx
	subl	-68(%rbp), %ecx
	cmpl	%ecx, %eax
	jge	.LBB3_52
# %bb.51:                               #   in Loop: Header=BB3_1 Depth=1
	movl	-72(%rbp), %eax
	movl	%eax, -76(%rbp)
	movl	-68(%rbp), %eax
	movl	%eax, -72(%rbp)
	movl	-76(%rbp), %eax
	movl	%eax, -68(%rbp)
	movl	-60(%rbp), %eax
	movl	%eax, -76(%rbp)
	movl	-56(%rbp), %eax
	movl	%eax, -60(%rbp)
	movl	-76(%rbp), %eax
	movl	%eax, -56(%rbp)
	movl	-96(%rbp), %eax
	movl	%eax, -76(%rbp)
	movl	-92(%rbp), %eax
	movl	%eax, -96(%rbp)
	movl	-76(%rbp), %eax
	movl	%eax, -92(%rbp)
.LBB3_52:                               #   in Loop: Header=BB3_1 Depth=1
	movl	-72(%rbp), %eax
	movslq	-4(%rbp), %rcx
	movl	%eax, -1392(%rbp,%rcx,4)
	movl	-60(%rbp), %eax
	movslq	-4(%rbp), %rcx
	movl	%eax, -992(%rbp,%rcx,4)
	movl	-96(%rbp), %eax
	movslq	-4(%rbp), %rcx
	movl	%eax, -592(%rbp,%rcx,4)
	movl	-4(%rbp), %eax
	addl	$1, %eax
	movl	%eax, -4(%rbp)
	movl	-68(%rbp), %eax
	movslq	-4(%rbp), %rcx
	movl	%eax, -1392(%rbp,%rcx,4)
	movl	-56(%rbp), %eax
	movslq	-4(%rbp), %rcx
	movl	%eax, -992(%rbp,%rcx,4)
	movl	-92(%rbp), %eax
	movslq	-4(%rbp), %rcx
	movl	%eax, -592(%rbp,%rcx,4)
	movl	-4(%rbp), %eax
	addl	$1, %eax
	movl	%eax, -4(%rbp)
	movl	-64(%rbp), %eax
	movslq	-4(%rbp), %rcx
	movl	%eax, -1392(%rbp,%rcx,4)
	movl	-52(%rbp), %eax
	movslq	-4(%rbp), %rcx
	movl	%eax, -992(%rbp,%rcx,4)
	movl	-88(%rbp), %eax
	movslq	-4(%rbp), %rcx
	movl	%eax, -592(%rbp,%rcx,4)
	movl	-4(%rbp), %eax
	addl	$1, %eax
	movl	%eax, -4(%rbp)
	jmp	.LBB3_9
.LBB3_53:                               # %.loopexit
	jmp	.LBB3_54
.LBB3_54:
	addq	$1408, %rsp             # imm = 0x580
	popq	%rbp
	retq
.Lfunc_end3:
	.size	mainQSort3, .Lfunc_end3-mainQSort3
	.cfi_endproc
                                        # -- End function
	.p2align	4, 0x90         # -- Begin function mainSimpleSort
	.type	mainSimpleSort,@function
mainSimpleSort:                         # @mainSimpleSort
	.cfi_startproc
# %bb.0:
	pushq	%rbp
	.cfi_def_cfa_offset 16
	.cfi_offset %rbp, -16
	movq	%rsp, %rbp
	.cfi_def_cfa_register %rbp
	subq	$64, %rsp
	movq	24(%rbp), %rax
	movl	16(%rbp), %eax
	movq	%rdi, -32(%rbp)
	movq	%rsi, -64(%rbp)
	movq	%rdx, -56(%rbp)
	movl	%ecx, -44(%rbp)
	movl	%r8d, -36(%rbp)
	movl	%r9d, -40(%rbp)
	movl	-40(%rbp), %eax
	subl	-36(%rbp), %eax
	addl	$1, %eax
	movl	%eax, -48(%rbp)
	cmpl	$2, -48(%rbp)
	jge	.LBB4_2
# %bb.1:
	jmp	.LBB4_38
.LBB4_2:
	movl	$0, -16(%rbp)
.LBB4_3:                                # =>This Inner Loop Header: Depth=1
	movslq	-16(%rbp), %rax
	movl	incs(,%rax,4), %eax
	cmpl	-48(%rbp), %eax
	jge	.LBB4_5
# %bb.4:                                #   in Loop: Header=BB4_3 Depth=1
	movl	-16(%rbp), %eax
	addl	$1, %eax
	movl	%eax, -16(%rbp)
	jmp	.LBB4_3
.LBB4_5:
	movl	-16(%rbp), %eax
	addl	$-1, %eax
	movl	%eax, -16(%rbp)
.LBB4_6:                                # =>This Loop Header: Depth=1
                                        #     Child Loop BB4_8 Depth 2
                                        #       Child Loop BB4_11 Depth 3
                                        #       Child Loop BB4_19 Depth 3
                                        #       Child Loop BB4_27 Depth 3
	cmpl	$0, -16(%rbp)
	jl	.LBB4_37
# %bb.7:                                #   in Loop: Header=BB4_6 Depth=1
	movslq	-16(%rbp), %rax
	movl	incs(,%rax,4), %eax
	movl	%eax, -12(%rbp)
	movl	-36(%rbp), %eax
	addl	-12(%rbp), %eax
	movl	%eax, -8(%rbp)
.LBB4_8:                                #   Parent Loop BB4_6 Depth=1
                                        # =>  This Loop Header: Depth=2
                                        #       Child Loop BB4_11 Depth 3
                                        #       Child Loop BB4_19 Depth 3
                                        #       Child Loop BB4_27 Depth 3
	movl	-8(%rbp), %eax
	cmpl	-40(%rbp), %eax
	jle	.LBB4_10
# %bb.9:                                #   in Loop: Header=BB4_6 Depth=1
	jmp	.LBB4_35
.LBB4_10:                               #   in Loop: Header=BB4_8 Depth=2
	movq	-32(%rbp), %rax
	movslq	-8(%rbp), %rcx
	movl	(%rax,%rcx,4), %eax
	movl	%eax, -20(%rbp)
	movl	-8(%rbp), %eax
	movl	%eax, -4(%rbp)
.LBB4_11:                               #   Parent Loop BB4_6 Depth=1
                                        #     Parent Loop BB4_8 Depth=2
                                        # =>    This Inner Loop Header: Depth=3
	movq	-32(%rbp), %rax
	movl	-4(%rbp), %ecx
	subl	-12(%rbp), %ecx
	movslq	%ecx, %rcx
	movl	(%rax,%rcx,4), %edi
	addl	16(%rbp), %edi
	movl	-20(%rbp), %esi
	addl	16(%rbp), %esi
	movq	-64(%rbp), %rdx
	movq	-56(%rbp), %rcx
	movl	-44(%rbp), %r8d
	movq	24(%rbp), %r9
	callq	mainGtU
	cmpb	$0, %al
	je	.LBB4_15
# %bb.12:                               #   in Loop: Header=BB4_11 Depth=3
	movq	-32(%rbp), %rax
	movl	-4(%rbp), %ecx
	subl	-12(%rbp), %ecx
	movslq	%ecx, %rcx
	movl	(%rax,%rcx,4), %eax
	movq	-32(%rbp), %rcx
	movslq	-4(%rbp), %rdx
	movl	%eax, (%rcx,%rdx,4)
	movl	-4(%rbp), %eax
	subl	-12(%rbp), %eax
	movl	%eax, -4(%rbp)
	movl	-4(%rbp), %eax
	movl	-36(%rbp), %ecx
	addl	-12(%rbp), %ecx
	subl	$1, %ecx
	cmpl	%ecx, %eax
	jg	.LBB4_14
# %bb.13:                               #   in Loop: Header=BB4_8 Depth=2
	jmp	.LBB4_16
.LBB4_14:                               #   in Loop: Header=BB4_11 Depth=3
	jmp	.LBB4_11
.LBB4_15:                               # %.loopexit2
                                        #   in Loop: Header=BB4_8 Depth=2
	jmp	.LBB4_16
.LBB4_16:                               #   in Loop: Header=BB4_8 Depth=2
	movl	-20(%rbp), %eax
	movq	-32(%rbp), %rcx
	movslq	-4(%rbp), %rdx
	movl	%eax, (%rcx,%rdx,4)
	movl	-8(%rbp), %eax
	addl	$1, %eax
	movl	%eax, -8(%rbp)
	movl	-8(%rbp), %eax
	cmpl	-40(%rbp), %eax
	jle	.LBB4_18
# %bb.17:                               #   in Loop: Header=BB4_6 Depth=1
	jmp	.LBB4_35
.LBB4_18:                               #   in Loop: Header=BB4_8 Depth=2
	movq	-32(%rbp), %rax
	movslq	-8(%rbp), %rcx
	movl	(%rax,%rcx,4), %eax
	movl	%eax, -20(%rbp)
	movl	-8(%rbp), %eax
	movl	%eax, -4(%rbp)
.LBB4_19:                               #   Parent Loop BB4_6 Depth=1
                                        #     Parent Loop BB4_8 Depth=2
                                        # =>    This Inner Loop Header: Depth=3
	movq	-32(%rbp), %rax
	movl	-4(%rbp), %ecx
	subl	-12(%rbp), %ecx
	movslq	%ecx, %rcx
	movl	(%rax,%rcx,4), %edi
	addl	16(%rbp), %edi
	movl	-20(%rbp), %esi
	addl	16(%rbp), %esi
	movq	-64(%rbp), %rdx
	movq	-56(%rbp), %rcx
	movl	-44(%rbp), %r8d
	movq	24(%rbp), %r9
	callq	mainGtU
	cmpb	$0, %al
	je	.LBB4_23
# %bb.20:                               #   in Loop: Header=BB4_19 Depth=3
	movq	-32(%rbp), %rax
	movl	-4(%rbp), %ecx
	subl	-12(%rbp), %ecx
	movslq	%ecx, %rcx
	movl	(%rax,%rcx,4), %eax
	movq	-32(%rbp), %rcx
	movslq	-4(%rbp), %rdx
	movl	%eax, (%rcx,%rdx,4)
	movl	-4(%rbp), %eax
	subl	-12(%rbp), %eax
	movl	%eax, -4(%rbp)
	movl	-4(%rbp), %eax
	movl	-36(%rbp), %ecx
	addl	-12(%rbp), %ecx
	subl	$1, %ecx
	cmpl	%ecx, %eax
	jg	.LBB4_22
# %bb.21:                               #   in Loop: Header=BB4_8 Depth=2
	jmp	.LBB4_24
.LBB4_22:                               #   in Loop: Header=BB4_19 Depth=3
	jmp	.LBB4_19
.LBB4_23:                               # %.loopexit1
                                        #   in Loop: Header=BB4_8 Depth=2
	jmp	.LBB4_24
.LBB4_24:                               #   in Loop: Header=BB4_8 Depth=2
	movl	-20(%rbp), %eax
	movq	-32(%rbp), %rcx
	movslq	-4(%rbp), %rdx
	movl	%eax, (%rcx,%rdx,4)
	movl	-8(%rbp), %eax
	addl	$1, %eax
	movl	%eax, -8(%rbp)
	movl	-8(%rbp), %eax
	cmpl	-40(%rbp), %eax
	jle	.LBB4_26
# %bb.25:                               #   in Loop: Header=BB4_6 Depth=1
	jmp	.LBB4_35
.LBB4_26:                               #   in Loop: Header=BB4_8 Depth=2
	movq	-32(%rbp), %rax
	movslq	-8(%rbp), %rcx
	movl	(%rax,%rcx,4), %eax
	movl	%eax, -20(%rbp)
	movl	-8(%rbp), %eax
	movl	%eax, -4(%rbp)
.LBB4_27:                               #   Parent Loop BB4_6 Depth=1
                                        #     Parent Loop BB4_8 Depth=2
                                        # =>    This Inner Loop Header: Depth=3
	movq	-32(%rbp), %rax
	movl	-4(%rbp), %ecx
	subl	-12(%rbp), %ecx
	movslq	%ecx, %rcx
	movl	(%rax,%rcx,4), %edi
	addl	16(%rbp), %edi
	movl	-20(%rbp), %esi
	addl	16(%rbp), %esi
	movq	-64(%rbp), %rdx
	movq	-56(%rbp), %rcx
	movl	-44(%rbp), %r8d
	movq	24(%rbp), %r9
	callq	mainGtU
	cmpb	$0, %al
	je	.LBB4_31
# %bb.28:                               #   in Loop: Header=BB4_27 Depth=3
	movq	-32(%rbp), %rax
	movl	-4(%rbp), %ecx
	subl	-12(%rbp), %ecx
	movslq	%ecx, %rcx
	movl	(%rax,%rcx,4), %eax
	movq	-32(%rbp), %rcx
	movslq	-4(%rbp), %rdx
	movl	%eax, (%rcx,%rdx,4)
	movl	-4(%rbp), %eax
	subl	-12(%rbp), %eax
	movl	%eax, -4(%rbp)
	movl	-4(%rbp), %eax
	movl	-36(%rbp), %ecx
	addl	-12(%rbp), %ecx
	subl	$1, %ecx
	cmpl	%ecx, %eax
	jg	.LBB4_30
# %bb.29:                               #   in Loop: Header=BB4_8 Depth=2
	jmp	.LBB4_32
.LBB4_30:                               #   in Loop: Header=BB4_27 Depth=3
	jmp	.LBB4_27
.LBB4_31:                               # %.loopexit
                                        #   in Loop: Header=BB4_8 Depth=2
	jmp	.LBB4_32
.LBB4_32:                               #   in Loop: Header=BB4_8 Depth=2
	movl	-20(%rbp), %eax
	movq	-32(%rbp), %rcx
	movslq	-4(%rbp), %rdx
	movl	%eax, (%rcx,%rdx,4)
	movl	-8(%rbp), %eax
	addl	$1, %eax
	movl	%eax, -8(%rbp)
	movq	24(%rbp), %rax
	cmpl	$0, (%rax)
	jge	.LBB4_34
# %bb.33:
	jmp	.LBB4_38
.LBB4_34:                               #   in Loop: Header=BB4_8 Depth=2
	jmp	.LBB4_8
.LBB4_35:                               #   in Loop: Header=BB4_6 Depth=1
	jmp	.LBB4_36
.LBB4_36:                               #   in Loop: Header=BB4_6 Depth=1
	movl	-16(%rbp), %eax
	addl	$-1, %eax
	movl	%eax, -16(%rbp)
	jmp	.LBB4_6
.LBB4_37:                               # %.loopexit3
	jmp	.LBB4_38
.LBB4_38:
	addq	$64, %rsp
	popq	%rbp
	retq
.Lfunc_end4:
	.size	mainSimpleSort, .Lfunc_end4-mainSimpleSort
	.cfi_endproc
                                        # -- End function
	.p2align	4, 0x90         # -- Begin function mmed3
	.type	mmed3,@function
mmed3:                                  # @mmed3
	.cfi_startproc
# %bb.0:
	pushq	%rbp
	.cfi_def_cfa_offset 16
	.cfi_offset %rbp, -16
	movq	%rsp, %rbp
	.cfi_def_cfa_register %rbp
	movb	%dil, -2(%rbp)
	movb	%sil, -1(%rbp)
	movb	%dl, -3(%rbp)
	movzbl	-2(%rbp), %eax
	movzbl	-1(%rbp), %ecx
	cmpl	%ecx, %eax
	jle	.LBB5_2
# %bb.1:
	movb	-2(%rbp), %al
	movb	%al, -4(%rbp)
	movb	-1(%rbp), %al
	movb	%al, -2(%rbp)
	movb	-4(%rbp), %al
	movb	%al, -1(%rbp)
.LBB5_2:
	movzbl	-1(%rbp), %eax
	movzbl	-3(%rbp), %ecx
	cmpl	%ecx, %eax
	jle	.LBB5_6
# %bb.3:
	movb	-3(%rbp), %al
	movb	%al, -1(%rbp)
	movzbl	-2(%rbp), %eax
	movzbl	-1(%rbp), %ecx
	cmpl	%ecx, %eax
	jle	.LBB5_5
# %bb.4:
	movb	-2(%rbp), %al
	movb	%al, -1(%rbp)
.LBB5_5:
	jmp	.LBB5_6
.LBB5_6:
	movzbl	-1(%rbp), %eax
	popq	%rbp
	retq
.Lfunc_end5:
	.size	mmed3, .Lfunc_end5-mmed3
	.cfi_endproc
                                        # -- End function
	.p2align	4, 0x90         # -- Begin function mainGtU
	.type	mainGtU,@function
mainGtU:                                # @mainGtU
	.cfi_startproc
# %bb.0:
	pushq	%rbp
	.cfi_def_cfa_offset 16
	.cfi_offset %rbp, -16
	movq	%rsp, %rbp
	.cfi_def_cfa_register %rbp
	movl	%edi, -12(%rbp)
	movl	%esi, -8(%rbp)
	movq	%rdx, -24(%rbp)
	movq	%rcx, -32(%rbp)
	movl	%r8d, -36(%rbp)
	movq	%r9, -48(%rbp)
	movq	-24(%rbp), %rax
	movl	-12(%rbp), %ecx
	movb	(%rax,%rcx), %al
	movb	%al, -2(%rbp)
	movq	-24(%rbp), %rax
	movl	-8(%rbp), %ecx
	movb	(%rax,%rcx), %al
	movb	%al, -1(%rbp)
	movzbl	-2(%rbp), %eax
	movzbl	-1(%rbp), %ecx
	cmpl	%ecx, %eax
	je	.LBB6_2
# %bb.1:
	movzbl	-2(%rbp), %eax
	movzbl	-1(%rbp), %ecx
	cmpl	%ecx, %eax
	setg	%al
	andb	$1, %al
	movzbl	%al, %eax
	movb	%al, -3(%rbp)
	jmp	.LBB6_64
.LBB6_2:
	movl	-12(%rbp), %eax
	addl	$1, %eax
	movl	%eax, -12(%rbp)
	movl	-8(%rbp), %eax
	addl	$1, %eax
	movl	%eax, -8(%rbp)
	movq	-24(%rbp), %rax
	movl	-12(%rbp), %ecx
	movb	(%rax,%rcx), %al
	movb	%al, -2(%rbp)
	movq	-24(%rbp), %rax
	movl	-8(%rbp), %ecx
	movb	(%rax,%rcx), %al
	movb	%al, -1(%rbp)
	movzbl	-2(%rbp), %eax
	movzbl	-1(%rbp), %ecx
	cmpl	%ecx, %eax
	je	.LBB6_4
# %bb.3:
	movzbl	-2(%rbp), %eax
	movzbl	-1(%rbp), %ecx
	cmpl	%ecx, %eax
	setg	%al
	andb	$1, %al
	movzbl	%al, %eax
	movb	%al, -3(%rbp)
	jmp	.LBB6_64
.LBB6_4:
	movl	-12(%rbp), %eax
	addl	$1, %eax
	movl	%eax, -12(%rbp)
	movl	-8(%rbp), %eax
	addl	$1, %eax
	movl	%eax, -8(%rbp)
	movq	-24(%rbp), %rax
	movl	-12(%rbp), %ecx
	movb	(%rax,%rcx), %al
	movb	%al, -2(%rbp)
	movq	-24(%rbp), %rax
	movl	-8(%rbp), %ecx
	movb	(%rax,%rcx), %al
	movb	%al, -1(%rbp)
	movzbl	-2(%rbp), %eax
	movzbl	-1(%rbp), %ecx
	cmpl	%ecx, %eax
	je	.LBB6_6
# %bb.5:
	movzbl	-2(%rbp), %eax
	movzbl	-1(%rbp), %ecx
	cmpl	%ecx, %eax
	setg	%al
	andb	$1, %al
	movzbl	%al, %eax
	movb	%al, -3(%rbp)
	jmp	.LBB6_64
.LBB6_6:
	movl	-12(%rbp), %eax
	addl	$1, %eax
	movl	%eax, -12(%rbp)
	movl	-8(%rbp), %eax
	addl	$1, %eax
	movl	%eax, -8(%rbp)
	movq	-24(%rbp), %rax
	movl	-12(%rbp), %ecx
	movb	(%rax,%rcx), %al
	movb	%al, -2(%rbp)
	movq	-24(%rbp), %rax
	movl	-8(%rbp), %ecx
	movb	(%rax,%rcx), %al
	movb	%al, -1(%rbp)
	movzbl	-2(%rbp), %eax
	movzbl	-1(%rbp), %ecx
	cmpl	%ecx, %eax
	je	.LBB6_8
# %bb.7:
	movzbl	-2(%rbp), %eax
	movzbl	-1(%rbp), %ecx
	cmpl	%ecx, %eax
	setg	%al
	andb	$1, %al
	movzbl	%al, %eax
	movb	%al, -3(%rbp)
	jmp	.LBB6_64
.LBB6_8:
	movl	-12(%rbp), %eax
	addl	$1, %eax
	movl	%eax, -12(%rbp)
	movl	-8(%rbp), %eax
	addl	$1, %eax
	movl	%eax, -8(%rbp)
	movq	-24(%rbp), %rax
	movl	-12(%rbp), %ecx
	movb	(%rax,%rcx), %al
	movb	%al, -2(%rbp)
	movq	-24(%rbp), %rax
	movl	-8(%rbp), %ecx
	movb	(%rax,%rcx), %al
	movb	%al, -1(%rbp)
	movzbl	-2(%rbp), %eax
	movzbl	-1(%rbp), %ecx
	cmpl	%ecx, %eax
	je	.LBB6_10
# %bb.9:
	movzbl	-2(%rbp), %eax
	movzbl	-1(%rbp), %ecx
	cmpl	%ecx, %eax
	setg	%al
	andb	$1, %al
	movzbl	%al, %eax
	movb	%al, -3(%rbp)
	jmp	.LBB6_64
.LBB6_10:
	movl	-12(%rbp), %eax
	addl	$1, %eax
	movl	%eax, -12(%rbp)
	movl	-8(%rbp), %eax
	addl	$1, %eax
	movl	%eax, -8(%rbp)
	movq	-24(%rbp), %rax
	movl	-12(%rbp), %ecx
	movb	(%rax,%rcx), %al
	movb	%al, -2(%rbp)
	movq	-24(%rbp), %rax
	movl	-8(%rbp), %ecx
	movb	(%rax,%rcx), %al
	movb	%al, -1(%rbp)
	movzbl	-2(%rbp), %eax
	movzbl	-1(%rbp), %ecx
	cmpl	%ecx, %eax
	je	.LBB6_12
# %bb.11:
	movzbl	-2(%rbp), %eax
	movzbl	-1(%rbp), %ecx
	cmpl	%ecx, %eax
	setg	%al
	andb	$1, %al
	movzbl	%al, %eax
	movb	%al, -3(%rbp)
	jmp	.LBB6_64
.LBB6_12:
	movl	-12(%rbp), %eax
	addl	$1, %eax
	movl	%eax, -12(%rbp)
	movl	-8(%rbp), %eax
	addl	$1, %eax
	movl	%eax, -8(%rbp)
	movq	-24(%rbp), %rax
	movl	-12(%rbp), %ecx
	movb	(%rax,%rcx), %al
	movb	%al, -2(%rbp)
	movq	-24(%rbp), %rax
	movl	-8(%rbp), %ecx
	movb	(%rax,%rcx), %al
	movb	%al, -1(%rbp)
	movzbl	-2(%rbp), %eax
	movzbl	-1(%rbp), %ecx
	cmpl	%ecx, %eax
	je	.LBB6_14
# %bb.13:
	movzbl	-2(%rbp), %eax
	movzbl	-1(%rbp), %ecx
	cmpl	%ecx, %eax
	setg	%al
	andb	$1, %al
	movzbl	%al, %eax
	movb	%al, -3(%rbp)
	jmp	.LBB6_64
.LBB6_14:
	movl	-12(%rbp), %eax
	addl	$1, %eax
	movl	%eax, -12(%rbp)
	movl	-8(%rbp), %eax
	addl	$1, %eax
	movl	%eax, -8(%rbp)
	movq	-24(%rbp), %rax
	movl	-12(%rbp), %ecx
	movb	(%rax,%rcx), %al
	movb	%al, -2(%rbp)
	movq	-24(%rbp), %rax
	movl	-8(%rbp), %ecx
	movb	(%rax,%rcx), %al
	movb	%al, -1(%rbp)
	movzbl	-2(%rbp), %eax
	movzbl	-1(%rbp), %ecx
	cmpl	%ecx, %eax
	je	.LBB6_16
# %bb.15:
	movzbl	-2(%rbp), %eax
	movzbl	-1(%rbp), %ecx
	cmpl	%ecx, %eax
	setg	%al
	andb	$1, %al
	movzbl	%al, %eax
	movb	%al, -3(%rbp)
	jmp	.LBB6_64
.LBB6_16:
	movl	-12(%rbp), %eax
	addl	$1, %eax
	movl	%eax, -12(%rbp)
	movl	-8(%rbp), %eax
	addl	$1, %eax
	movl	%eax, -8(%rbp)
	movq	-24(%rbp), %rax
	movl	-12(%rbp), %ecx
	movb	(%rax,%rcx), %al
	movb	%al, -2(%rbp)
	movq	-24(%rbp), %rax
	movl	-8(%rbp), %ecx
	movb	(%rax,%rcx), %al
	movb	%al, -1(%rbp)
	movzbl	-2(%rbp), %eax
	movzbl	-1(%rbp), %ecx
	cmpl	%ecx, %eax
	je	.LBB6_18
# %bb.17:
	movzbl	-2(%rbp), %eax
	movzbl	-1(%rbp), %ecx
	cmpl	%ecx, %eax
	setg	%al
	andb	$1, %al
	movzbl	%al, %eax
	movb	%al, -3(%rbp)
	jmp	.LBB6_64
.LBB6_18:
	movl	-12(%rbp), %eax
	addl	$1, %eax
	movl	%eax, -12(%rbp)
	movl	-8(%rbp), %eax
	addl	$1, %eax
	movl	%eax, -8(%rbp)
	movq	-24(%rbp), %rax
	movl	-12(%rbp), %ecx
	movb	(%rax,%rcx), %al
	movb	%al, -2(%rbp)
	movq	-24(%rbp), %rax
	movl	-8(%rbp), %ecx
	movb	(%rax,%rcx), %al
	movb	%al, -1(%rbp)
	movzbl	-2(%rbp), %eax
	movzbl	-1(%rbp), %ecx
	cmpl	%ecx, %eax
	je	.LBB6_20
# %bb.19:
	movzbl	-2(%rbp), %eax
	movzbl	-1(%rbp), %ecx
	cmpl	%ecx, %eax
	setg	%al
	andb	$1, %al
	movzbl	%al, %eax
	movb	%al, -3(%rbp)
	jmp	.LBB6_64
.LBB6_20:
	movl	-12(%rbp), %eax
	addl	$1, %eax
	movl	%eax, -12(%rbp)
	movl	-8(%rbp), %eax
	addl	$1, %eax
	movl	%eax, -8(%rbp)
	movq	-24(%rbp), %rax
	movl	-12(%rbp), %ecx
	movb	(%rax,%rcx), %al
	movb	%al, -2(%rbp)
	movq	-24(%rbp), %rax
	movl	-8(%rbp), %ecx
	movb	(%rax,%rcx), %al
	movb	%al, -1(%rbp)
	movzbl	-2(%rbp), %eax
	movzbl	-1(%rbp), %ecx
	cmpl	%ecx, %eax
	je	.LBB6_22
# %bb.21:
	movzbl	-2(%rbp), %eax
	movzbl	-1(%rbp), %ecx
	cmpl	%ecx, %eax
	setg	%al
	andb	$1, %al
	movzbl	%al, %eax
	movb	%al, -3(%rbp)
	jmp	.LBB6_64
.LBB6_22:
	movl	-12(%rbp), %eax
	addl	$1, %eax
	movl	%eax, -12(%rbp)
	movl	-8(%rbp), %eax
	addl	$1, %eax
	movl	%eax, -8(%rbp)
	movq	-24(%rbp), %rax
	movl	-12(%rbp), %ecx
	movb	(%rax,%rcx), %al
	movb	%al, -2(%rbp)
	movq	-24(%rbp), %rax
	movl	-8(%rbp), %ecx
	movb	(%rax,%rcx), %al
	movb	%al, -1(%rbp)
	movzbl	-2(%rbp), %eax
	movzbl	-1(%rbp), %ecx
	cmpl	%ecx, %eax
	je	.LBB6_24
# %bb.23:
	movzbl	-2(%rbp), %eax
	movzbl	-1(%rbp), %ecx
	cmpl	%ecx, %eax
	setg	%al
	andb	$1, %al
	movzbl	%al, %eax
	movb	%al, -3(%rbp)
	jmp	.LBB6_64
.LBB6_24:
	movl	-12(%rbp), %eax
	addl	$1, %eax
	movl	%eax, -12(%rbp)
	movl	-8(%rbp), %eax
	addl	$1, %eax
	movl	%eax, -8(%rbp)
	movl	-36(%rbp), %eax
	addl	$8, %eax
	movl	%eax, -40(%rbp)
.LBB6_25:                               # =>This Inner Loop Header: Depth=1
	movq	-24(%rbp), %rax
	movl	-12(%rbp), %ecx
	movb	(%rax,%rcx), %al
	movb	%al, -2(%rbp)
	movq	-24(%rbp), %rax
	movl	-8(%rbp), %ecx
	movb	(%rax,%rcx), %al
	movb	%al, -1(%rbp)
	movzbl	-2(%rbp), %eax
	movzbl	-1(%rbp), %ecx
	cmpl	%ecx, %eax
	je	.LBB6_27
# %bb.26:
	movzbl	-2(%rbp), %eax
	movzbl	-1(%rbp), %ecx
	cmpl	%ecx, %eax
	setg	%al
	andb	$1, %al
	movzbl	%al, %eax
	movb	%al, -3(%rbp)
	jmp	.LBB6_64
.LBB6_27:                               #   in Loop: Header=BB6_25 Depth=1
	movq	-32(%rbp), %rax
	movl	-12(%rbp), %ecx
	movw	(%rax,%rcx,2), %ax
	movw	%ax, -16(%rbp)
	movq	-32(%rbp), %rax
	movl	-8(%rbp), %ecx
	movw	(%rax,%rcx,2), %ax
	movw	%ax, -14(%rbp)
	movzwl	-16(%rbp), %eax
	movzwl	-14(%rbp), %ecx
	cmpl	%ecx, %eax
	je	.LBB6_29
# %bb.28:
	movzwl	-16(%rbp), %eax
	movzwl	-14(%rbp), %ecx
	cmpl	%ecx, %eax
	setg	%al
	andb	$1, %al
	movzbl	%al, %eax
	movb	%al, -3(%rbp)
	jmp	.LBB6_64
.LBB6_29:                               #   in Loop: Header=BB6_25 Depth=1
	movl	-12(%rbp), %eax
	addl	$1, %eax
	movl	%eax, -12(%rbp)
	movl	-8(%rbp), %eax
	addl	$1, %eax
	movl	%eax, -8(%rbp)
	movq	-24(%rbp), %rax
	movl	-12(%rbp), %ecx
	movb	(%rax,%rcx), %al
	movb	%al, -2(%rbp)
	movq	-24(%rbp), %rax
	movl	-8(%rbp), %ecx
	movb	(%rax,%rcx), %al
	movb	%al, -1(%rbp)
	movzbl	-2(%rbp), %eax
	movzbl	-1(%rbp), %ecx
	cmpl	%ecx, %eax
	je	.LBB6_31
# %bb.30:
	movzbl	-2(%rbp), %eax
	movzbl	-1(%rbp), %ecx
	cmpl	%ecx, %eax
	setg	%al
	andb	$1, %al
	movzbl	%al, %eax
	movb	%al, -3(%rbp)
	jmp	.LBB6_64
.LBB6_31:                               #   in Loop: Header=BB6_25 Depth=1
	movq	-32(%rbp), %rax
	movl	-12(%rbp), %ecx
	movw	(%rax,%rcx,2), %ax
	movw	%ax, -16(%rbp)
	movq	-32(%rbp), %rax
	movl	-8(%rbp), %ecx
	movw	(%rax,%rcx,2), %ax
	movw	%ax, -14(%rbp)
	movzwl	-16(%rbp), %eax
	movzwl	-14(%rbp), %ecx
	cmpl	%ecx, %eax
	je	.LBB6_33
# %bb.32:
	movzwl	-16(%rbp), %eax
	movzwl	-14(%rbp), %ecx
	cmpl	%ecx, %eax
	setg	%al
	andb	$1, %al
	movzbl	%al, %eax
	movb	%al, -3(%rbp)
	jmp	.LBB6_64
.LBB6_33:                               #   in Loop: Header=BB6_25 Depth=1
	movl	-12(%rbp), %eax
	addl	$1, %eax
	movl	%eax, -12(%rbp)
	movl	-8(%rbp), %eax
	addl	$1, %eax
	movl	%eax, -8(%rbp)
	movq	-24(%rbp), %rax
	movl	-12(%rbp), %ecx
	movb	(%rax,%rcx), %al
	movb	%al, -2(%rbp)
	movq	-24(%rbp), %rax
	movl	-8(%rbp), %ecx
	movb	(%rax,%rcx), %al
	movb	%al, -1(%rbp)
	movzbl	-2(%rbp), %eax
	movzbl	-1(%rbp), %ecx
	cmpl	%ecx, %eax
	je	.LBB6_35
# %bb.34:
	movzbl	-2(%rbp), %eax
	movzbl	-1(%rbp), %ecx
	cmpl	%ecx, %eax
	setg	%al
	andb	$1, %al
	movzbl	%al, %eax
	movb	%al, -3(%rbp)
	jmp	.LBB6_64
.LBB6_35:                               #   in Loop: Header=BB6_25 Depth=1
	movq	-32(%rbp), %rax
	movl	-12(%rbp), %ecx
	movw	(%rax,%rcx,2), %ax
	movw	%ax, -16(%rbp)
	movq	-32(%rbp), %rax
	movl	-8(%rbp), %ecx
	movw	(%rax,%rcx,2), %ax
	movw	%ax, -14(%rbp)
	movzwl	-16(%rbp), %eax
	movzwl	-14(%rbp), %ecx
	cmpl	%ecx, %eax
	je	.LBB6_37
# %bb.36:
	movzwl	-16(%rbp), %eax
	movzwl	-14(%rbp), %ecx
	cmpl	%ecx, %eax
	setg	%al
	andb	$1, %al
	movzbl	%al, %eax
	movb	%al, -3(%rbp)
	jmp	.LBB6_64
.LBB6_37:                               #   in Loop: Header=BB6_25 Depth=1
	movl	-12(%rbp), %eax
	addl	$1, %eax
	movl	%eax, -12(%rbp)
	movl	-8(%rbp), %eax
	addl	$1, %eax
	movl	%eax, -8(%rbp)
	movq	-24(%rbp), %rax
	movl	-12(%rbp), %ecx
	movb	(%rax,%rcx), %al
	movb	%al, -2(%rbp)
	movq	-24(%rbp), %rax
	movl	-8(%rbp), %ecx
	movb	(%rax,%rcx), %al
	movb	%al, -1(%rbp)
	movzbl	-2(%rbp), %eax
	movzbl	-1(%rbp), %ecx
	cmpl	%ecx, %eax
	je	.LBB6_39
# %bb.38:
	movzbl	-2(%rbp), %eax
	movzbl	-1(%rbp), %ecx
	cmpl	%ecx, %eax
	setg	%al
	andb	$1, %al
	movzbl	%al, %eax
	movb	%al, -3(%rbp)
	jmp	.LBB6_64
.LBB6_39:                               #   in Loop: Header=BB6_25 Depth=1
	movq	-32(%rbp), %rax
	movl	-12(%rbp), %ecx
	movw	(%rax,%rcx,2), %ax
	movw	%ax, -16(%rbp)
	movq	-32(%rbp), %rax
	movl	-8(%rbp), %ecx
	movw	(%rax,%rcx,2), %ax
	movw	%ax, -14(%rbp)
	movzwl	-16(%rbp), %eax
	movzwl	-14(%rbp), %ecx
	cmpl	%ecx, %eax
	je	.LBB6_41
# %bb.40:
	movzwl	-16(%rbp), %eax
	movzwl	-14(%rbp), %ecx
	cmpl	%ecx, %eax
	setg	%al
	andb	$1, %al
	movzbl	%al, %eax
	movb	%al, -3(%rbp)
	jmp	.LBB6_64
.LBB6_41:                               #   in Loop: Header=BB6_25 Depth=1
	movl	-12(%rbp), %eax
	addl	$1, %eax
	movl	%eax, -12(%rbp)
	movl	-8(%rbp), %eax
	addl	$1, %eax
	movl	%eax, -8(%rbp)
	movq	-24(%rbp), %rax
	movl	-12(%rbp), %ecx
	movb	(%rax,%rcx), %al
	movb	%al, -2(%rbp)
	movq	-24(%rbp), %rax
	movl	-8(%rbp), %ecx
	movb	(%rax,%rcx), %al
	movb	%al, -1(%rbp)
	movzbl	-2(%rbp), %eax
	movzbl	-1(%rbp), %ecx
	cmpl	%ecx, %eax
	je	.LBB6_43
# %bb.42:
	movzbl	-2(%rbp), %eax
	movzbl	-1(%rbp), %ecx
	cmpl	%ecx, %eax
	setg	%al
	andb	$1, %al
	movzbl	%al, %eax
	movb	%al, -3(%rbp)
	jmp	.LBB6_64
.LBB6_43:                               #   in Loop: Header=BB6_25 Depth=1
	movq	-32(%rbp), %rax
	movl	-12(%rbp), %ecx
	movw	(%rax,%rcx,2), %ax
	movw	%ax, -16(%rbp)
	movq	-32(%rbp), %rax
	movl	-8(%rbp), %ecx
	movw	(%rax,%rcx,2), %ax
	movw	%ax, -14(%rbp)
	movzwl	-16(%rbp), %eax
	movzwl	-14(%rbp), %ecx
	cmpl	%ecx, %eax
	je	.LBB6_45
# %bb.44:
	movzwl	-16(%rbp), %eax
	movzwl	-14(%rbp), %ecx
	cmpl	%ecx, %eax
	setg	%al
	andb	$1, %al
	movzbl	%al, %eax
	movb	%al, -3(%rbp)
	jmp	.LBB6_64
.LBB6_45:                               #   in Loop: Header=BB6_25 Depth=1
	movl	-12(%rbp), %eax
	addl	$1, %eax
	movl	%eax, -12(%rbp)
	movl	-8(%rbp), %eax
	addl	$1, %eax
	movl	%eax, -8(%rbp)
	movq	-24(%rbp), %rax
	movl	-12(%rbp), %ecx
	movb	(%rax,%rcx), %al
	movb	%al, -2(%rbp)
	movq	-24(%rbp), %rax
	movl	-8(%rbp), %ecx
	movb	(%rax,%rcx), %al
	movb	%al, -1(%rbp)
	movzbl	-2(%rbp), %eax
	movzbl	-1(%rbp), %ecx
	cmpl	%ecx, %eax
	je	.LBB6_47
# %bb.46:
	movzbl	-2(%rbp), %eax
	movzbl	-1(%rbp), %ecx
	cmpl	%ecx, %eax
	setg	%al
	andb	$1, %al
	movzbl	%al, %eax
	movb	%al, -3(%rbp)
	jmp	.LBB6_64
.LBB6_47:                               #   in Loop: Header=BB6_25 Depth=1
	movq	-32(%rbp), %rax
	movl	-12(%rbp), %ecx
	movw	(%rax,%rcx,2), %ax
	movw	%ax, -16(%rbp)
	movq	-32(%rbp), %rax
	movl	-8(%rbp), %ecx
	movw	(%rax,%rcx,2), %ax
	movw	%ax, -14(%rbp)
	movzwl	-16(%rbp), %eax
	movzwl	-14(%rbp), %ecx
	cmpl	%ecx, %eax
	je	.LBB6_49
# %bb.48:
	movzwl	-16(%rbp), %eax
	movzwl	-14(%rbp), %ecx
	cmpl	%ecx, %eax
	setg	%al
	andb	$1, %al
	movzbl	%al, %eax
	movb	%al, -3(%rbp)
	jmp	.LBB6_64
.LBB6_49:                               #   in Loop: Header=BB6_25 Depth=1
	movl	-12(%rbp), %eax
	addl	$1, %eax
	movl	%eax, -12(%rbp)
	movl	-8(%rbp), %eax
	addl	$1, %eax
	movl	%eax, -8(%rbp)
	movq	-24(%rbp), %rax
	movl	-12(%rbp), %ecx
	movb	(%rax,%rcx), %al
	movb	%al, -2(%rbp)
	movq	-24(%rbp), %rax
	movl	-8(%rbp), %ecx
	movb	(%rax,%rcx), %al
	movb	%al, -1(%rbp)
	movzbl	-2(%rbp), %eax
	movzbl	-1(%rbp), %ecx
	cmpl	%ecx, %eax
	je	.LBB6_51
# %bb.50:
	movzbl	-2(%rbp), %eax
	movzbl	-1(%rbp), %ecx
	cmpl	%ecx, %eax
	setg	%al
	andb	$1, %al
	movzbl	%al, %eax
	movb	%al, -3(%rbp)
	jmp	.LBB6_64
.LBB6_51:                               #   in Loop: Header=BB6_25 Depth=1
	movq	-32(%rbp), %rax
	movl	-12(%rbp), %ecx
	movw	(%rax,%rcx,2), %ax
	movw	%ax, -16(%rbp)
	movq	-32(%rbp), %rax
	movl	-8(%rbp), %ecx
	movw	(%rax,%rcx,2), %ax
	movw	%ax, -14(%rbp)
	movzwl	-16(%rbp), %eax
	movzwl	-14(%rbp), %ecx
	cmpl	%ecx, %eax
	je	.LBB6_53
# %bb.52:
	movzwl	-16(%rbp), %eax
	movzwl	-14(%rbp), %ecx
	cmpl	%ecx, %eax
	setg	%al
	andb	$1, %al
	movzbl	%al, %eax
	movb	%al, -3(%rbp)
	jmp	.LBB6_64
.LBB6_53:                               #   in Loop: Header=BB6_25 Depth=1
	movl	-12(%rbp), %eax
	addl	$1, %eax
	movl	%eax, -12(%rbp)
	movl	-8(%rbp), %eax
	addl	$1, %eax
	movl	%eax, -8(%rbp)
	movq	-24(%rbp), %rax
	movl	-12(%rbp), %ecx
	movb	(%rax,%rcx), %al
	movb	%al, -2(%rbp)
	movq	-24(%rbp), %rax
	movl	-8(%rbp), %ecx
	movb	(%rax,%rcx), %al
	movb	%al, -1(%rbp)
	movzbl	-2(%rbp), %eax
	movzbl	-1(%rbp), %ecx
	cmpl	%ecx, %eax
	je	.LBB6_55
# %bb.54:
	movzbl	-2(%rbp), %eax
	movzbl	-1(%rbp), %ecx
	cmpl	%ecx, %eax
	setg	%al
	andb	$1, %al
	movzbl	%al, %eax
	movb	%al, -3(%rbp)
	jmp	.LBB6_64
.LBB6_55:                               #   in Loop: Header=BB6_25 Depth=1
	movq	-32(%rbp), %rax
	movl	-12(%rbp), %ecx
	movw	(%rax,%rcx,2), %ax
	movw	%ax, -16(%rbp)
	movq	-32(%rbp), %rax
	movl	-8(%rbp), %ecx
	movw	(%rax,%rcx,2), %ax
	movw	%ax, -14(%rbp)
	movzwl	-16(%rbp), %eax
	movzwl	-14(%rbp), %ecx
	cmpl	%ecx, %eax
	je	.LBB6_57
# %bb.56:
	movzwl	-16(%rbp), %eax
	movzwl	-14(%rbp), %ecx
	cmpl	%ecx, %eax
	setg	%al
	andb	$1, %al
	movzbl	%al, %eax
	movb	%al, -3(%rbp)
	jmp	.LBB6_64
.LBB6_57:                               #   in Loop: Header=BB6_25 Depth=1
	movl	-12(%rbp), %eax
	addl	$1, %eax
	movl	%eax, -12(%rbp)
	movl	-8(%rbp), %eax
	addl	$1, %eax
	movl	%eax, -8(%rbp)
	movl	-12(%rbp), %eax
	cmpl	-36(%rbp), %eax
	jb	.LBB6_59
# %bb.58:                               #   in Loop: Header=BB6_25 Depth=1
	movl	-36(%rbp), %eax
	movl	-12(%rbp), %ecx
	subl	%eax, %ecx
	movl	%ecx, -12(%rbp)
.LBB6_59:                               #   in Loop: Header=BB6_25 Depth=1
	movl	-8(%rbp), %eax
	cmpl	-36(%rbp), %eax
	jb	.LBB6_61
# %bb.60:                               #   in Loop: Header=BB6_25 Depth=1
	movl	-36(%rbp), %eax
	movl	-8(%rbp), %ecx
	subl	%eax, %ecx
	movl	%ecx, -8(%rbp)
.LBB6_61:                               #   in Loop: Header=BB6_25 Depth=1
	movl	-40(%rbp), %eax
	subl	$8, %eax
	movl	%eax, -40(%rbp)
	movq	-48(%rbp), %rax
	movl	(%rax), %ecx
	addl	$-1, %ecx
	movl	%ecx, (%rax)
# %bb.62:                               #   in Loop: Header=BB6_25 Depth=1
	cmpl	$0, -40(%rbp)
	jge	.LBB6_25
# %bb.63:
	movb	$0, -3(%rbp)
.LBB6_64:
	movzbl	-3(%rbp), %eax
	popq	%rbp
	retq
.Lfunc_end6:
	.size	mainGtU, .Lfunc_end6-mainGtU
	.cfi_endproc
                                        # -- End function
	.p2align	4, 0x90         # -- Begin function fallbackQSort3
	.type	fallbackQSort3,@function
fallbackQSort3:                         # @fallbackQSort3
	.cfi_startproc
# %bb.0:
	pushq	%rbp
	.cfi_def_cfa_offset 16
	.cfi_offset %rbp, -16
	movq	%rsp, %rbp
	.cfi_def_cfa_register %rbp
	subq	$928, %rsp              # imm = 0x3A0
	movq	%rdi, -24(%rbp)
	movq	%rsi, -88(%rbp)
	movl	%edx, -120(%rbp)
	movl	%ecx, -116(%rbp)
	movl	$0, -80(%rbp)
	movl	$0, -4(%rbp)
	movl	-120(%rbp), %eax
	movslq	-4(%rbp), %rcx
	movl	%eax, -928(%rbp,%rcx,4)
	movl	-116(%rbp), %eax
	movslq	-4(%rbp), %rcx
	movl	%eax, -528(%rbp,%rcx,4)
	movl	-4(%rbp), %eax
	addl	$1, %eax
	movl	%eax, -4(%rbp)
.LBB7_1:                                # =>This Loop Header: Depth=1
                                        #     Child Loop BB7_14 Depth 2
                                        #       Child Loop BB7_15 Depth 3
                                        #       Child Loop BB7_24 Depth 3
                                        #     Child Loop BB7_41 Depth 2
                                        #     Child Loop BB7_47 Depth 2
	cmpl	$0, -4(%rbp)
	jle	.LBB7_53
# %bb.2:                                #   in Loop: Header=BB7_1 Depth=1
	cmpl	$100, -4(%rbp)
	jl	.LBB7_4
# %bb.3:                                #   in Loop: Header=BB7_1 Depth=1
	movl	$1004, %edi             # imm = 0x3EC
	callq	BZ2_bz__AssertH__fail
.LBB7_4:                                #   in Loop: Header=BB7_1 Depth=1
	movl	-4(%rbp), %eax
	addl	$-1, %eax
	movl	%eax, -4(%rbp)
	movslq	-4(%rbp), %rax
	movl	-928(%rbp,%rax,4), %eax
	movl	%eax, -32(%rbp)
	movslq	-4(%rbp), %rax
	movl	-528(%rbp,%rax,4), %eax
	movl	%eax, -28(%rbp)
	movl	-28(%rbp), %eax
	subl	-32(%rbp), %eax
	cmpl	$10, %eax
	jge	.LBB7_7
# %bb.5:                                #   in Loop: Header=BB7_1 Depth=1
	movq	-24(%rbp), %rdi
	movq	-88(%rbp), %rsi
	movl	-32(%rbp), %edx
	movl	-28(%rbp), %ecx
	callq	fallbackSimpleSort
.LBB7_6:                                # %.backedge2
                                        #   in Loop: Header=BB7_1 Depth=1
	jmp	.LBB7_1
.LBB7_7:                                #   in Loop: Header=BB7_1 Depth=1
	movl	$3, %ecx
	imull	$7621, -80(%rbp), %eax  # imm = 0x1DC5
	addl	$1, %eax
	andl	$32767, %eax            # imm = 0x7FFF
	movl	%eax, -80(%rbp)
	movl	-80(%rbp), %eax
	xorl	%edx, %edx
	divl	%ecx
	movl	%edx, -92(%rbp)
	cmpl	$0, -92(%rbp)
	jne	.LBB7_9
# %bb.8:                                #   in Loop: Header=BB7_1 Depth=1
	movq	-88(%rbp), %rax
	movq	-24(%rbp), %rcx
	movslq	-32(%rbp), %rdx
	movl	(%rcx,%rdx,4), %ecx
	movl	(%rax,%rcx,4), %eax
	movl	%eax, -68(%rbp)
	jmp	.LBB7_13
.LBB7_9:                                #   in Loop: Header=BB7_1 Depth=1
	cmpl	$1, -92(%rbp)
	jne	.LBB7_11
# %bb.10:                               #   in Loop: Header=BB7_1 Depth=1
	movq	-88(%rbp), %rax
	movq	-24(%rbp), %rcx
	movl	-32(%rbp), %edx
	addl	-28(%rbp), %edx
	sarl	$1, %edx
	movslq	%edx, %rdx
	movl	(%rcx,%rdx,4), %ecx
	movl	(%rax,%rcx,4), %eax
	movl	%eax, -68(%rbp)
	jmp	.LBB7_12
.LBB7_11:                               #   in Loop: Header=BB7_1 Depth=1
	movq	-88(%rbp), %rax
	movq	-24(%rbp), %rcx
	movslq	-28(%rbp), %rdx
	movl	(%rcx,%rdx,4), %ecx
	movl	(%rax,%rcx,4), %eax
	movl	%eax, -68(%rbp)
.LBB7_12:                               #   in Loop: Header=BB7_1 Depth=1
	jmp	.LBB7_13
.LBB7_13:                               #   in Loop: Header=BB7_1 Depth=1
	movl	-32(%rbp), %eax
	movl	%eax, -44(%rbp)
	movl	%eax, -8(%rbp)
	movl	-28(%rbp), %eax
	movl	%eax, -40(%rbp)
	movl	%eax, -12(%rbp)
.LBB7_14:                               #   Parent Loop BB7_1 Depth=1
                                        # =>  This Loop Header: Depth=2
                                        #       Child Loop BB7_15 Depth 3
                                        #       Child Loop BB7_24 Depth 3
	jmp	.LBB7_15
.LBB7_15:                               #   Parent Loop BB7_1 Depth=1
                                        #     Parent Loop BB7_14 Depth=2
                                        # =>    This Inner Loop Header: Depth=3
	movl	-8(%rbp), %eax
	cmpl	-12(%rbp), %eax
	jle	.LBB7_17
# %bb.16:                               #   in Loop: Header=BB7_14 Depth=2
	jmp	.LBB7_23
.LBB7_17:                               #   in Loop: Header=BB7_15 Depth=3
	movq	-88(%rbp), %rax
	movq	-24(%rbp), %rcx
	movslq	-8(%rbp), %rdx
	movl	(%rcx,%rdx,4), %ecx
	movl	(%rax,%rcx,4), %eax
	subl	-68(%rbp), %eax
	movl	%eax, -36(%rbp)
	cmpl	$0, -36(%rbp)
	jne	.LBB7_20
# %bb.18:                               #   in Loop: Header=BB7_15 Depth=3
	movq	-24(%rbp), %rax
	movslq	-8(%rbp), %rcx
	movl	(%rax,%rcx,4), %eax
	movl	%eax, -112(%rbp)
	movq	-24(%rbp), %rax
	movslq	-44(%rbp), %rcx
	movl	(%rax,%rcx,4), %eax
	movq	-24(%rbp), %rcx
	movslq	-8(%rbp), %rdx
	movl	%eax, (%rcx,%rdx,4)
	movl	-112(%rbp), %eax
	movq	-24(%rbp), %rcx
	movslq	-44(%rbp), %rdx
	movl	%eax, (%rcx,%rdx,4)
	movl	-44(%rbp), %eax
	addl	$1, %eax
	movl	%eax, -44(%rbp)
	movl	-8(%rbp), %eax
	addl	$1, %eax
	movl	%eax, -8(%rbp)
.LBB7_19:                               # %.backedge1
                                        #   in Loop: Header=BB7_15 Depth=3
	jmp	.LBB7_15
.LBB7_20:                               #   in Loop: Header=BB7_15 Depth=3
	cmpl	$0, -36(%rbp)
	jle	.LBB7_22
# %bb.21:                               #   in Loop: Header=BB7_14 Depth=2
	jmp	.LBB7_23
.LBB7_22:                               #   in Loop: Header=BB7_15 Depth=3
	movl	-8(%rbp), %eax
	addl	$1, %eax
	movl	%eax, -8(%rbp)
	jmp	.LBB7_19
.LBB7_23:                               #   in Loop: Header=BB7_14 Depth=2
	jmp	.LBB7_24
.LBB7_24:                               #   Parent Loop BB7_1 Depth=1
                                        #     Parent Loop BB7_14 Depth=2
                                        # =>    This Inner Loop Header: Depth=3
	movl	-8(%rbp), %eax
	cmpl	-12(%rbp), %eax
	jle	.LBB7_26
# %bb.25:                               #   in Loop: Header=BB7_14 Depth=2
	jmp	.LBB7_32
.LBB7_26:                               #   in Loop: Header=BB7_24 Depth=3
	movq	-88(%rbp), %rax
	movq	-24(%rbp), %rcx
	movslq	-12(%rbp), %rdx
	movl	(%rcx,%rdx,4), %ecx
	movl	(%rax,%rcx,4), %eax
	subl	-68(%rbp), %eax
	movl	%eax, -36(%rbp)
	cmpl	$0, -36(%rbp)
	jne	.LBB7_29
# %bb.27:                               #   in Loop: Header=BB7_24 Depth=3
	movq	-24(%rbp), %rax
	movslq	-12(%rbp), %rcx
	movl	(%rax,%rcx,4), %eax
	movl	%eax, -108(%rbp)
	movq	-24(%rbp), %rax
	movslq	-40(%rbp), %rcx
	movl	(%rax,%rcx,4), %eax
	movq	-24(%rbp), %rcx
	movslq	-12(%rbp), %rdx
	movl	%eax, (%rcx,%rdx,4)
	movl	-108(%rbp), %eax
	movq	-24(%rbp), %rcx
	movslq	-40(%rbp), %rdx
	movl	%eax, (%rcx,%rdx,4)
	movl	-40(%rbp), %eax
	addl	$-1, %eax
	movl	%eax, -40(%rbp)
	movl	-12(%rbp), %eax
	addl	$-1, %eax
	movl	%eax, -12(%rbp)
.LBB7_28:                               # %.backedge
                                        #   in Loop: Header=BB7_24 Depth=3
	jmp	.LBB7_24
.LBB7_29:                               #   in Loop: Header=BB7_24 Depth=3
	cmpl	$0, -36(%rbp)
	jge	.LBB7_31
# %bb.30:                               #   in Loop: Header=BB7_14 Depth=2
	jmp	.LBB7_32
.LBB7_31:                               #   in Loop: Header=BB7_24 Depth=3
	movl	-12(%rbp), %eax
	addl	$-1, %eax
	movl	%eax, -12(%rbp)
	jmp	.LBB7_28
.LBB7_32:                               #   in Loop: Header=BB7_14 Depth=2
	movl	-8(%rbp), %eax
	cmpl	-12(%rbp), %eax
	jle	.LBB7_34
# %bb.33:                               #   in Loop: Header=BB7_1 Depth=1
	jmp	.LBB7_35
.LBB7_34:                               #   in Loop: Header=BB7_14 Depth=2
	movq	-24(%rbp), %rax
	movslq	-8(%rbp), %rcx
	movl	(%rax,%rcx,4), %eax
	movl	%eax, -104(%rbp)
	movq	-24(%rbp), %rax
	movslq	-12(%rbp), %rcx
	movl	(%rax,%rcx,4), %eax
	movq	-24(%rbp), %rcx
	movslq	-8(%rbp), %rdx
	movl	%eax, (%rcx,%rdx,4)
	movl	-104(%rbp), %eax
	movq	-24(%rbp), %rcx
	movslq	-12(%rbp), %rdx
	movl	%eax, (%rcx,%rdx,4)
	movl	-8(%rbp), %eax
	addl	$1, %eax
	movl	%eax, -8(%rbp)
	movl	-12(%rbp), %eax
	addl	$-1, %eax
	movl	%eax, -12(%rbp)
	jmp	.LBB7_14
.LBB7_35:                               #   in Loop: Header=BB7_1 Depth=1
	movl	-40(%rbp), %eax
	cmpl	-44(%rbp), %eax
	jge	.LBB7_37
# %bb.36:                               #   in Loop: Header=BB7_1 Depth=1
	jmp	.LBB7_6
.LBB7_37:                               #   in Loop: Header=BB7_1 Depth=1
	movl	-44(%rbp), %eax
	subl	-32(%rbp), %eax
	movl	-8(%rbp), %ecx
	subl	-44(%rbp), %ecx
	cmpl	%ecx, %eax
	jge	.LBB7_39
# %bb.38:                               #   in Loop: Header=BB7_1 Depth=1
	movl	-44(%rbp), %eax
	subl	-32(%rbp), %eax
	jmp	.LBB7_40
.LBB7_39:                               #   in Loop: Header=BB7_1 Depth=1
	movl	-8(%rbp), %eax
	subl	-44(%rbp), %eax
.LBB7_40:                               #   in Loop: Header=BB7_1 Depth=1
	movl	%eax, -36(%rbp)
	movl	-32(%rbp), %eax
	movl	%eax, -64(%rbp)
	movl	-8(%rbp), %eax
	subl	-36(%rbp), %eax
	movl	%eax, -60(%rbp)
	movl	-36(%rbp), %eax
	movl	%eax, -76(%rbp)
.LBB7_41:                               #   Parent Loop BB7_1 Depth=1
                                        # =>  This Inner Loop Header: Depth=2
	cmpl	$0, -76(%rbp)
	jle	.LBB7_43
# %bb.42:                               #   in Loop: Header=BB7_41 Depth=2
	movq	-24(%rbp), %rax
	movslq	-64(%rbp), %rcx
	movl	(%rax,%rcx,4), %eax
	movl	%eax, -100(%rbp)
	movq	-24(%rbp), %rax
	movslq	-60(%rbp), %rcx
	movl	(%rax,%rcx,4), %eax
	movq	-24(%rbp), %rcx
	movslq	-64(%rbp), %rdx
	movl	%eax, (%rcx,%rdx,4)
	movl	-100(%rbp), %eax
	movq	-24(%rbp), %rcx
	movslq	-60(%rbp), %rdx
	movl	%eax, (%rcx,%rdx,4)
	movl	-64(%rbp), %eax
	addl	$1, %eax
	movl	%eax, -64(%rbp)
	movl	-60(%rbp), %eax
	addl	$1, %eax
	movl	%eax, -60(%rbp)
	movl	-76(%rbp), %eax
	addl	$-1, %eax
	movl	%eax, -76(%rbp)
	jmp	.LBB7_41
.LBB7_43:                               #   in Loop: Header=BB7_1 Depth=1
	movl	-28(%rbp), %eax
	subl	-40(%rbp), %eax
	movl	-40(%rbp), %ecx
	subl	-12(%rbp), %ecx
	cmpl	%ecx, %eax
	jge	.LBB7_45
# %bb.44:                               #   in Loop: Header=BB7_1 Depth=1
	movl	-28(%rbp), %eax
	subl	-40(%rbp), %eax
	jmp	.LBB7_46
.LBB7_45:                               #   in Loop: Header=BB7_1 Depth=1
	movl	-40(%rbp), %eax
	subl	-12(%rbp), %eax
.LBB7_46:                               #   in Loop: Header=BB7_1 Depth=1
	movl	%eax, -48(%rbp)
	movl	-8(%rbp), %eax
	movl	%eax, -56(%rbp)
	movl	-28(%rbp), %eax
	subl	-48(%rbp), %eax
	addl	$1, %eax
	movl	%eax, -52(%rbp)
	movl	-48(%rbp), %eax
	movl	%eax, -72(%rbp)
.LBB7_47:                               #   Parent Loop BB7_1 Depth=1
                                        # =>  This Inner Loop Header: Depth=2
	cmpl	$0, -72(%rbp)
	jle	.LBB7_49
# %bb.48:                               #   in Loop: Header=BB7_47 Depth=2
	movq	-24(%rbp), %rax
	movslq	-56(%rbp), %rcx
	movl	(%rax,%rcx,4), %eax
	movl	%eax, -96(%rbp)
	movq	-24(%rbp), %rax
	movslq	-52(%rbp), %rcx
	movl	(%rax,%rcx,4), %eax
	movq	-24(%rbp), %rcx
	movslq	-56(%rbp), %rdx
	movl	%eax, (%rcx,%rdx,4)
	movl	-96(%rbp), %eax
	movq	-24(%rbp), %rcx
	movslq	-52(%rbp), %rdx
	movl	%eax, (%rcx,%rdx,4)
	movl	-56(%rbp), %eax
	addl	$1, %eax
	movl	%eax, -56(%rbp)
	movl	-52(%rbp), %eax
	addl	$1, %eax
	movl	%eax, -52(%rbp)
	movl	-72(%rbp), %eax
	addl	$-1, %eax
	movl	%eax, -72(%rbp)
	jmp	.LBB7_47
.LBB7_49:                               #   in Loop: Header=BB7_1 Depth=1
	movl	-32(%rbp), %eax
	addl	-8(%rbp), %eax
	subl	-44(%rbp), %eax
	subl	$1, %eax
	movl	%eax, -36(%rbp)
	movl	-28(%rbp), %eax
	movl	-40(%rbp), %ecx
	subl	-12(%rbp), %ecx
	subl	%ecx, %eax
	addl	$1, %eax
	movl	%eax, -48(%rbp)
	movl	-36(%rbp), %eax
	subl	-32(%rbp), %eax
	movl	-28(%rbp), %ecx
	subl	-48(%rbp), %ecx
	cmpl	%ecx, %eax
	jle	.LBB7_51
# %bb.50:                               #   in Loop: Header=BB7_1 Depth=1
	movl	-32(%rbp), %eax
	movslq	-4(%rbp), %rcx
	movl	%eax, -928(%rbp,%rcx,4)
	movl	-36(%rbp), %eax
	movslq	-4(%rbp), %rcx
	movl	%eax, -528(%rbp,%rcx,4)
	movl	-4(%rbp), %eax
	addl	$1, %eax
	movl	%eax, -4(%rbp)
	movl	-48(%rbp), %eax
	movslq	-4(%rbp), %rcx
	movl	%eax, -928(%rbp,%rcx,4)
	movl	-28(%rbp), %eax
	movslq	-4(%rbp), %rcx
	movl	%eax, -528(%rbp,%rcx,4)
	movl	-4(%rbp), %eax
	addl	$1, %eax
	movl	%eax, -4(%rbp)
	jmp	.LBB7_52
.LBB7_51:                               #   in Loop: Header=BB7_1 Depth=1
	movl	-48(%rbp), %eax
	movslq	-4(%rbp), %rcx
	movl	%eax, -928(%rbp,%rcx,4)
	movl	-28(%rbp), %eax
	movslq	-4(%rbp), %rcx
	movl	%eax, -528(%rbp,%rcx,4)
	movl	-4(%rbp), %eax
	addl	$1, %eax
	movl	%eax, -4(%rbp)
	movl	-32(%rbp), %eax
	movslq	-4(%rbp), %rcx
	movl	%eax, -928(%rbp,%rcx,4)
	movl	-36(%rbp), %eax
	movslq	-4(%rbp), %rcx
	movl	%eax, -528(%rbp,%rcx,4)
	movl	-4(%rbp), %eax
	addl	$1, %eax
	movl	%eax, -4(%rbp)
.LBB7_52:                               #   in Loop: Header=BB7_1 Depth=1
	jmp	.LBB7_6
.LBB7_53:
	addq	$928, %rsp              # imm = 0x3A0
	popq	%rbp
	retq
.Lfunc_end7:
	.size	fallbackQSort3, .Lfunc_end7-fallbackQSort3
	.cfi_endproc
                                        # -- End function
	.p2align	4, 0x90         # -- Begin function fallbackSimpleSort
	.type	fallbackSimpleSort,@function
fallbackSimpleSort:                     # @fallbackSimpleSort
	.cfi_startproc
# %bb.0:
	pushq	%rbp
	.cfi_def_cfa_offset 16
	.cfi_offset %rbp, -16
	movq	%rsp, %rbp
	.cfi_def_cfa_register %rbp
	movq	%rdi, -24(%rbp)
	movq	%rsi, -40(%rbp)
	movl	%edx, -28(%rbp)
	movl	%ecx, -12(%rbp)
	movl	-28(%rbp), %eax
	cmpl	-12(%rbp), %eax
	jne	.LBB8_2
# %bb.1:
	jmp	.LBB8_25
.LBB8_2:
	movl	-12(%rbp), %eax
	subl	-28(%rbp), %eax
	cmpl	$3, %eax
	jle	.LBB8_14
# %bb.3:
	movl	-12(%rbp), %eax
	subl	$4, %eax
	movl	%eax, -8(%rbp)
.LBB8_4:                                # =>This Loop Header: Depth=1
                                        #     Child Loop BB8_6 Depth 2
	movl	-8(%rbp), %eax
	cmpl	-28(%rbp), %eax
	jl	.LBB8_13
# %bb.5:                                #   in Loop: Header=BB8_4 Depth=1
	movq	-24(%rbp), %rax
	movslq	-8(%rbp), %rcx
	movl	(%rax,%rcx,4), %eax
	movl	%eax, -16(%rbp)
	movq	-40(%rbp), %rax
	movslq	-16(%rbp), %rcx
	movl	(%rax,%rcx,4), %eax
	movl	%eax, -32(%rbp)
	movl	-8(%rbp), %eax
	addl	$4, %eax
	movl	%eax, -4(%rbp)
.LBB8_6:                                #   Parent Loop BB8_4 Depth=1
                                        # =>  This Inner Loop Header: Depth=2
	xorl	%eax, %eax
	movl	-4(%rbp), %ecx
	cmpl	-12(%rbp), %ecx
	jg	.LBB8_8
# %bb.7:                                #   in Loop: Header=BB8_6 Depth=2
	movl	-32(%rbp), %eax
	movq	-40(%rbp), %rcx
	movq	-24(%rbp), %rdx
	movslq	-4(%rbp), %rsi
	movl	(%rdx,%rsi,4), %edx
	cmpl	(%rcx,%rdx,4), %eax
	seta	%al
.LBB8_8:                                #   in Loop: Header=BB8_6 Depth=2
	testb	$1, %al
	jne	.LBB8_9
	jmp	.LBB8_11
.LBB8_9:                                #   in Loop: Header=BB8_6 Depth=2
	movq	-24(%rbp), %rax
	movslq	-4(%rbp), %rcx
	movl	(%rax,%rcx,4), %eax
	movq	-24(%rbp), %rcx
	movl	-4(%rbp), %edx
	subl	$4, %edx
	movslq	%edx, %rdx
	movl	%eax, (%rcx,%rdx,4)
# %bb.10:                               #   in Loop: Header=BB8_6 Depth=2
	movl	-4(%rbp), %eax
	addl	$4, %eax
	movl	%eax, -4(%rbp)
	jmp	.LBB8_6
.LBB8_11:                               #   in Loop: Header=BB8_4 Depth=1
	movl	-16(%rbp), %eax
	movq	-24(%rbp), %rcx
	movl	-4(%rbp), %edx
	subl	$4, %edx
	movslq	%edx, %rdx
	movl	%eax, (%rcx,%rdx,4)
# %bb.12:                               #   in Loop: Header=BB8_4 Depth=1
	movl	-8(%rbp), %eax
	addl	$-1, %eax
	movl	%eax, -8(%rbp)
	jmp	.LBB8_4
.LBB8_13:
	jmp	.LBB8_14
.LBB8_14:
	movl	-12(%rbp), %eax
	subl	$1, %eax
	movl	%eax, -8(%rbp)
.LBB8_15:                               # =>This Loop Header: Depth=1
                                        #     Child Loop BB8_17 Depth 2
	movl	-8(%rbp), %eax
	cmpl	-28(%rbp), %eax
	jl	.LBB8_24
# %bb.16:                               #   in Loop: Header=BB8_15 Depth=1
	movq	-24(%rbp), %rax
	movslq	-8(%rbp), %rcx
	movl	(%rax,%rcx,4), %eax
	movl	%eax, -16(%rbp)
	movq	-40(%rbp), %rax
	movslq	-16(%rbp), %rcx
	movl	(%rax,%rcx,4), %eax
	movl	%eax, -32(%rbp)
	movl	-8(%rbp), %eax
	addl	$1, %eax
	movl	%eax, -4(%rbp)
.LBB8_17:                               #   Parent Loop BB8_15 Depth=1
                                        # =>  This Inner Loop Header: Depth=2
	xorl	%eax, %eax
	movl	-4(%rbp), %ecx
	cmpl	-12(%rbp), %ecx
	jg	.LBB8_19
# %bb.18:                               #   in Loop: Header=BB8_17 Depth=2
	movl	-32(%rbp), %eax
	movq	-40(%rbp), %rcx
	movq	-24(%rbp), %rdx
	movslq	-4(%rbp), %rsi
	movl	(%rdx,%rsi,4), %edx
	cmpl	(%rcx,%rdx,4), %eax
	seta	%al
.LBB8_19:                               #   in Loop: Header=BB8_17 Depth=2
	testb	$1, %al
	jne	.LBB8_20
	jmp	.LBB8_22
.LBB8_20:                               #   in Loop: Header=BB8_17 Depth=2
	movq	-24(%rbp), %rax
	movslq	-4(%rbp), %rcx
	movl	(%rax,%rcx,4), %eax
	movq	-24(%rbp), %rcx
	movl	-4(%rbp), %edx
	subl	$1, %edx
	movslq	%edx, %rdx
	movl	%eax, (%rcx,%rdx,4)
# %bb.21:                               #   in Loop: Header=BB8_17 Depth=2
	movl	-4(%rbp), %eax
	addl	$1, %eax
	movl	%eax, -4(%rbp)
	jmp	.LBB8_17
.LBB8_22:                               #   in Loop: Header=BB8_15 Depth=1
	movl	-16(%rbp), %eax
	movq	-24(%rbp), %rcx
	movl	-4(%rbp), %edx
	subl	$1, %edx
	movslq	%edx, %rdx
	movl	%eax, (%rcx,%rdx,4)
# %bb.23:                               #   in Loop: Header=BB8_15 Depth=1
	movl	-8(%rbp), %eax
	addl	$-1, %eax
	movl	%eax, -8(%rbp)
	jmp	.LBB8_15
.LBB8_24:                               # %.loopexit
	jmp	.LBB8_25
.LBB8_25:
	popq	%rbp
	retq
.Lfunc_end8:
	.size	fallbackSimpleSort, .Lfunc_end8-fallbackSimpleSort
	.cfi_endproc
                                        # -- End function
	.section	.rodata.cst8,"aM",@progbits,8
	.p2align	3               # -- Begin function compressStream
.LCPI9_0:
	.quad	4636737291354636288     # double 100
.LCPI9_1:
	.quad	4607182418800017408     # double 1
.LCPI9_2:
	.quad	4620693217682128896     # double 8
	.text
	.globl	compressStream
	.p2align	4, 0x90
	.type	compressStream,@function
compressStream:                         # @compressStream
	.cfi_startproc
# %bb.0:
	pushq	%rbp
	.cfi_def_cfa_offset 16
	.cfi_offset %rbp, -16
	movq	%rsp, %rbp
	.cfi_def_cfa_register %rbp
	subq	$5184, %rsp             # imm = 0x1440
	leaq	-4(%rbp), %rax
	movl	%edi, -36(%rbp)
	movl	%esi, -32(%rbp)
	movq	$0, -48(%rbp)
	movl	-32(%rbp), %esi
	movl	blockSize100k, %edx
	movl	verbosity, %ecx
	movl	workFactor, %r8d
	movq	%rax, %rdi
	callq	BZ2_bzWriteOpen
	movq	%rax, -48(%rbp)
	cmpl	$0, -4(%rbp)
	je	.LBB9_2
# %bb.1:
	jmp	.LBB9_29
.LBB9_2:
	cmpl	$2, verbosity
	jl	.LBB9_4
# %bb.3:
	movabsq	$.L.str.9, %rsi
	movq	stderr, %rdi
	movb	$0, %al
	callq	fprintf
.LBB9_4:
	jmp	.LBB9_5
.LBB9_5:                                # =>This Inner Loop Header: Depth=1
	movl	-36(%rbp), %edi
	callq	myfeof
	cmpb	$0, %al
	je	.LBB9_7
# %bb.6:
	jmp	.LBB9_12
.LBB9_7:                                #   in Loop: Header=BB9_5 Depth=1
	leaq	-5168(%rbp), %rdi
	movl	-36(%rbp), %ecx
	movl	$1, %esi
	movl	$5000, %edx             # imm = 0x1388
	callq	spec_fread
	movl	%eax, -28(%rbp)
	cmpl	$0, -28(%rbp)
	jle	.LBB9_9
# %bb.8:                                #   in Loop: Header=BB9_5 Depth=1
	leaq	-4(%rbp), %rdi
	leaq	-5168(%rbp), %rdx
	movq	-48(%rbp), %rsi
	movl	-28(%rbp), %ecx
	callq	BZ2_bzWrite
.LBB9_9:                                #   in Loop: Header=BB9_5 Depth=1
	cmpl	$0, -4(%rbp)
	je	.LBB9_11
# %bb.10:
	jmp	.LBB9_29
.LBB9_11:                               #   in Loop: Header=BB9_5 Depth=1
	jmp	.LBB9_5
.LBB9_12:
	leaq	-4(%rbp), %rdi
	leaq	-16(%rbp), %rcx
	leaq	-12(%rbp), %r8
	leaq	-24(%rbp), %r9
	leaq	-20(%rbp), %rax
	movq	-48(%rbp), %rsi
	xorl	%edx, %edx
	movq	%rax, (%rsp)
	callq	BZ2_bzWriteClose64
	cmpl	$0, -4(%rbp)
	je	.LBB9_14
# %bb.13:
	jmp	.LBB9_29
.LBB9_14:
	movl	$0, -8(%rbp)
	cmpl	$-1, -8(%rbp)
	jne	.LBB9_16
# %bb.15:
	jmp	.LBB9_35
.LBB9_16:
	cmpl	$1, -32(%rbp)
	je	.LBB9_20
# %bb.17:
	movl	$0, -8(%rbp)
	movl	$0, outputHandleJustInCase
	cmpl	$-1, -8(%rbp)
	jne	.LBB9_19
# %bb.18:
	jmp	.LBB9_35
.LBB9_19:
	jmp	.LBB9_20
.LBB9_20:
	movl	$0, outputHandleJustInCase
	movl	$0, -8(%rbp)
	cmpl	$-1, -8(%rbp)
	jne	.LBB9_22
# %bb.21:
	jmp	.LBB9_35
.LBB9_22:
	cmpl	$1, verbosity
	jl	.LBB9_28
# %bb.23:
	cmpl	$0, -16(%rbp)
	jne	.LBB9_26
# %bb.24:
	cmpl	$0, -12(%rbp)
	jne	.LBB9_26
# %bb.25:
	movabsq	$.L.str.1.10, %rsi
	movq	stderr, %rdi
	movb	$0, %al
	callq	fprintf
	jmp	.LBB9_27
.LBB9_26:
	leaq	-80(%rbp), %rdi
	movl	-16(%rbp), %esi
	movl	-12(%rbp), %edx
	callq	uInt64_from_UInt32s
	leaq	-72(%rbp), %rdi
	movl	-24(%rbp), %esi
	movl	-20(%rbp), %edx
	callq	uInt64_from_UInt32s
	leaq	-80(%rbp), %rdi
	callq	uInt64_to_double
	leaq	-72(%rbp), %rdi
	movsd	%xmm0, -64(%rbp)
	callq	uInt64_to_double
	leaq	-80(%rbp), %rsi
	leaq	-160(%rbp), %rdi
	movsd	%xmm0, -56(%rbp)
	callq	uInt64_toAscii
	leaq	-72(%rbp), %rsi
	leaq	-128(%rbp), %rdi
	callq	uInt64_toAscii
	movabsq	$.L.str.2.11, %rsi
	leaq	-128(%rbp), %rcx
	leaq	-160(%rbp), %rdx
	movsd	.LCPI9_0(%rip), %xmm2   # xmm2 = mem[0],zero
	movsd	.LCPI9_1(%rip), %xmm3   # xmm3 = mem[0],zero
	movsd	.LCPI9_2(%rip), %xmm1   # xmm1 = mem[0],zero
	movq	stderr, %rdi
	movsd	-64(%rbp), %xmm0        # xmm0 = mem[0],zero
	divsd	-56(%rbp), %xmm0
	mulsd	-56(%rbp), %xmm1
	divsd	-64(%rbp), %xmm1
	movsd	-56(%rbp), %xmm4        # xmm4 = mem[0],zero
	divsd	-64(%rbp), %xmm4
	subsd	%xmm4, %xmm3
	mulsd	%xmm3, %xmm2
	movb	$3, %al
	callq	fprintf
.LBB9_27:
	jmp	.LBB9_28
.LBB9_28:
	jmp	.LBB9_38
.LBB9_29:
	movq	-48(%rbp), %rsi
	leaq	-20(%rbp), %rax
	movq	%rax, (%rsp)
	leaq	-84(%rbp), %rdi
	leaq	-16(%rbp), %rcx
	leaq	-12(%rbp), %r8
	leaq	-24(%rbp), %r9
	movl	$1, %edx
	callq	BZ2_bzWriteClose64
	movl	-4(%rbp), %eax
	movl	%eax, %ecx
	subl	$-9, %ecx
	je	.LBB9_32
	jmp	.LBB9_30
.LBB9_30:
	movl	%eax, %ecx
	subl	$-6, %ecx
	je	.LBB9_34
	jmp	.LBB9_31
.LBB9_31:
	subl	$-3, %eax
	je	.LBB9_33
	jmp	.LBB9_36
.LBB9_32:
	callq	configError
	jmp	.LBB9_37
.LBB9_33:
	callq	outOfMemory
	jmp	.LBB9_37
.LBB9_34:
	jmp	.LBB9_35
.LBB9_35:
	callq	ioError
	jmp	.LBB9_37
.LBB9_36:
	movabsq	$.L.str.3.12, %rdi
	callq	panic
.LBB9_37:
	movabsq	$.L.str.4.13, %rdi
	callq	panic
.LBB9_38:
	addq	$5184, %rsp             # imm = 0x1440
	popq	%rbp
	retq
.Lfunc_end9:
	.size	compressStream, .Lfunc_end9-compressStream
	.cfi_endproc
                                        # -- End function
	.p2align	4, 0x90         # -- Begin function myfeof
	.type	myfeof,@function
myfeof:                                 # @myfeof
	.cfi_startproc
# %bb.0:
	pushq	%rbp
	.cfi_def_cfa_offset 16
	.cfi_offset %rbp, -16
	movq	%rsp, %rbp
	.cfi_def_cfa_register %rbp
	subq	$16, %rsp
	movl	%edi, -12(%rbp)
	movl	-12(%rbp), %edi
	callq	spec_getc
	movl	%eax, -8(%rbp)
	cmpl	$-1, -8(%rbp)
	jne	.LBB10_2
# %bb.1:
	movb	$1, -1(%rbp)
	jmp	.LBB10_3
.LBB10_2:
	movl	-8(%rbp), %eax
	movl	-12(%rbp), %esi
	movzbl	%al, %edi
	callq	spec_ungetc
	movb	$0, -1(%rbp)
.LBB10_3:
	movzbl	-1(%rbp), %eax
	addq	$16, %rsp
	popq	%rbp
	retq
.Lfunc_end10:
	.size	myfeof, .Lfunc_end10-myfeof
	.cfi_endproc
                                        # -- End function
	.p2align	4, 0x90         # -- Begin function uInt64_from_UInt32s
	.type	uInt64_from_UInt32s,@function
uInt64_from_UInt32s:                    # @uInt64_from_UInt32s
	.cfi_startproc
# %bb.0:
	pushq	%rbp
	.cfi_def_cfa_offset 16
	.cfi_offset %rbp, -16
	movq	%rsp, %rbp
	.cfi_def_cfa_register %rbp
	movq	%rdi, -16(%rbp)
	movl	%esi, -8(%rbp)
	movl	%edx, -4(%rbp)
	movl	-4(%rbp), %eax
	shrl	$24, %eax
	andl	$255, %eax
	movq	-16(%rbp), %rcx
	movb	%al, 7(%rcx)
	movl	-4(%rbp), %eax
	shrl	$16, %eax
	andl	$255, %eax
	movq	-16(%rbp), %rcx
	movb	%al, 6(%rcx)
	movl	-4(%rbp), %eax
	shrl	$8, %eax
	andl	$255, %eax
	movq	-16(%rbp), %rcx
	movb	%al, 5(%rcx)
	movl	-4(%rbp), %eax
	andl	$255, %eax
	movq	-16(%rbp), %rcx
	movb	%al, 4(%rcx)
	movl	-8(%rbp), %eax
	shrl	$24, %eax
	andl	$255, %eax
	movq	-16(%rbp), %rcx
	movb	%al, 3(%rcx)
	movl	-8(%rbp), %eax
	shrl	$16, %eax
	andl	$255, %eax
	movq	-16(%rbp), %rcx
	movb	%al, 2(%rcx)
	movl	-8(%rbp), %eax
	shrl	$8, %eax
	andl	$255, %eax
	movq	-16(%rbp), %rcx
	movb	%al, 1(%rcx)
	movl	-8(%rbp), %eax
	andl	$255, %eax
	movq	-16(%rbp), %rcx
	movb	%al, (%rcx)
	popq	%rbp
	retq
.Lfunc_end11:
	.size	uInt64_from_UInt32s, .Lfunc_end11-uInt64_from_UInt32s
	.cfi_endproc
                                        # -- End function
	.section	.rodata.cst8,"aM",@progbits,8
	.p2align	3               # -- Begin function uInt64_to_double
.LCPI12_0:
	.quad	4607182418800017408     # double 1
.LCPI12_1:
	.quad	4643211215818981376     # double 256
	.text
	.p2align	4, 0x90
	.type	uInt64_to_double,@function
uInt64_to_double:                       # @uInt64_to_double
	.cfi_startproc
# %bb.0:
	pushq	%rbp
	.cfi_def_cfa_offset 16
	.cfi_offset %rbp, -16
	movq	%rsp, %rbp
	.cfi_def_cfa_register %rbp
	xorps	%xmm0, %xmm0
	movsd	.LCPI12_0(%rip), %xmm1  # xmm1 = mem[0],zero
	movq	%rdi, -32(%rbp)
	movsd	%xmm1, -24(%rbp)
	movsd	%xmm0, -16(%rbp)
	movl	$0, -4(%rbp)
.LBB12_1:                               # =>This Inner Loop Header: Depth=1
	cmpl	$8, -4(%rbp)
	jge	.LBB12_4
# %bb.2:                                #   in Loop: Header=BB12_1 Depth=1
	movsd	.LCPI12_1(%rip), %xmm0  # xmm0 = mem[0],zero
	movsd	-24(%rbp), %xmm1        # xmm1 = mem[0],zero
	movq	-32(%rbp), %rax
	movslq	-4(%rbp), %rcx
	movzbl	(%rax,%rcx), %eax
	cvtsi2sdl	%eax, %xmm2
	mulsd	%xmm2, %xmm1
	addsd	-16(%rbp), %xmm1
	movsd	%xmm1, -16(%rbp)
	mulsd	-24(%rbp), %xmm0
	movsd	%xmm0, -24(%rbp)
# %bb.3:                                #   in Loop: Header=BB12_1 Depth=1
	movl	-4(%rbp), %eax
	addl	$1, %eax
	movl	%eax, -4(%rbp)
	jmp	.LBB12_1
.LBB12_4:
	movsd	-16(%rbp), %xmm0        # xmm0 = mem[0],zero
	popq	%rbp
	retq
.Lfunc_end12:
	.size	uInt64_to_double, .Lfunc_end12-uInt64_to_double
	.cfi_endproc
                                        # -- End function
	.p2align	4, 0x90         # -- Begin function uInt64_toAscii
	.type	uInt64_toAscii,@function
uInt64_toAscii:                         # @uInt64_toAscii
	.cfi_startproc
# %bb.0:
	pushq	%rbp
	.cfi_def_cfa_offset 16
	.cfi_offset %rbp, -16
	movq	%rsp, %rbp
	.cfi_def_cfa_register %rbp
	subq	$80, %rsp
	movq	%rdi, -32(%rbp)
	movq	%rsi, -40(%rbp)
	movl	$0, -4(%rbp)
	movq	-40(%rbp), %rax
	movq	(%rax), %rax
	movq	%rax, -24(%rbp)
.LBB13_1:                               # =>This Inner Loop Header: Depth=1
	leaq	-24(%rbp), %rdi
	callq	uInt64_qrm10
	movl	%eax, -12(%rbp)
	movl	-12(%rbp), %eax
	addl	$48, %eax
	movslq	-4(%rbp), %rcx
	movb	%al, -80(%rbp,%rcx)
	movl	-4(%rbp), %eax
	addl	$1, %eax
	movl	%eax, -4(%rbp)
# %bb.2:                                #   in Loop: Header=BB13_1 Depth=1
	leaq	-24(%rbp), %rdi
	callq	uInt64_isZero
	cmpb	$0, %al
	setne	%al
	xorb	$-1, %al
	testb	$1, %al
	jne	.LBB13_1
# %bb.3:
	movq	-32(%rbp), %rax
	movslq	-4(%rbp), %rcx
	movb	$0, (%rax,%rcx)
	movl	$0, -8(%rbp)
.LBB13_4:                               # =>This Inner Loop Header: Depth=1
	movl	-8(%rbp), %eax
	cmpl	-4(%rbp), %eax
	jge	.LBB13_7
# %bb.5:                                #   in Loop: Header=BB13_4 Depth=1
	movl	-4(%rbp), %eax
	subl	-8(%rbp), %eax
	subl	$1, %eax
	cltq
	movb	-80(%rbp,%rax), %al
	movq	-32(%rbp), %rcx
	movslq	-8(%rbp), %rdx
	movb	%al, (%rcx,%rdx)
# %bb.6:                                #   in Loop: Header=BB13_4 Depth=1
	movl	-8(%rbp), %eax
	addl	$1, %eax
	movl	%eax, -8(%rbp)
	jmp	.LBB13_4
.LBB13_7:
	addq	$80, %rsp
	popq	%rbp
	retq
.Lfunc_end13:
	.size	uInt64_toAscii, .Lfunc_end13-uInt64_toAscii
	.cfi_endproc
                                        # -- End function
	.p2align	4, 0x90         # -- Begin function configError
	.type	configError,@function
configError:                            # @configError
	.cfi_startproc
# %bb.0:
	pushq	%rbp
	.cfi_def_cfa_offset 16
	.cfi_offset %rbp, -16
	movq	%rsp, %rbp
	.cfi_def_cfa_register %rbp
	movabsq	$.L.str.17, %rsi
	movq	stderr, %rdi
	movb	$0, %al
	callq	fprintf
	movl	$3, %edi
	callq	setExit
	movl	exitValue, %edi
	callq	exit
.Lfunc_end14:
	.size	configError, .Lfunc_end14-configError
	.cfi_endproc
                                        # -- End function
	.p2align	4, 0x90         # -- Begin function outOfMemory
	.type	outOfMemory,@function
outOfMemory:                            # @outOfMemory
	.cfi_startproc
# %bb.0:
	pushq	%rbp
	.cfi_def_cfa_offset 16
	.cfi_offset %rbp, -16
	movq	%rsp, %rbp
	.cfi_def_cfa_register %rbp
	movabsq	$.L.str.16, %rsi
	movq	stderr, %rdi
	movq	progName, %rdx
	movb	$0, %al
	callq	fprintf
	callq	showFileNames
	movl	$1, %edi
	callq	cleanUpAndFail
	popq	%rbp
	retq
.Lfunc_end15:
	.size	outOfMemory, .Lfunc_end15-outOfMemory
	.cfi_endproc
                                        # -- End function
	.p2align	4, 0x90         # -- Begin function ioError
	.type	ioError,@function
ioError:                                # @ioError
	.cfi_startproc
# %bb.0:
	pushq	%rbp
	.cfi_def_cfa_offset 16
	.cfi_offset %rbp, -16
	movq	%rsp, %rbp
	.cfi_def_cfa_register %rbp
	movabsq	$.L.str.15, %rsi
	movq	stderr, %rdi
	movq	progName, %rdx
	movb	$0, %al
	callq	fprintf
	movq	progName, %rdi
	callq	perror
	callq	showFileNames
	movl	$1, %edi
	callq	cleanUpAndFail
	popq	%rbp
	retq
.Lfunc_end16:
	.size	ioError, .Lfunc_end16-ioError
	.cfi_endproc
                                        # -- End function
	.p2align	4, 0x90         # -- Begin function panic
	.type	panic,@function
panic:                                  # @panic
	.cfi_startproc
# %bb.0:
	pushq	%rbp
	.cfi_def_cfa_offset 16
	.cfi_offset %rbp, -16
	movq	%rsp, %rbp
	.cfi_def_cfa_register %rbp
	subq	$16, %rsp
	movabsq	$.L.str.10, %rsi
	movq	%rdi, -8(%rbp)
	movq	stderr, %rdi
	movq	progName, %rdx
	movq	-8(%rbp), %rcx
	movb	$0, %al
	callq	fprintf
	callq	showFileNames
	movl	$3, %edi
	callq	cleanUpAndFail
	addq	$16, %rsp
	popq	%rbp
	retq
.Lfunc_end17:
	.size	panic, .Lfunc_end17-panic
	.cfi_endproc
                                        # -- End function
	.p2align	4, 0x90         # -- Begin function showFileNames
	.type	showFileNames,@function
showFileNames:                          # @showFileNames
	.cfi_startproc
# %bb.0:
	pushq	%rbp
	.cfi_def_cfa_offset 16
	.cfi_offset %rbp, -16
	movq	%rsp, %rbp
	.cfi_def_cfa_register %rbp
	cmpb	$0, noisy
	je	.LBB18_2
# %bb.1:
	movabsq	$.L.str.11, %rsi
	movabsq	$inName, %rdx
	movabsq	$outName, %rcx
	movq	stderr, %rdi
	movb	$0, %al
	callq	fprintf
.LBB18_2:
	popq	%rbp
	retq
.Lfunc_end18:
	.size	showFileNames, .Lfunc_end18-showFileNames
	.cfi_endproc
                                        # -- End function
	.p2align	4, 0x90         # -- Begin function cleanUpAndFail
	.type	cleanUpAndFail,@function
cleanUpAndFail:                         # @cleanUpAndFail
	.cfi_startproc
# %bb.0:
	pushq	%rbp
	.cfi_def_cfa_offset 16
	.cfi_offset %rbp, -16
	movq	%rsp, %rbp
	.cfi_def_cfa_register %rbp
	subq	$16, %rsp
	movl	%edi, -4(%rbp)
	movl	-4(%rbp), %edi
	callq	setExit
	movl	exitValue, %edi
	callq	exit
.Lfunc_end19:
	.size	cleanUpAndFail, .Lfunc_end19-cleanUpAndFail
	.cfi_endproc
                                        # -- End function
	.p2align	4, 0x90         # -- Begin function setExit
	.type	setExit,@function
setExit:                                # @setExit
	.cfi_startproc
# %bb.0:
	pushq	%rbp
	.cfi_def_cfa_offset 16
	.cfi_offset %rbp, -16
	movq	%rsp, %rbp
	.cfi_def_cfa_register %rbp
	movl	%edi, -4(%rbp)
	movl	$0, exitValue
	popq	%rbp
	retq
.Lfunc_end20:
	.size	setExit, .Lfunc_end20-setExit
	.cfi_endproc
                                        # -- End function
	.p2align	4, 0x90         # -- Begin function uInt64_qrm10
	.type	uInt64_qrm10,@function
uInt64_qrm10:                           # @uInt64_qrm10
	.cfi_startproc
# %bb.0:
	pushq	%rbp
	.cfi_def_cfa_offset 16
	.cfi_offset %rbp, -16
	movq	%rsp, %rbp
	.cfi_def_cfa_register %rbp
	movq	%rdi, -24(%rbp)
	movl	$0, -8(%rbp)
	movl	$7, -4(%rbp)
.LBB21_1:                               # =>This Inner Loop Header: Depth=1
	cmpl	$0, -4(%rbp)
	jl	.LBB21_4
# %bb.2:                                #   in Loop: Header=BB21_1 Depth=1
	movl	$10, %ecx
	movl	-8(%rbp), %eax
	shll	$8, %eax
	movq	-24(%rbp), %rdx
	movslq	-4(%rbp), %rsi
	movzbl	(%rdx,%rsi), %edx
	addl	%edx, %eax
	movl	%eax, -12(%rbp)
	movl	-12(%rbp), %eax
	xorl	%edx, %edx
	divl	%ecx
	movq	-24(%rbp), %rdx
	movslq	-4(%rbp), %rsi
	movb	%al, (%rdx,%rsi)
	movl	-12(%rbp), %eax
	xorl	%edx, %edx
	divl	%ecx
	movl	%edx, -8(%rbp)
# %bb.3:                                #   in Loop: Header=BB21_1 Depth=1
	movl	-4(%rbp), %eax
	addl	$-1, %eax
	movl	%eax, -4(%rbp)
	jmp	.LBB21_1
.LBB21_4:
	movl	-8(%rbp), %eax
	popq	%rbp
	retq
.Lfunc_end21:
	.size	uInt64_qrm10, .Lfunc_end21-uInt64_qrm10
	.cfi_endproc
                                        # -- End function
	.p2align	4, 0x90         # -- Begin function uInt64_isZero
	.type	uInt64_isZero,@function
uInt64_isZero:                          # @uInt64_isZero
	.cfi_startproc
# %bb.0:
	pushq	%rbp
	.cfi_def_cfa_offset 16
	.cfi_offset %rbp, -16
	movq	%rsp, %rbp
	.cfi_def_cfa_register %rbp
	movq	%rdi, -16(%rbp)
	movl	$0, -8(%rbp)
.LBB22_1:                               # =>This Inner Loop Header: Depth=1
	cmpl	$8, -8(%rbp)
	jge	.LBB22_6
# %bb.2:                                #   in Loop: Header=BB22_1 Depth=1
	movq	-16(%rbp), %rax
	movslq	-8(%rbp), %rcx
	movzbl	(%rax,%rcx), %eax
	cmpl	$0, %eax
	je	.LBB22_4
# %bb.3:
	movb	$0, -1(%rbp)
	jmp	.LBB22_7
.LBB22_4:                               #   in Loop: Header=BB22_1 Depth=1
	jmp	.LBB22_5
.LBB22_5:                               #   in Loop: Header=BB22_1 Depth=1
	movl	-8(%rbp), %eax
	addl	$1, %eax
	movl	%eax, -8(%rbp)
	jmp	.LBB22_1
.LBB22_6:
	movb	$1, -1(%rbp)
.LBB22_7:
	movzbl	-1(%rbp), %eax
	popq	%rbp
	retq
.Lfunc_end22:
	.size	uInt64_isZero, .Lfunc_end22-uInt64_isZero
	.cfi_endproc
                                        # -- End function
	.globl	uncompressStream        # -- Begin function uncompressStream
	.p2align	4, 0x90
	.type	uncompressStream,@function
uncompressStream:                       # @uncompressStream
	.cfi_startproc
# %bb.0:
	pushq	%rbp
	.cfi_def_cfa_offset 16
	.cfi_offset %rbp, -16
	movq	%rsp, %rbp
	.cfi_def_cfa_register %rbp
	subq	$10080, %rsp            # imm = 0x2760
	movl	%edi, -12(%rbp)
	movl	%esi, -32(%rbp)
	movq	$0, -48(%rbp)
	movl	$0, -28(%rbp)
	movl	$0, -36(%rbp)
.LBB23_1:                               # =>This Loop Header: Depth=1
                                        #     Child Loop BB23_5 Depth 2
                                        #     Child Loop BB23_18 Depth 2
	leaq	-8(%rbp), %rdi
	leaq	-10080(%rbp), %r8
	movl	-12(%rbp), %esi
	movl	verbosity, %edx
	movzbl	smallMode, %ecx
	movl	-28(%rbp), %r9d
	callq	BZ2_bzReadOpen
	movq	%rax, -48(%rbp)
	cmpq	$0, -48(%rbp)
	je	.LBB23_3
# %bb.2:                                #   in Loop: Header=BB23_1 Depth=1
	cmpl	$0, -8(%rbp)
	je	.LBB23_4
.LBB23_3:
	jmp	.LBB23_48
.LBB23_4:                               #   in Loop: Header=BB23_1 Depth=1
	movl	-36(%rbp), %eax
	addl	$1, %eax
	movl	%eax, -36(%rbp)
.LBB23_5:                               #   Parent Loop BB23_1 Depth=1
                                        # =>  This Inner Loop Header: Depth=2
	cmpl	$0, -8(%rbp)
	jne	.LBB23_13
# %bb.6:                                #   in Loop: Header=BB23_5 Depth=2
	leaq	-8(%rbp), %rdi
	leaq	-5072(%rbp), %rdx
	movq	-48(%rbp), %rsi
	movl	$5000, %ecx             # imm = 0x1388
	callq	BZ2_bzRead
	movl	%eax, -20(%rbp)
	cmpl	$-5, -8(%rbp)
	jne	.LBB23_8
# %bb.7:
	jmp	.LBB23_39
.LBB23_8:                               #   in Loop: Header=BB23_5 Depth=2
	cmpl	$0, -8(%rbp)
	je	.LBB23_10
# %bb.9:                                #   in Loop: Header=BB23_5 Depth=2
	cmpl	$4, -8(%rbp)
	jne	.LBB23_12
.LBB23_10:                              #   in Loop: Header=BB23_5 Depth=2
	cmpl	$0, -20(%rbp)
	jle	.LBB23_12
# %bb.11:                               #   in Loop: Header=BB23_5 Depth=2
	leaq	-5072(%rbp), %rdi
	movl	-20(%rbp), %edx
	movl	-32(%rbp), %ecx
	movl	$1, %esi
	callq	spec_fwrite
.LBB23_12:                              #   in Loop: Header=BB23_5 Depth=2
	jmp	.LBB23_5
.LBB23_13:                              #   in Loop: Header=BB23_1 Depth=1
	cmpl	$4, -8(%rbp)
	je	.LBB23_15
# %bb.14:
	jmp	.LBB23_48
.LBB23_15:                              #   in Loop: Header=BB23_1 Depth=1
	leaq	-8(%rbp), %rdi
	leaq	-64(%rbp), %rdx
	leaq	-28(%rbp), %rcx
	movq	-48(%rbp), %rsi
	callq	BZ2_bzReadGetUnused
	cmpl	$0, -8(%rbp)
	je	.LBB23_17
# %bb.16:                               #   in Loop: Header=BB23_1 Depth=1
	movabsq	$.L.str.5.14, %rdi
	callq	panic
.LBB23_17:                              #   in Loop: Header=BB23_1 Depth=1
	movq	-64(%rbp), %rax
	movq	%rax, -56(%rbp)
	movl	$0, -16(%rbp)
.LBB23_18:                              #   Parent Loop BB23_1 Depth=1
                                        # =>  This Inner Loop Header: Depth=2
	movl	-16(%rbp), %eax
	cmpl	-28(%rbp), %eax
	jge	.LBB23_21
# %bb.19:                               #   in Loop: Header=BB23_18 Depth=2
	movq	-56(%rbp), %rax
	movslq	-16(%rbp), %rcx
	movb	(%rax,%rcx), %al
	movslq	-16(%rbp), %rcx
	movb	%al, -10080(%rbp,%rcx)
# %bb.20:                               #   in Loop: Header=BB23_18 Depth=2
	movl	-16(%rbp), %eax
	addl	$1, %eax
	movl	%eax, -16(%rbp)
	jmp	.LBB23_18
.LBB23_21:                              #   in Loop: Header=BB23_1 Depth=1
	leaq	-8(%rbp), %rdi
	movq	-48(%rbp), %rsi
	callq	BZ2_bzReadClose
	cmpl	$0, -8(%rbp)
	je	.LBB23_23
# %bb.22:                               #   in Loop: Header=BB23_1 Depth=1
	movabsq	$.L.str.5.14, %rdi
	callq	panic
.LBB23_23:                              #   in Loop: Header=BB23_1 Depth=1
	cmpl	$0, -28(%rbp)
	jne	.LBB23_26
# %bb.24:                               #   in Loop: Header=BB23_1 Depth=1
	movl	-12(%rbp), %edi
	callq	myfeof
	movzbl	%al, %eax
	cmpl	$0, %eax
	je	.LBB23_26
# %bb.25:
	jmp	.LBB23_27
.LBB23_26:                              #   in Loop: Header=BB23_1 Depth=1
	jmp	.LBB23_1
.LBB23_27:
	jmp	.LBB23_28
.LBB23_28:
	movl	$0, -24(%rbp)
	cmpl	$-1, -24(%rbp)
	jne	.LBB23_30
# %bb.29:
	jmp	.LBB23_52
.LBB23_30:
	movl	$0, -24(%rbp)
	cmpl	$0, -24(%rbp)
	je	.LBB23_32
# %bb.31:
	jmp	.LBB23_52
.LBB23_32:
	cmpl	$1, -32(%rbp)
	je	.LBB23_36
# %bb.33:
	movl	$0, -24(%rbp)
	movl	$0, outputHandleJustInCase
	cmpl	$-1, -24(%rbp)
	jne	.LBB23_35
# %bb.34:
	jmp	.LBB23_52
.LBB23_35:
	jmp	.LBB23_36
.LBB23_36:
	movl	$0, outputHandleJustInCase
	cmpl	$2, verbosity
	jl	.LBB23_38
# %bb.37:
	movabsq	$.L.str.6.15, %rsi
	movq	stderr, %rdi
	movb	$0, %al
	callq	fprintf
.LBB23_38:
	movb	$1, -1(%rbp)
	jmp	.LBB23_67
.LBB23_39:
	cmpb	$0, forceOverwrite
	je	.LBB23_47
# %bb.40:
	movl	-12(%rbp), %edi
	callq	spec_rewind
.LBB23_41:                              # =>This Inner Loop Header: Depth=1
	movl	-12(%rbp), %edi
	callq	myfeof
	cmpb	$0, %al
	je	.LBB23_43
# %bb.42:
	jmp	.LBB23_46
.LBB23_43:                              #   in Loop: Header=BB23_41 Depth=1
	leaq	-5072(%rbp), %rdi
	movl	-12(%rbp), %ecx
	movl	$1, %esi
	movl	$5000, %edx             # imm = 0x1388
	callq	spec_fread
	movl	%eax, -20(%rbp)
	cmpl	$0, -20(%rbp)
	jle	.LBB23_45
# %bb.44:                               #   in Loop: Header=BB23_41 Depth=1
	leaq	-5072(%rbp), %rdi
	movl	-20(%rbp), %edx
	movl	-32(%rbp), %ecx
	movl	$1, %esi
	callq	spec_fwrite
.LBB23_45:                              #   in Loop: Header=BB23_41 Depth=1
	jmp	.LBB23_41
.LBB23_46:
	jmp	.LBB23_28
.LBB23_47:
	jmp	.LBB23_48
.LBB23_48:
	movq	-48(%rbp), %rsi
	leaq	-68(%rbp), %rdi
	callq	BZ2_bzReadClose
	movl	-8(%rbp), %eax
	addl	$9, %eax
	movl	%eax, %ecx
	subl	$6, %ecx
	ja	.LBB23_65
# %bb.49:
	movq	.LJTI23_0(,%rax,8), %rax
	jmpq	*%rax
.LBB23_50:
	callq	configError
	jmp	.LBB23_66
.LBB23_51:
	jmp	.LBB23_52
.LBB23_52:
	callq	ioError
	jmp	.LBB23_66
.LBB23_53:
	callq	crcError
.LBB23_54:
	callq	outOfMemory
.LBB23_55:
	callq	compressedStreamEOF
.LBB23_56:
	cmpl	$0, -12(%rbp)
	je	.LBB23_58
# %bb.57:
	jmp	.LBB23_58
.LBB23_58:
	cmpl	$1, -32(%rbp)
	je	.LBB23_60
# %bb.59:
	jmp	.LBB23_60
.LBB23_60:
	cmpl	$1, -36(%rbp)
	jne	.LBB23_62
# %bb.61:
	movb	$0, -1(%rbp)
	jmp	.LBB23_67
.LBB23_62:
	cmpb	$0, noisy
	je	.LBB23_64
# %bb.63:
	movabsq	$.L.str.7.16, %rsi
	movabsq	$inName, %rcx
	movq	stderr, %rdi
	movq	progName, %rdx
	movb	$0, %al
	callq	fprintf
.LBB23_64:
	movb	$1, -1(%rbp)
	jmp	.LBB23_67
.LBB23_65:
	movabsq	$.L.str.8.17, %rdi
	callq	panic
.LBB23_66:
	movabsq	$.L.str.9.18, %rdi
	callq	panic
	movb	$1, -1(%rbp)
.LBB23_67:
	movzbl	-1(%rbp), %eax
	addq	$10080, %rsp            # imm = 0x2760
	popq	%rbp
	retq
.Lfunc_end23:
	.size	uncompressStream, .Lfunc_end23-uncompressStream
	.cfi_endproc
	.section	.rodata,"a",@progbits
	.p2align	3
.LJTI23_0:
	.quad	.LBB23_50
	.quad	.LBB23_65
	.quad	.LBB23_55
	.quad	.LBB23_51
	.quad	.LBB23_56
	.quad	.LBB23_53
	.quad	.LBB23_54
                                        # -- End function
	.text
	.p2align	4, 0x90         # -- Begin function crcError
	.type	crcError,@function
crcError:                               # @crcError
	.cfi_startproc
# %bb.0:
	pushq	%rbp
	.cfi_def_cfa_offset 16
	.cfi_offset %rbp, -16
	movq	%rsp, %rbp
	.cfi_def_cfa_register %rbp
	movabsq	$.L.str.12, %rsi
	movq	stderr, %rdi
	movq	progName, %rdx
	movb	$0, %al
	callq	fprintf
	callq	showFileNames
	callq	cadvise
	movl	$2, %edi
	callq	cleanUpAndFail
	popq	%rbp
	retq
.Lfunc_end24:
	.size	crcError, .Lfunc_end24-crcError
	.cfi_endproc
                                        # -- End function
	.p2align	4, 0x90         # -- Begin function compressedStreamEOF
	.type	compressedStreamEOF,@function
compressedStreamEOF:                    # @compressedStreamEOF
	.cfi_startproc
# %bb.0:
	pushq	%rbp
	.cfi_def_cfa_offset 16
	.cfi_offset %rbp, -16
	movq	%rsp, %rbp
	.cfi_def_cfa_register %rbp
	cmpb	$0, noisy
	je	.LBB25_2
# %bb.1:
	movabsq	$.L.str.14, %rsi
	movq	stderr, %rdi
	movq	progName, %rdx
	movb	$0, %al
	callq	fprintf
	movq	progName, %rdi
	callq	perror
	callq	showFileNames
	callq	cadvise
.LBB25_2:
	movl	$2, %edi
	callq	cleanUpAndFail
	popq	%rbp
	retq
.Lfunc_end25:
	.size	compressedStreamEOF, .Lfunc_end25-compressedStreamEOF
	.cfi_endproc
                                        # -- End function
	.p2align	4, 0x90         # -- Begin function cadvise
	.type	cadvise,@function
cadvise:                                # @cadvise
	.cfi_startproc
# %bb.0:
	pushq	%rbp
	.cfi_def_cfa_offset 16
	.cfi_offset %rbp, -16
	movq	%rsp, %rbp
	.cfi_def_cfa_register %rbp
	cmpb	$0, noisy
	je	.LBB26_2
# %bb.1:
	movabsq	$.L.str.13, %rsi
	movq	stderr, %rdi
	movb	$0, %al
	callq	fprintf
.LBB26_2:
	popq	%rbp
	retq
.Lfunc_end26:
	.size	cadvise, .Lfunc_end26-cadvise
	.cfi_endproc
                                        # -- End function
	.globl	BZ2_bz__AssertH__fail   # -- Begin function BZ2_bz__AssertH__fail
	.p2align	4, 0x90
	.type	BZ2_bz__AssertH__fail,@function
BZ2_bz__AssertH__fail:                  # @BZ2_bz__AssertH__fail
	.cfi_startproc
# %bb.0:
	pushq	%rbp
	.cfi_def_cfa_offset 16
	.cfi_offset %rbp, -16
	movq	%rsp, %rbp
	.cfi_def_cfa_register %rbp
	pushq	%r14
	pushq	%rbx
	subq	$16, %rsp
	.cfi_offset %rbx, -32
	.cfi_offset %r14, -24
	movl	%edi, -20(%rbp)
	movq	stderr, %rbx
	movl	-20(%rbp), %r14d
	callq	BZ2_bzlibVersion
	movabsq	$.L.str.21, %rsi
	movq	%rbx, %rdi
	movl	%r14d, %edx
	movq	%rax, %rcx
	movb	$0, %al
	callq	fprintf
	cmpl	$1007, -20(%rbp)        # imm = 0x3EF
	jne	.LBB27_2
# %bb.1:
	movabsq	$.L.str.1.22, %rsi
	movq	stderr, %rdi
	movb	$0, %al
	callq	fprintf
.LBB27_2:
	xorl	%edi, %edi
	callq	exit
.Lfunc_end27:
	.size	BZ2_bz__AssertH__fail, .Lfunc_end27-BZ2_bz__AssertH__fail
	.cfi_endproc
                                        # -- End function
	.globl	BZ2_bzlibVersion        # -- Begin function BZ2_bzlibVersion
	.p2align	4, 0x90
	.type	BZ2_bzlibVersion,@function
BZ2_bzlibVersion:                       # @BZ2_bzlibVersion
	.cfi_startproc
# %bb.0:
	pushq	%rbp
	.cfi_def_cfa_offset 16
	.cfi_offset %rbp, -16
	movq	%rsp, %rbp
	.cfi_def_cfa_register %rbp
	movabsq	$.L.str.5.23, %rax
	popq	%rbp
	retq
.Lfunc_end28:
	.size	BZ2_bzlibVersion, .Lfunc_end28-BZ2_bzlibVersion
	.cfi_endproc
                                        # -- End function
	.globl	BZ2_bzCompressInit      # -- Begin function BZ2_bzCompressInit
	.p2align	4, 0x90
	.type	BZ2_bzCompressInit,@function
BZ2_bzCompressInit:                     # @BZ2_bzCompressInit
	.cfi_startproc
# %bb.0:
	pushq	%rbp
	.cfi_def_cfa_offset 16
	.cfi_offset %rbp, -16
	movq	%rsp, %rbp
	.cfi_def_cfa_register %rbp
	subq	$48, %rsp
	movq	%rdi, -16(%rbp)
	movl	%esi, -24(%rbp)
	movl	%edx, -36(%rbp)
	movl	%ecx, -20(%rbp)
	callq	bz_config_ok
	cmpl	$0, %eax
	jne	.LBB29_2
# %bb.1:
	movl	$-9, -28(%rbp)
	jmp	.LBB29_29
.LBB29_2:
	cmpq	$0, -16(%rbp)
	je	.LBB29_7
# %bb.3:
	cmpl	$1, -24(%rbp)
	jl	.LBB29_7
# %bb.4:
	cmpl	$9, -24(%rbp)
	jg	.LBB29_7
# %bb.5:
	cmpl	$0, -20(%rbp)
	jl	.LBB29_7
# %bb.6:
	cmpl	$250, -20(%rbp)
	jle	.LBB29_8
.LBB29_7:
	movl	$-2, -28(%rbp)
	jmp	.LBB29_29
.LBB29_8:
	cmpl	$0, -20(%rbp)
	jne	.LBB29_10
# %bb.9:
	movl	$30, -20(%rbp)
.LBB29_10:
	movq	-16(%rbp), %rax
	cmpq	$0, 56(%rax)
	jne	.LBB29_12
# %bb.11:
	movabsq	$default_bzalloc, %rax
	movq	-16(%rbp), %rcx
	movq	%rax, 56(%rcx)
.LBB29_12:
	movq	-16(%rbp), %rax
	cmpq	$0, 64(%rax)
	jne	.LBB29_14
# %bb.13:
	movabsq	$default_bzfree, %rax
	movq	-16(%rbp), %rcx
	movq	%rax, 64(%rcx)
.LBB29_14:
	movq	-16(%rbp), %rax
	movq	56(%rax), %rax
	movq	-16(%rbp), %rcx
	movq	72(%rcx), %rdi
	movl	$55768, %esi            # imm = 0xD9D8
	movl	$1, %edx
	callq	*%rax
	movq	%rax, -8(%rbp)
	cmpq	$0, -8(%rbp)
	jne	.LBB29_16
# %bb.15:
	movl	$-3, -28(%rbp)
	jmp	.LBB29_29
.LBB29_16:
	movq	-16(%rbp), %rax
	movq	-8(%rbp), %rcx
	movq	%rax, (%rcx)
	movq	-8(%rbp), %rax
	movq	$0, 24(%rax)
	movq	-8(%rbp), %rax
	movq	$0, 32(%rax)
	movq	-8(%rbp), %rax
	movq	$0, 40(%rax)
	imull	$100000, -24(%rbp), %eax # imm = 0x186A0
	movl	%eax, -32(%rbp)
	movq	-16(%rbp), %rax
	movq	56(%rax), %rax
	movq	-16(%rbp), %rcx
	movq	72(%rcx), %rdi
	movslq	-32(%rbp), %rsi
	shlq	$2, %rsi
                                        # kill: def %esi killed %esi killed %rsi
	movl	$1, %edx
	callq	*%rax
	movq	-8(%rbp), %rcx
	movq	%rax, 24(%rcx)
	movq	-16(%rbp), %rax
	movq	56(%rax), %rax
	movq	-16(%rbp), %rcx
	movq	72(%rcx), %rdi
	movl	-32(%rbp), %ecx
	addl	$34, %ecx
	movslq	%ecx, %rsi
	shlq	$2, %rsi
                                        # kill: def %esi killed %esi killed %rsi
	movl	$1, %edx
	callq	*%rax
	movq	-8(%rbp), %rcx
	movq	%rax, 32(%rcx)
	movq	-16(%rbp), %rax
	movq	56(%rax), %rax
	movq	-16(%rbp), %rcx
	movq	72(%rcx), %rdi
	movl	$262148, %esi           # imm = 0x40004
	movl	$1, %edx
	callq	*%rax
	movq	-8(%rbp), %rcx
	movq	%rax, 40(%rcx)
	movq	-8(%rbp), %rax
	cmpq	$0, 24(%rax)
	je	.LBB29_19
# %bb.17:
	movq	-8(%rbp), %rax
	cmpq	$0, 32(%rax)
	je	.LBB29_19
# %bb.18:
	movq	-8(%rbp), %rax
	cmpq	$0, 40(%rax)
	jne	.LBB29_28
.LBB29_19:
	movq	-8(%rbp), %rax
	cmpq	$0, 24(%rax)
	je	.LBB29_21
# %bb.20:
	movq	-16(%rbp), %rax
	movq	64(%rax), %rax
	movq	-16(%rbp), %rcx
	movq	72(%rcx), %rdi
	movq	-8(%rbp), %rcx
	movq	24(%rcx), %rsi
	callq	*%rax
.LBB29_21:
	movq	-8(%rbp), %rax
	cmpq	$0, 32(%rax)
	je	.LBB29_23
# %bb.22:
	movq	-16(%rbp), %rax
	movq	64(%rax), %rax
	movq	-16(%rbp), %rcx
	movq	72(%rcx), %rdi
	movq	-8(%rbp), %rcx
	movq	32(%rcx), %rsi
	callq	*%rax
.LBB29_23:
	movq	-8(%rbp), %rax
	cmpq	$0, 40(%rax)
	je	.LBB29_25
# %bb.24:
	movq	-16(%rbp), %rax
	movq	64(%rax), %rax
	movq	-16(%rbp), %rcx
	movq	72(%rcx), %rdi
	movq	-8(%rbp), %rcx
	movq	40(%rcx), %rsi
	callq	*%rax
.LBB29_25:
	cmpq	$0, -8(%rbp)
	je	.LBB29_27
# %bb.26:
	movq	-16(%rbp), %rax
	movq	64(%rax), %rax
	movq	-16(%rbp), %rcx
	movq	72(%rcx), %rdi
	movq	-8(%rbp), %rsi
	callq	*%rax
.LBB29_27:
	movl	$-3, -28(%rbp)
	jmp	.LBB29_29
.LBB29_28:
	movq	-8(%rbp), %rax
	movl	$0, 660(%rax)
	movq	-8(%rbp), %rax
	movl	$2, 12(%rax)
	movq	-8(%rbp), %rax
	movl	$2, 8(%rax)
	movq	-8(%rbp), %rax
	movl	$0, 652(%rax)
	movl	-24(%rbp), %eax
	movq	-8(%rbp), %rcx
	movl	%eax, 664(%rcx)
	imull	$100000, -24(%rbp), %eax # imm = 0x186A0
	subl	$19, %eax
	movq	-8(%rbp), %rcx
	movl	%eax, 112(%rcx)
	movl	-36(%rbp), %eax
	movq	-8(%rbp), %rcx
	movl	%eax, 656(%rcx)
	movl	-20(%rbp), %eax
	movq	-8(%rbp), %rcx
	movl	%eax, 88(%rcx)
	movq	-8(%rbp), %rax
	movq	32(%rax), %rax
	movq	-8(%rbp), %rcx
	movq	%rax, 64(%rcx)
	movq	-8(%rbp), %rax
	movq	24(%rax), %rax
	movq	-8(%rbp), %rcx
	movq	%rax, 72(%rcx)
	movq	-8(%rbp), %rax
	movq	$0, 80(%rax)
	movq	-8(%rbp), %rax
	movq	24(%rax), %rax
	movq	-8(%rbp), %rcx
	movq	%rax, 56(%rcx)
	movq	-8(%rbp), %rax
	movq	-16(%rbp), %rcx
	movq	%rax, 48(%rcx)
	movq	-16(%rbp), %rax
	movl	$0, 12(%rax)
	movq	-16(%rbp), %rax
	movl	$0, 16(%rax)
	movq	-16(%rbp), %rax
	movl	$0, 36(%rax)
	movq	-16(%rbp), %rax
	movl	$0, 40(%rax)
	movq	-8(%rbp), %rdi
	callq	init_RL
	movq	-8(%rbp), %rdi
	callq	prepare_new_block
	movl	$0, -28(%rbp)
.LBB29_29:
	movl	-28(%rbp), %eax
	addq	$48, %rsp
	popq	%rbp
	retq
.Lfunc_end29:
	.size	BZ2_bzCompressInit, .Lfunc_end29-BZ2_bzCompressInit
	.cfi_endproc
                                        # -- End function
	.p2align	4, 0x90         # -- Begin function bz_config_ok
	.type	bz_config_ok,@function
bz_config_ok:                           # @bz_config_ok
	.cfi_startproc
# %bb.0:
	pushq	%rbp
	.cfi_def_cfa_offset 16
	.cfi_offset %rbp, -16
	movq	%rsp, %rbp
	.cfi_def_cfa_register %rbp
	movl	$1, %eax
	popq	%rbp
	retq
.Lfunc_end30:
	.size	bz_config_ok, .Lfunc_end30-bz_config_ok
	.cfi_endproc
                                        # -- End function
	.p2align	4, 0x90         # -- Begin function default_bzalloc
	.type	default_bzalloc,@function
default_bzalloc:                        # @default_bzalloc
	.cfi_startproc
# %bb.0:
	pushq	%rbp
	.cfi_def_cfa_offset 16
	.cfi_offset %rbp, -16
	movq	%rsp, %rbp
	.cfi_def_cfa_register %rbp
	subq	$32, %rsp
	movq	%rdi, -24(%rbp)
	movl	%esi, -8(%rbp)
	movl	%edx, -4(%rbp)
	movl	-8(%rbp), %eax
	imull	-4(%rbp), %eax
	movslq	%eax, %rdi
	callq	malloc
	movq	%rax, -16(%rbp)
	movq	-16(%rbp), %rax
	addq	$32, %rsp
	popq	%rbp
	retq
.Lfunc_end31:
	.size	default_bzalloc, .Lfunc_end31-default_bzalloc
	.cfi_endproc
                                        # -- End function
	.p2align	4, 0x90         # -- Begin function default_bzfree
	.type	default_bzfree,@function
default_bzfree:                         # @default_bzfree
	.cfi_startproc
# %bb.0:
	pushq	%rbp
	.cfi_def_cfa_offset 16
	.cfi_offset %rbp, -16
	movq	%rsp, %rbp
	.cfi_def_cfa_register %rbp
	subq	$16, %rsp
	movq	%rdi, -16(%rbp)
	movq	%rsi, -8(%rbp)
	cmpq	$0, -8(%rbp)
	je	.LBB32_2
# %bb.1:
	movq	-8(%rbp), %rdi
	callq	free
.LBB32_2:
	addq	$16, %rsp
	popq	%rbp
	retq
.Lfunc_end32:
	.size	default_bzfree, .Lfunc_end32-default_bzfree
	.cfi_endproc
                                        # -- End function
	.p2align	4, 0x90         # -- Begin function init_RL
	.type	init_RL,@function
init_RL:                                # @init_RL
	.cfi_startproc
# %bb.0:
	pushq	%rbp
	.cfi_def_cfa_offset 16
	.cfi_offset %rbp, -16
	movq	%rsp, %rbp
	.cfi_def_cfa_register %rbp
	movq	%rdi, -8(%rbp)
	movq	-8(%rbp), %rax
	movl	$256, 92(%rax)          # imm = 0x100
	movq	-8(%rbp), %rax
	movl	$0, 96(%rax)
	popq	%rbp
	retq
.Lfunc_end33:
	.size	init_RL, .Lfunc_end33-init_RL
	.cfi_endproc
                                        # -- End function
	.p2align	4, 0x90         # -- Begin function prepare_new_block
	.type	prepare_new_block,@function
prepare_new_block:                      # @prepare_new_block
	.cfi_startproc
# %bb.0:
	pushq	%rbp
	.cfi_def_cfa_offset 16
	.cfi_offset %rbp, -16
	movq	%rsp, %rbp
	.cfi_def_cfa_register %rbp
	movq	%rdi, -16(%rbp)
	movq	-16(%rbp), %rax
	movl	$0, 108(%rax)
	movq	-16(%rbp), %rax
	movl	$0, 116(%rax)
	movq	-16(%rbp), %rax
	movl	$0, 120(%rax)
	movq	-16(%rbp), %rax
	movl	$-1, 648(%rax)
	movl	$0, -4(%rbp)
.LBB34_1:                               # =>This Inner Loop Header: Depth=1
	cmpl	$256, -4(%rbp)          # imm = 0x100
	jge	.LBB34_4
# %bb.2:                                #   in Loop: Header=BB34_1 Depth=1
	movq	-16(%rbp), %rax
	movslq	-4(%rbp), %rcx
	movb	$0, 128(%rax,%rcx)
# %bb.3:                                #   in Loop: Header=BB34_1 Depth=1
	movl	-4(%rbp), %eax
	addl	$1, %eax
	movl	%eax, -4(%rbp)
	jmp	.LBB34_1
.LBB34_4:
	movq	-16(%rbp), %rax
	movl	660(%rax), %ecx
	addl	$1, %ecx
	movl	%ecx, 660(%rax)
	popq	%rbp
	retq
.Lfunc_end34:
	.size	prepare_new_block, .Lfunc_end34-prepare_new_block
	.cfi_endproc
                                        # -- End function
	.globl	BZ2_bzCompress          # -- Begin function BZ2_bzCompress
	.p2align	4, 0x90
	.type	BZ2_bzCompress,@function
BZ2_bzCompress:                         # @BZ2_bzCompress
	.cfi_startproc
# %bb.0:
	pushq	%rbp
	.cfi_def_cfa_offset 16
	.cfi_offset %rbp, -16
	movq	%rsp, %rbp
	.cfi_def_cfa_register %rbp
	subq	$32, %rsp
	movq	%rdi, -32(%rbp)
	movl	%esi, -20(%rbp)
	cmpq	$0, -32(%rbp)
	jne	.LBB35_2
# %bb.1:
	movl	$-2, -8(%rbp)
	jmp	.LBB35_39
.LBB35_2:
	movq	-32(%rbp), %rax
	movq	48(%rax), %rax
	movq	%rax, -16(%rbp)
	cmpq	$0, -16(%rbp)
	jne	.LBB35_4
# %bb.3:
	movl	$-2, -8(%rbp)
	jmp	.LBB35_39
.LBB35_4:
	movq	-16(%rbp), %rax
	movq	(%rax), %rax
	cmpq	-32(%rbp), %rax
	je	.LBB35_6
# %bb.5:
	movl	$-2, -8(%rbp)
	jmp	.LBB35_39
.LBB35_6:
	jmp	.LBB35_7
.LBB35_7:                               # =>This Inner Loop Header: Depth=1
	movq	-16(%rbp), %rax
	movl	8(%rax), %eax
	addl	$-1, %eax
	movl	%eax, %ecx
	subl	$3, %ecx
	ja	.LBB35_38
# %bb.8:                                #   in Loop: Header=BB35_7 Depth=1
	movq	.LJTI35_0(,%rax,8), %rax
	jmpq	*%rax
.LBB35_9:
	movl	$-1, -8(%rbp)
	jmp	.LBB35_39
.LBB35_10:                              #   in Loop: Header=BB35_7 Depth=1
	cmpl	$0, -20(%rbp)
	jne	.LBB35_12
# %bb.11:
	movq	-32(%rbp), %rdi
	callq	handle_compress
	movl	$4294967294, %ecx       # imm = 0xFFFFFFFE
	movl	$1, %edx
	movb	%al, -1(%rbp)
	movzbl	-1(%rbp), %eax
	cmpl	$0, %eax
	cmovnel	%edx, %ecx
	movl	%ecx, -8(%rbp)
	jmp	.LBB35_39
.LBB35_12:                              #   in Loop: Header=BB35_7 Depth=1
	cmpl	$1, -20(%rbp)
	jne	.LBB35_15
# %bb.13:                               #   in Loop: Header=BB35_7 Depth=1
	movq	-32(%rbp), %rax
	movl	8(%rax), %eax
	movq	-16(%rbp), %rcx
	movl	%eax, 16(%rcx)
	movq	-16(%rbp), %rax
	movl	$3, 8(%rax)
.LBB35_14:                              # %.backedge
                                        #   in Loop: Header=BB35_7 Depth=1
	jmp	.LBB35_7
.LBB35_15:                              #   in Loop: Header=BB35_7 Depth=1
	cmpl	$2, -20(%rbp)
	jne	.LBB35_17
# %bb.16:                               #   in Loop: Header=BB35_7 Depth=1
	movq	-32(%rbp), %rax
	movl	8(%rax), %eax
	movq	-16(%rbp), %rcx
	movl	%eax, 16(%rcx)
	movq	-16(%rbp), %rax
	movl	$4, 8(%rax)
	jmp	.LBB35_14
.LBB35_17:
	movl	$-2, -8(%rbp)
	jmp	.LBB35_39
.LBB35_18:
	cmpl	$1, -20(%rbp)
	je	.LBB35_20
# %bb.19:
	movl	$-1, -8(%rbp)
	jmp	.LBB35_39
.LBB35_20:
	movq	-16(%rbp), %rax
	movl	16(%rax), %eax
	movq	-16(%rbp), %rcx
	movq	(%rcx), %rcx
	cmpl	8(%rcx), %eax
	je	.LBB35_22
# %bb.21:
	movl	$-1, -8(%rbp)
	jmp	.LBB35_39
.LBB35_22:
	movq	-32(%rbp), %rdi
	callq	handle_compress
	movb	%al, -1(%rbp)
	movq	-16(%rbp), %rax
	cmpl	$0, 16(%rax)
	ja	.LBB35_25
# %bb.23:
	movq	-16(%rbp), %rdi
	callq	isempty_RL
	cmpb	$0, %al
	je	.LBB35_25
# %bb.24:
	movq	-16(%rbp), %rax
	movl	120(%rax), %eax
	movq	-16(%rbp), %rcx
	cmpl	116(%rcx), %eax
	jge	.LBB35_26
.LBB35_25:
	movl	$2, -8(%rbp)
	jmp	.LBB35_39
.LBB35_26:
	movq	-16(%rbp), %rax
	movl	$2, 8(%rax)
	movl	$1, -8(%rbp)
	jmp	.LBB35_39
.LBB35_27:
	cmpl	$2, -20(%rbp)
	je	.LBB35_29
# %bb.28:
	movl	$-1, -8(%rbp)
	jmp	.LBB35_39
.LBB35_29:
	movq	-16(%rbp), %rax
	movl	16(%rax), %eax
	movq	-16(%rbp), %rcx
	movq	(%rcx), %rcx
	cmpl	8(%rcx), %eax
	je	.LBB35_31
# %bb.30:
	movl	$-1, -8(%rbp)
	jmp	.LBB35_39
.LBB35_31:
	movq	-32(%rbp), %rdi
	callq	handle_compress
	movb	%al, -1(%rbp)
	cmpb	$0, -1(%rbp)
	jne	.LBB35_33
# %bb.32:
	movl	$-1, -8(%rbp)
	jmp	.LBB35_39
.LBB35_33:
	movq	-16(%rbp), %rax
	cmpl	$0, 16(%rax)
	ja	.LBB35_36
# %bb.34:
	movq	-16(%rbp), %rdi
	callq	isempty_RL
	cmpb	$0, %al
	je	.LBB35_36
# %bb.35:
	movq	-16(%rbp), %rax
	movl	120(%rax), %eax
	movq	-16(%rbp), %rcx
	cmpl	116(%rcx), %eax
	jge	.LBB35_37
.LBB35_36:
	movl	$3, -8(%rbp)
	jmp	.LBB35_39
.LBB35_37:
	movq	-16(%rbp), %rax
	movl	$1, 8(%rax)
	movl	$4, -8(%rbp)
	jmp	.LBB35_39
.LBB35_38:
	movl	$0, -8(%rbp)
.LBB35_39:
	movl	-8(%rbp), %eax
	addq	$32, %rsp
	popq	%rbp
	retq
.Lfunc_end35:
	.size	BZ2_bzCompress, .Lfunc_end35-BZ2_bzCompress
	.cfi_endproc
	.section	.rodata,"a",@progbits
	.p2align	3
.LJTI35_0:
	.quad	.LBB35_9
	.quad	.LBB35_10
	.quad	.LBB35_18
	.quad	.LBB35_27
                                        # -- End function
	.text
	.p2align	4, 0x90         # -- Begin function handle_compress
	.type	handle_compress,@function
handle_compress:                        # @handle_compress
	.cfi_startproc
# %bb.0:
	pushq	%rbp
	.cfi_def_cfa_offset 16
	.cfi_offset %rbp, -16
	movq	%rsp, %rbp
	.cfi_def_cfa_register %rbp
	subq	$32, %rsp
	movq	%rdi, -24(%rbp)
	movb	$0, -2(%rbp)
	movb	$0, -1(%rbp)
	movq	-24(%rbp), %rax
	movq	48(%rax), %rax
	movq	%rax, -16(%rbp)
.LBB36_1:                               # =>This Inner Loop Header: Depth=1
	movq	-16(%rbp), %rax
	cmpl	$1, 12(%rax)
	jne	.LBB36_13
# %bb.2:                                #   in Loop: Header=BB36_1 Depth=1
	movq	-16(%rbp), %rdi
	callq	copy_output_until_stop
	movzbl	%al, %eax
	movzbl	-1(%rbp), %ecx
	orl	%eax, %ecx
	movb	%cl, -1(%rbp)
	movq	-16(%rbp), %rax
	movl	120(%rax), %eax
	movq	-16(%rbp), %rcx
	cmpl	116(%rcx), %eax
	jge	.LBB36_4
# %bb.3:
	jmp	.LBB36_25
.LBB36_4:                               #   in Loop: Header=BB36_1 Depth=1
	movq	-16(%rbp), %rax
	cmpl	$4, 8(%rax)
	jne	.LBB36_8
# %bb.5:                                #   in Loop: Header=BB36_1 Depth=1
	movq	-16(%rbp), %rax
	cmpl	$0, 16(%rax)
	jne	.LBB36_8
# %bb.6:                                #   in Loop: Header=BB36_1 Depth=1
	movq	-16(%rbp), %rdi
	callq	isempty_RL
	movzbl	%al, %eax
	cmpl	$0, %eax
	je	.LBB36_8
# %bb.7:
	jmp	.LBB36_25
.LBB36_8:                               #   in Loop: Header=BB36_1 Depth=1
	movq	-16(%rbp), %rdi
	callq	prepare_new_block
	movq	-16(%rbp), %rax
	movl	$2, 12(%rax)
	movq	-16(%rbp), %rax
	cmpl	$3, 8(%rax)
	jne	.LBB36_12
# %bb.9:                                #   in Loop: Header=BB36_1 Depth=1
	movq	-16(%rbp), %rax
	cmpl	$0, 16(%rax)
	jne	.LBB36_12
# %bb.10:                               #   in Loop: Header=BB36_1 Depth=1
	movq	-16(%rbp), %rdi
	callq	isempty_RL
	movzbl	%al, %eax
	cmpl	$0, %eax
	je	.LBB36_12
# %bb.11:
	jmp	.LBB36_25
.LBB36_12:                              #   in Loop: Header=BB36_1 Depth=1
	jmp	.LBB36_13
.LBB36_13:                              #   in Loop: Header=BB36_1 Depth=1
	movq	-16(%rbp), %rax
	cmpl	$2, 12(%rax)
	jne	.LBB36_24
# %bb.14:                               #   in Loop: Header=BB36_1 Depth=1
	movq	-16(%rbp), %rdi
	callq	copy_input_until_stop
	movzbl	%al, %eax
	movzbl	-2(%rbp), %ecx
	orl	%eax, %ecx
	movb	%cl, -2(%rbp)
	movq	-16(%rbp), %rax
	cmpl	$2, 8(%rax)
	je	.LBB36_17
# %bb.15:                               #   in Loop: Header=BB36_1 Depth=1
	movq	-16(%rbp), %rax
	cmpl	$0, 16(%rax)
	jne	.LBB36_17
# %bb.16:                               #   in Loop: Header=BB36_1 Depth=1
	movq	-16(%rbp), %rdi
	callq	flush_RL
	movq	-16(%rbp), %rdi
	movq	-16(%rbp), %rax
	cmpl	$4, 8(%rax)
	sete	%al
	andb	$1, %al
	movzbl	%al, %eax
	movzbl	%al, %esi
	callq	BZ2_compressBlock
	movq	-16(%rbp), %rax
	movl	$1, 12(%rax)
	jmp	.LBB36_23
.LBB36_17:                              #   in Loop: Header=BB36_1 Depth=1
	movq	-16(%rbp), %rax
	movl	108(%rax), %eax
	movq	-16(%rbp), %rcx
	cmpl	112(%rcx), %eax
	jl	.LBB36_19
# %bb.18:                               #   in Loop: Header=BB36_1 Depth=1
	movq	-16(%rbp), %rdi
	xorl	%esi, %esi
	callq	BZ2_compressBlock
	movq	-16(%rbp), %rax
	movl	$1, 12(%rax)
	jmp	.LBB36_22
.LBB36_19:                              #   in Loop: Header=BB36_1 Depth=1
	movq	-16(%rbp), %rax
	movq	(%rax), %rax
	cmpl	$0, 8(%rax)
	jne	.LBB36_21
# %bb.20:
	jmp	.LBB36_25
.LBB36_21:                              #   in Loop: Header=BB36_1 Depth=1
	jmp	.LBB36_22
.LBB36_22:                              #   in Loop: Header=BB36_1 Depth=1
	jmp	.LBB36_23
.LBB36_23:                              #   in Loop: Header=BB36_1 Depth=1
	jmp	.LBB36_24
.LBB36_24:                              #   in Loop: Header=BB36_1 Depth=1
	jmp	.LBB36_1
.LBB36_25:
	movb	$1, %al
	movzbl	-2(%rbp), %ecx
	cmpl	$0, %ecx
	jne	.LBB36_27
# %bb.26:
	movzbl	-1(%rbp), %eax
	cmpl	$0, %eax
	setne	%al
.LBB36_27:
	andb	$1, %al
	movzbl	%al, %eax
	movzbl	%al, %eax
	addq	$32, %rsp
	popq	%rbp
	retq
.Lfunc_end36:
	.size	handle_compress, .Lfunc_end36-handle_compress
	.cfi_endproc
                                        # -- End function
	.p2align	4, 0x90         # -- Begin function isempty_RL
	.type	isempty_RL,@function
isempty_RL:                             # @isempty_RL
	.cfi_startproc
# %bb.0:
	pushq	%rbp
	.cfi_def_cfa_offset 16
	.cfi_offset %rbp, -16
	movq	%rsp, %rbp
	.cfi_def_cfa_register %rbp
	movq	%rdi, -16(%rbp)
	movq	-16(%rbp), %rax
	cmpl	$256, 92(%rax)          # imm = 0x100
	jae	.LBB37_3
# %bb.1:
	movq	-16(%rbp), %rax
	cmpl	$0, 96(%rax)
	jle	.LBB37_3
# %bb.2:
	movb	$0, -1(%rbp)
	jmp	.LBB37_4
.LBB37_3:
	movb	$1, -1(%rbp)
.LBB37_4:
	movzbl	-1(%rbp), %eax
	popq	%rbp
	retq
.Lfunc_end37:
	.size	isempty_RL, .Lfunc_end37-isempty_RL
	.cfi_endproc
                                        # -- End function
	.p2align	4, 0x90         # -- Begin function copy_output_until_stop
	.type	copy_output_until_stop,@function
copy_output_until_stop:                 # @copy_output_until_stop
	.cfi_startproc
# %bb.0:
	pushq	%rbp
	.cfi_def_cfa_offset 16
	.cfi_offset %rbp, -16
	movq	%rsp, %rbp
	.cfi_def_cfa_register %rbp
	movq	%rdi, -16(%rbp)
	movb	$0, -1(%rbp)
.LBB38_1:                               # =>This Inner Loop Header: Depth=1
	movq	-16(%rbp), %rax
	movq	(%rax), %rax
	cmpl	$0, 32(%rax)
	jne	.LBB38_3
# %bb.2:
	jmp	.LBB38_8
.LBB38_3:                               #   in Loop: Header=BB38_1 Depth=1
	movq	-16(%rbp), %rax
	movl	120(%rax), %eax
	movq	-16(%rbp), %rcx
	cmpl	116(%rcx), %eax
	jl	.LBB38_5
# %bb.4:
	jmp	.LBB38_8
.LBB38_5:                               #   in Loop: Header=BB38_1 Depth=1
	movb	$1, -1(%rbp)
	movq	-16(%rbp), %rax
	movq	80(%rax), %rax
	movq	-16(%rbp), %rcx
	movslq	120(%rcx), %rcx
	movb	(%rax,%rcx), %al
	movq	-16(%rbp), %rcx
	movq	(%rcx), %rcx
	movq	24(%rcx), %rcx
	movb	%al, (%rcx)
	movq	-16(%rbp), %rax
	movl	120(%rax), %ecx
	addl	$1, %ecx
	movl	%ecx, 120(%rax)
	movq	-16(%rbp), %rax
	movq	(%rax), %rax
	movl	32(%rax), %ecx
	addl	$-1, %ecx
	movl	%ecx, 32(%rax)
	movq	-16(%rbp), %rax
	movq	(%rax), %rax
	movq	24(%rax), %rcx
	addq	$1, %rcx
	movq	%rcx, 24(%rax)
	movq	-16(%rbp), %rax
	movq	(%rax), %rax
	movl	36(%rax), %ecx
	addl	$1, %ecx
	movl	%ecx, 36(%rax)
	movq	-16(%rbp), %rax
	movq	(%rax), %rax
	cmpl	$0, 36(%rax)
	jne	.LBB38_7
# %bb.6:                                #   in Loop: Header=BB38_1 Depth=1
	movq	-16(%rbp), %rax
	movq	(%rax), %rax
	movl	40(%rax), %ecx
	addl	$1, %ecx
	movl	%ecx, 40(%rax)
.LBB38_7:                               #   in Loop: Header=BB38_1 Depth=1
	jmp	.LBB38_1
.LBB38_8:
	movzbl	-1(%rbp), %eax
	popq	%rbp
	retq
.Lfunc_end38:
	.size	copy_output_until_stop, .Lfunc_end38-copy_output_until_stop
	.cfi_endproc
                                        # -- End function
	.p2align	4, 0x90         # -- Begin function copy_input_until_stop
	.type	copy_input_until_stop,@function
copy_input_until_stop:                  # @copy_input_until_stop
	.cfi_startproc
# %bb.0:
	pushq	%rbp
	.cfi_def_cfa_offset 16
	.cfi_offset %rbp, -16
	movq	%rsp, %rbp
	.cfi_def_cfa_register %rbp
	subq	$32, %rsp
	movq	%rdi, -8(%rbp)
	movb	$0, -9(%rbp)
	movq	-8(%rbp), %rax
	cmpl	$2, 8(%rax)
	jne	.LBB39_20
# %bb.1:
	jmp	.LBB39_2
.LBB39_2:                               # =>This Inner Loop Header: Depth=1
	movq	-8(%rbp), %rax
	movl	108(%rax), %eax
	movq	-8(%rbp), %rcx
	cmpl	112(%rcx), %eax
	jl	.LBB39_4
# %bb.3:
	jmp	.LBB39_19
.LBB39_4:                               #   in Loop: Header=BB39_2 Depth=1
	movq	-8(%rbp), %rax
	movq	(%rax), %rax
	cmpl	$0, 8(%rax)
	jne	.LBB39_6
# %bb.5:
	jmp	.LBB39_19
.LBB39_6:                               #   in Loop: Header=BB39_2 Depth=1
	movb	$1, -9(%rbp)
	movq	-8(%rbp), %rax
	movq	(%rax), %rax
	movq	(%rax), %rax
	movzbl	(%rax), %eax
	movl	%eax, -20(%rbp)
	movl	-20(%rbp), %eax
	movq	-8(%rbp), %rcx
	cmpl	92(%rcx), %eax
	je	.LBB39_9
# %bb.7:                                #   in Loop: Header=BB39_2 Depth=1
	movq	-8(%rbp), %rax
	cmpl	$1, 96(%rax)
	jne	.LBB39_9
# %bb.8:                                #   in Loop: Header=BB39_2 Depth=1
	movq	-8(%rbp), %rax
	movl	92(%rax), %eax
	movb	%al, -11(%rbp)
	movq	-8(%rbp), %rax
	movl	648(%rax), %eax
	shll	$8, %eax
	movq	-8(%rbp), %rcx
	movl	648(%rcx), %ecx
	shrl	$24, %ecx
	movzbl	-11(%rbp), %edx
	xorl	%edx, %ecx
	movl	%ecx, %ecx
	xorl	BZ2_crc32Table(,%rcx,4), %eax
	movq	-8(%rbp), %rcx
	movl	%eax, 648(%rcx)
	movq	-8(%rbp), %rax
	movq	-8(%rbp), %rcx
	movl	92(%rcx), %ecx
	movb	$1, 128(%rax,%rcx)
	movb	-11(%rbp), %al
	movq	-8(%rbp), %rcx
	movq	64(%rcx), %rcx
	movq	-8(%rbp), %rdx
	movslq	108(%rdx), %rdx
	movb	%al, (%rcx,%rdx)
	movq	-8(%rbp), %rax
	movl	108(%rax), %ecx
	addl	$1, %ecx
	movl	%ecx, 108(%rax)
	movl	-20(%rbp), %eax
	movq	-8(%rbp), %rcx
	movl	%eax, 92(%rcx)
	jmp	.LBB39_16
.LBB39_9:                               #   in Loop: Header=BB39_2 Depth=1
	movl	-20(%rbp), %eax
	movq	-8(%rbp), %rcx
	cmpl	92(%rcx), %eax
	jne	.LBB39_11
# %bb.10:                               #   in Loop: Header=BB39_2 Depth=1
	movq	-8(%rbp), %rax
	cmpl	$255, 96(%rax)
	jne	.LBB39_14
.LBB39_11:                              #   in Loop: Header=BB39_2 Depth=1
	movq	-8(%rbp), %rax
	cmpl	$256, 92(%rax)          # imm = 0x100
	jae	.LBB39_13
# %bb.12:                               #   in Loop: Header=BB39_2 Depth=1
	movq	-8(%rbp), %rdi
	callq	add_pair_to_block
.LBB39_13:                              #   in Loop: Header=BB39_2 Depth=1
	movl	-20(%rbp), %eax
	movq	-8(%rbp), %rcx
	movl	%eax, 92(%rcx)
	movq	-8(%rbp), %rax
	movl	$1, 96(%rax)
	jmp	.LBB39_15
.LBB39_14:                              #   in Loop: Header=BB39_2 Depth=1
	movq	-8(%rbp), %rax
	movl	96(%rax), %ecx
	addl	$1, %ecx
	movl	%ecx, 96(%rax)
.LBB39_15:                              #   in Loop: Header=BB39_2 Depth=1
	jmp	.LBB39_16
.LBB39_16:                              #   in Loop: Header=BB39_2 Depth=1
	movq	-8(%rbp), %rax
	movq	(%rax), %rax
	movq	(%rax), %rcx
	addq	$1, %rcx
	movq	%rcx, (%rax)
	movq	-8(%rbp), %rax
	movq	(%rax), %rax
	movl	8(%rax), %ecx
	addl	$-1, %ecx
	movl	%ecx, 8(%rax)
	movq	-8(%rbp), %rax
	movq	(%rax), %rax
	movl	12(%rax), %ecx
	addl	$1, %ecx
	movl	%ecx, 12(%rax)
	movq	-8(%rbp), %rax
	movq	(%rax), %rax
	cmpl	$0, 12(%rax)
	jne	.LBB39_18
# %bb.17:                               #   in Loop: Header=BB39_2 Depth=1
	movq	-8(%rbp), %rax
	movq	(%rax), %rax
	movl	16(%rax), %ecx
	addl	$1, %ecx
	movl	%ecx, 16(%rax)
.LBB39_18:                              #   in Loop: Header=BB39_2 Depth=1
	jmp	.LBB39_2
.LBB39_19:
	jmp	.LBB39_41
.LBB39_20:
	jmp	.LBB39_21
.LBB39_21:                              # =>This Inner Loop Header: Depth=1
	movq	-8(%rbp), %rax
	movl	108(%rax), %eax
	movq	-8(%rbp), %rcx
	cmpl	112(%rcx), %eax
	jl	.LBB39_23
# %bb.22:
	jmp	.LBB39_40
.LBB39_23:                              #   in Loop: Header=BB39_21 Depth=1
	movq	-8(%rbp), %rax
	movq	(%rax), %rax
	cmpl	$0, 8(%rax)
	jne	.LBB39_25
# %bb.24:
	jmp	.LBB39_40
.LBB39_25:                              #   in Loop: Header=BB39_21 Depth=1
	movq	-8(%rbp), %rax
	cmpl	$0, 16(%rax)
	jne	.LBB39_27
# %bb.26:
	jmp	.LBB39_40
.LBB39_27:                              #   in Loop: Header=BB39_21 Depth=1
	movb	$1, -9(%rbp)
	movq	-8(%rbp), %rax
	movq	(%rax), %rax
	movq	(%rax), %rax
	movzbl	(%rax), %eax
	movl	%eax, -16(%rbp)
	movl	-16(%rbp), %eax
	movq	-8(%rbp), %rcx
	cmpl	92(%rcx), %eax
	je	.LBB39_30
# %bb.28:                               #   in Loop: Header=BB39_21 Depth=1
	movq	-8(%rbp), %rax
	cmpl	$1, 96(%rax)
	jne	.LBB39_30
# %bb.29:                               #   in Loop: Header=BB39_21 Depth=1
	movq	-8(%rbp), %rax
	movl	92(%rax), %eax
	movb	%al, -10(%rbp)
	movq	-8(%rbp), %rax
	movl	648(%rax), %eax
	shll	$8, %eax
	movq	-8(%rbp), %rcx
	movl	648(%rcx), %ecx
	shrl	$24, %ecx
	movzbl	-10(%rbp), %edx
	xorl	%edx, %ecx
	movl	%ecx, %ecx
	xorl	BZ2_crc32Table(,%rcx,4), %eax
	movq	-8(%rbp), %rcx
	movl	%eax, 648(%rcx)
	movq	-8(%rbp), %rax
	movq	-8(%rbp), %rcx
	movl	92(%rcx), %ecx
	movb	$1, 128(%rax,%rcx)
	movb	-10(%rbp), %al
	movq	-8(%rbp), %rcx
	movq	64(%rcx), %rcx
	movq	-8(%rbp), %rdx
	movslq	108(%rdx), %rdx
	movb	%al, (%rcx,%rdx)
	movq	-8(%rbp), %rax
	movl	108(%rax), %ecx
	addl	$1, %ecx
	movl	%ecx, 108(%rax)
	movl	-16(%rbp), %eax
	movq	-8(%rbp), %rcx
	movl	%eax, 92(%rcx)
	jmp	.LBB39_37
.LBB39_30:                              #   in Loop: Header=BB39_21 Depth=1
	movl	-16(%rbp), %eax
	movq	-8(%rbp), %rcx
	cmpl	92(%rcx), %eax
	jne	.LBB39_32
# %bb.31:                               #   in Loop: Header=BB39_21 Depth=1
	movq	-8(%rbp), %rax
	cmpl	$255, 96(%rax)
	jne	.LBB39_35
.LBB39_32:                              #   in Loop: Header=BB39_21 Depth=1
	movq	-8(%rbp), %rax
	cmpl	$256, 92(%rax)          # imm = 0x100
	jae	.LBB39_34
# %bb.33:                               #   in Loop: Header=BB39_21 Depth=1
	movq	-8(%rbp), %rdi
	callq	add_pair_to_block
.LBB39_34:                              #   in Loop: Header=BB39_21 Depth=1
	movl	-16(%rbp), %eax
	movq	-8(%rbp), %rcx
	movl	%eax, 92(%rcx)
	movq	-8(%rbp), %rax
	movl	$1, 96(%rax)
	jmp	.LBB39_36
.LBB39_35:                              #   in Loop: Header=BB39_21 Depth=1
	movq	-8(%rbp), %rax
	movl	96(%rax), %ecx
	addl	$1, %ecx
	movl	%ecx, 96(%rax)
.LBB39_36:                              #   in Loop: Header=BB39_21 Depth=1
	jmp	.LBB39_37
.LBB39_37:                              #   in Loop: Header=BB39_21 Depth=1
	movq	-8(%rbp), %rax
	movq	(%rax), %rax
	movq	(%rax), %rcx
	addq	$1, %rcx
	movq	%rcx, (%rax)
	movq	-8(%rbp), %rax
	movq	(%rax), %rax
	movl	8(%rax), %ecx
	addl	$-1, %ecx
	movl	%ecx, 8(%rax)
	movq	-8(%rbp), %rax
	movq	(%rax), %rax
	movl	12(%rax), %ecx
	addl	$1, %ecx
	movl	%ecx, 12(%rax)
	movq	-8(%rbp), %rax
	movq	(%rax), %rax
	cmpl	$0, 12(%rax)
	jne	.LBB39_39
# %bb.38:                               #   in Loop: Header=BB39_21 Depth=1
	movq	-8(%rbp), %rax
	movq	(%rax), %rax
	movl	16(%rax), %ecx
	addl	$1, %ecx
	movl	%ecx, 16(%rax)
.LBB39_39:                              #   in Loop: Header=BB39_21 Depth=1
	movq	-8(%rbp), %rax
	movl	16(%rax), %ecx
	addl	$-1, %ecx
	movl	%ecx, 16(%rax)
	jmp	.LBB39_21
.LBB39_40:
	jmp	.LBB39_41
.LBB39_41:
	movzbl	-9(%rbp), %eax
	addq	$32, %rsp
	popq	%rbp
	retq
.Lfunc_end39:
	.size	copy_input_until_stop, .Lfunc_end39-copy_input_until_stop
	.cfi_endproc
                                        # -- End function
	.p2align	4, 0x90         # -- Begin function flush_RL
	.type	flush_RL,@function
flush_RL:                               # @flush_RL
	.cfi_startproc
# %bb.0:
	pushq	%rbp
	.cfi_def_cfa_offset 16
	.cfi_offset %rbp, -16
	movq	%rsp, %rbp
	.cfi_def_cfa_register %rbp
	subq	$16, %rsp
	movq	%rdi, -8(%rbp)
	movq	-8(%rbp), %rax
	cmpl	$256, 92(%rax)          # imm = 0x100
	jae	.LBB40_2
# %bb.1:
	movq	-8(%rbp), %rdi
	callq	add_pair_to_block
.LBB40_2:
	movq	-8(%rbp), %rdi
	callq	init_RL
	addq	$16, %rsp
	popq	%rbp
	retq
.Lfunc_end40:
	.size	flush_RL, .Lfunc_end40-flush_RL
	.cfi_endproc
                                        # -- End function
	.p2align	4, 0x90         # -- Begin function add_pair_to_block
	.type	add_pair_to_block,@function
add_pair_to_block:                      # @add_pair_to_block
	.cfi_startproc
# %bb.0:
	pushq	%rbp
	.cfi_def_cfa_offset 16
	.cfi_offset %rbp, -16
	movq	%rsp, %rbp
	.cfi_def_cfa_register %rbp
	movq	%rdi, -16(%rbp)
	movq	-16(%rbp), %rax
	movl	92(%rax), %eax
	movb	%al, -1(%rbp)
	movl	$0, -20(%rbp)
.LBB41_1:                               # =>This Inner Loop Header: Depth=1
	movl	-20(%rbp), %eax
	movq	-16(%rbp), %rcx
	cmpl	96(%rcx), %eax
	jge	.LBB41_4
# %bb.2:                                #   in Loop: Header=BB41_1 Depth=1
	movq	-16(%rbp), %rax
	movl	648(%rax), %eax
	shll	$8, %eax
	movq	-16(%rbp), %rcx
	movl	648(%rcx), %ecx
	shrl	$24, %ecx
	movzbl	-1(%rbp), %edx
	xorl	%edx, %ecx
	movl	%ecx, %ecx
	xorl	BZ2_crc32Table(,%rcx,4), %eax
	movq	-16(%rbp), %rcx
	movl	%eax, 648(%rcx)
# %bb.3:                                #   in Loop: Header=BB41_1 Depth=1
	movl	-20(%rbp), %eax
	addl	$1, %eax
	movl	%eax, -20(%rbp)
	jmp	.LBB41_1
.LBB41_4:
	movq	-16(%rbp), %rax
	movl	92(%rax), %ecx
	movb	$1, 128(%rax,%rcx)
	movq	-16(%rbp), %rax
	movl	96(%rax), %eax
	movl	%eax, %ecx
	subl	$1, %ecx
	je	.LBB41_7
	jmp	.LBB41_5
.LBB41_5:
	movl	%eax, %ecx
	subl	$2, %ecx
	je	.LBB41_8
	jmp	.LBB41_6
.LBB41_6:
	subl	$3, %eax
	je	.LBB41_9
	jmp	.LBB41_10
.LBB41_7:
	movb	-1(%rbp), %al
	movq	-16(%rbp), %rcx
	movq	64(%rcx), %rcx
	movq	-16(%rbp), %rdx
	movslq	108(%rdx), %rdx
	movb	%al, (%rcx,%rdx)
	movq	-16(%rbp), %rax
	movl	108(%rax), %ecx
	addl	$1, %ecx
	movl	%ecx, 108(%rax)
	jmp	.LBB41_11
.LBB41_8:
	movb	-1(%rbp), %al
	movq	-16(%rbp), %rcx
	movq	64(%rcx), %rcx
	movq	-16(%rbp), %rdx
	movslq	108(%rdx), %rdx
	movb	%al, (%rcx,%rdx)
	movq	-16(%rbp), %rax
	movl	108(%rax), %ecx
	addl	$1, %ecx
	movl	%ecx, 108(%rax)
	movb	-1(%rbp), %al
	movq	-16(%rbp), %rcx
	movq	64(%rcx), %rcx
	movq	-16(%rbp), %rdx
	movslq	108(%rdx), %rdx
	movb	%al, (%rcx,%rdx)
	movq	-16(%rbp), %rax
	movl	108(%rax), %ecx
	addl	$1, %ecx
	movl	%ecx, 108(%rax)
	jmp	.LBB41_11
.LBB41_9:
	movb	-1(%rbp), %al
	movq	-16(%rbp), %rcx
	movq	64(%rcx), %rcx
	movq	-16(%rbp), %rdx
	movslq	108(%rdx), %rdx
	movb	%al, (%rcx,%rdx)
	movq	-16(%rbp), %rax
	movl	108(%rax), %ecx
	addl	$1, %ecx
	movl	%ecx, 108(%rax)
	movb	-1(%rbp), %al
	movq	-16(%rbp), %rcx
	movq	64(%rcx), %rcx
	movq	-16(%rbp), %rdx
	movslq	108(%rdx), %rdx
	movb	%al, (%rcx,%rdx)
	movq	-16(%rbp), %rax
	movl	108(%rax), %ecx
	addl	$1, %ecx
	movl	%ecx, 108(%rax)
	movb	-1(%rbp), %al
	movq	-16(%rbp), %rcx
	movq	64(%rcx), %rcx
	movq	-16(%rbp), %rdx
	movslq	108(%rdx), %rdx
	movb	%al, (%rcx,%rdx)
	movq	-16(%rbp), %rax
	movl	108(%rax), %ecx
	addl	$1, %ecx
	movl	%ecx, 108(%rax)
	jmp	.LBB41_11
.LBB41_10:
	movq	-16(%rbp), %rax
	movq	-16(%rbp), %rcx
	movl	96(%rcx), %ecx
	subl	$4, %ecx
	movslq	%ecx, %rcx
	movb	$1, 128(%rax,%rcx)
	movb	-1(%rbp), %al
	movq	-16(%rbp), %rcx
	movq	64(%rcx), %rcx
	movq	-16(%rbp), %rdx
	movslq	108(%rdx), %rdx
	movb	%al, (%rcx,%rdx)
	movq	-16(%rbp), %rax
	movl	108(%rax), %ecx
	addl	$1, %ecx
	movl	%ecx, 108(%rax)
	movb	-1(%rbp), %al
	movq	-16(%rbp), %rcx
	movq	64(%rcx), %rcx
	movq	-16(%rbp), %rdx
	movslq	108(%rdx), %rdx
	movb	%al, (%rcx,%rdx)
	movq	-16(%rbp), %rax
	movl	108(%rax), %ecx
	addl	$1, %ecx
	movl	%ecx, 108(%rax)
	movb	-1(%rbp), %al
	movq	-16(%rbp), %rcx
	movq	64(%rcx), %rcx
	movq	-16(%rbp), %rdx
	movslq	108(%rdx), %rdx
	movb	%al, (%rcx,%rdx)
	movq	-16(%rbp), %rax
	movl	108(%rax), %ecx
	addl	$1, %ecx
	movl	%ecx, 108(%rax)
	movb	-1(%rbp), %al
	movq	-16(%rbp), %rcx
	movq	64(%rcx), %rcx
	movq	-16(%rbp), %rdx
	movslq	108(%rdx), %rdx
	movb	%al, (%rcx,%rdx)
	movq	-16(%rbp), %rax
	movl	108(%rax), %ecx
	addl	$1, %ecx
	movl	%ecx, 108(%rax)
	movq	-16(%rbp), %rax
	movl	96(%rax), %eax
	subl	$4, %eax
	movq	-16(%rbp), %rcx
	movq	64(%rcx), %rcx
	movq	-16(%rbp), %rdx
	movslq	108(%rdx), %rdx
	movb	%al, (%rcx,%rdx)
	movq	-16(%rbp), %rax
	movl	108(%rax), %ecx
	addl	$1, %ecx
	movl	%ecx, 108(%rax)
.LBB41_11:
	popq	%rbp
	retq
.Lfunc_end41:
	.size	add_pair_to_block, .Lfunc_end41-add_pair_to_block
	.cfi_endproc
                                        # -- End function
	.globl	BZ2_bzCompressEnd       # -- Begin function BZ2_bzCompressEnd
	.p2align	4, 0x90
	.type	BZ2_bzCompressEnd,@function
BZ2_bzCompressEnd:                      # @BZ2_bzCompressEnd
	.cfi_startproc
# %bb.0:
	pushq	%rbp
	.cfi_def_cfa_offset 16
	.cfi_offset %rbp, -16
	movq	%rsp, %rbp
	.cfi_def_cfa_register %rbp
	subq	$32, %rsp
	movq	%rdi, -8(%rbp)
	cmpq	$0, -8(%rbp)
	jne	.LBB42_2
# %bb.1:
	movl	$-2, -12(%rbp)
	jmp	.LBB42_13
.LBB42_2:
	movq	-8(%rbp), %rax
	movq	48(%rax), %rax
	movq	%rax, -24(%rbp)
	cmpq	$0, -24(%rbp)
	jne	.LBB42_4
# %bb.3:
	movl	$-2, -12(%rbp)
	jmp	.LBB42_13
.LBB42_4:
	movq	-24(%rbp), %rax
	movq	(%rax), %rax
	cmpq	-8(%rbp), %rax
	je	.LBB42_6
# %bb.5:
	movl	$-2, -12(%rbp)
	jmp	.LBB42_13
.LBB42_6:
	movq	-24(%rbp), %rax
	cmpq	$0, 24(%rax)
	je	.LBB42_8
# %bb.7:
	movq	-8(%rbp), %rax
	movq	64(%rax), %rax
	movq	-8(%rbp), %rcx
	movq	72(%rcx), %rdi
	movq	-24(%rbp), %rcx
	movq	24(%rcx), %rsi
	callq	*%rax
.LBB42_8:
	movq	-24(%rbp), %rax
	cmpq	$0, 32(%rax)
	je	.LBB42_10
# %bb.9:
	movq	-8(%rbp), %rax
	movq	64(%rax), %rax
	movq	-8(%rbp), %rcx
	movq	72(%rcx), %rdi
	movq	-24(%rbp), %rcx
	movq	32(%rcx), %rsi
	callq	*%rax
.LBB42_10:
	movq	-24(%rbp), %rax
	cmpq	$0, 40(%rax)
	je	.LBB42_12
# %bb.11:
	movq	-8(%rbp), %rax
	movq	64(%rax), %rax
	movq	-8(%rbp), %rcx
	movq	72(%rcx), %rdi
	movq	-24(%rbp), %rcx
	movq	40(%rcx), %rsi
	callq	*%rax
.LBB42_12:
	movq	-8(%rbp), %rax
	movq	64(%rax), %rax
	movq	-8(%rbp), %rcx
	movq	72(%rcx), %rdi
	movq	-8(%rbp), %rcx
	movq	48(%rcx), %rsi
	callq	*%rax
	movq	-8(%rbp), %rax
	movq	$0, 48(%rax)
	movl	$0, -12(%rbp)
.LBB42_13:
	movl	-12(%rbp), %eax
	addq	$32, %rsp
	popq	%rbp
	retq
.Lfunc_end42:
	.size	BZ2_bzCompressEnd, .Lfunc_end42-BZ2_bzCompressEnd
	.cfi_endproc
                                        # -- End function
	.globl	BZ2_bzDecompressInit    # -- Begin function BZ2_bzDecompressInit
	.p2align	4, 0x90
	.type	BZ2_bzDecompressInit,@function
BZ2_bzDecompressInit:                   # @BZ2_bzDecompressInit
	.cfi_startproc
# %bb.0:
	pushq	%rbp
	.cfi_def_cfa_offset 16
	.cfi_offset %rbp, -16
	movq	%rsp, %rbp
	.cfi_def_cfa_register %rbp
	subq	$32, %rsp
	movq	%rdi, -16(%rbp)
	movl	%esi, -28(%rbp)
	movl	%edx, -24(%rbp)
	callq	bz_config_ok
	cmpl	$0, %eax
	jne	.LBB43_2
# %bb.1:
	movl	$-9, -20(%rbp)
	jmp	.LBB43_17
.LBB43_2:
	cmpq	$0, -16(%rbp)
	jne	.LBB43_4
# %bb.3:
	movl	$-2, -20(%rbp)
	jmp	.LBB43_17
.LBB43_4:
	cmpl	$0, -24(%rbp)
	je	.LBB43_7
# %bb.5:
	cmpl	$1, -24(%rbp)
	je	.LBB43_7
# %bb.6:
	movl	$-2, -20(%rbp)
	jmp	.LBB43_17
.LBB43_7:
	cmpl	$0, -28(%rbp)
	jl	.LBB43_9
# %bb.8:
	cmpl	$4, -28(%rbp)
	jle	.LBB43_10
.LBB43_9:
	movl	$-2, -20(%rbp)
	jmp	.LBB43_17
.LBB43_10:
	movq	-16(%rbp), %rax
	cmpq	$0, 56(%rax)
	jne	.LBB43_12
# %bb.11:
	movabsq	$default_bzalloc, %rax
	movq	-16(%rbp), %rcx
	movq	%rax, 56(%rcx)
.LBB43_12:
	movq	-16(%rbp), %rax
	cmpq	$0, 64(%rax)
	jne	.LBB43_14
# %bb.13:
	movabsq	$default_bzfree, %rax
	movq	-16(%rbp), %rcx
	movq	%rax, 64(%rcx)
.LBB43_14:
	movq	-16(%rbp), %rax
	movq	56(%rax), %rax
	movq	-16(%rbp), %rcx
	movq	72(%rcx), %rdi
	movl	$64144, %esi            # imm = 0xFA90
	movl	$1, %edx
	callq	*%rax
	movq	%rax, -8(%rbp)
	cmpq	$0, -8(%rbp)
	jne	.LBB43_16
# %bb.15:
	movl	$-3, -20(%rbp)
	jmp	.LBB43_17
.LBB43_16:
	movq	-16(%rbp), %rax
	movq	-8(%rbp), %rcx
	movq	%rax, (%rcx)
	movq	-8(%rbp), %rax
	movq	-16(%rbp), %rcx
	movq	%rax, 48(%rcx)
	movq	-8(%rbp), %rax
	movl	$10, 8(%rax)
	movq	-8(%rbp), %rax
	movl	$0, 36(%rax)
	movq	-8(%rbp), %rax
	movl	$0, 32(%rax)
	movq	-8(%rbp), %rax
	movl	$0, 3188(%rax)
	movq	-16(%rbp), %rax
	movl	$0, 12(%rax)
	movq	-16(%rbp), %rax
	movl	$0, 16(%rax)
	movq	-16(%rbp), %rax
	movl	$0, 36(%rax)
	movq	-16(%rbp), %rax
	movl	$0, 40(%rax)
	movl	-24(%rbp), %eax
	movq	-8(%rbp), %rcx
	movb	%al, 44(%rcx)
	movq	-8(%rbp), %rax
	movq	$0, 3168(%rax)
	movq	-8(%rbp), %rax
	movq	$0, 3160(%rax)
	movq	-8(%rbp), %rax
	movq	$0, 3152(%rax)
	movq	-8(%rbp), %rax
	movl	$0, 48(%rax)
	movl	-28(%rbp), %eax
	movq	-8(%rbp), %rcx
	movl	%eax, 52(%rcx)
	movl	$0, -20(%rbp)
.LBB43_17:
	movl	-20(%rbp), %eax
	addq	$32, %rsp
	popq	%rbp
	retq
.Lfunc_end43:
	.size	BZ2_bzDecompressInit, .Lfunc_end43-BZ2_bzDecompressInit
	.cfi_endproc
                                        # -- End function
	.globl	BZ2_indexIntoF          # -- Begin function BZ2_indexIntoF
	.p2align	4, 0x90
	.type	BZ2_indexIntoF,@function
BZ2_indexIntoF:                         # @BZ2_indexIntoF
	.cfi_startproc
# %bb.0:
	pushq	%rbp
	.cfi_def_cfa_offset 16
	.cfi_offset %rbp, -16
	movq	%rsp, %rbp
	.cfi_def_cfa_register %rbp
	movl	%edi, -16(%rbp)
	movq	%rsi, -24(%rbp)
	movl	$0, -4(%rbp)
	movl	$256, -12(%rbp)         # imm = 0x100
.LBB44_1:                               # =>This Inner Loop Header: Depth=1
	movl	-4(%rbp), %eax
	addl	-12(%rbp), %eax
	sarl	$1, %eax
	movl	%eax, -8(%rbp)
	movl	-16(%rbp), %eax
	movq	-24(%rbp), %rcx
	movslq	-8(%rbp), %rdx
	cmpl	(%rcx,%rdx,4), %eax
	jl	.LBB44_3
# %bb.2:                                #   in Loop: Header=BB44_1 Depth=1
	movl	-8(%rbp), %eax
	movl	%eax, -4(%rbp)
	jmp	.LBB44_4
.LBB44_3:                               #   in Loop: Header=BB44_1 Depth=1
	movl	-8(%rbp), %eax
	movl	%eax, -12(%rbp)
.LBB44_4:                               #   in Loop: Header=BB44_1 Depth=1
	jmp	.LBB44_5
.LBB44_5:                               #   in Loop: Header=BB44_1 Depth=1
	movl	-12(%rbp), %eax
	subl	-4(%rbp), %eax
	cmpl	$1, %eax
	jne	.LBB44_1
# %bb.6:
	movl	-4(%rbp), %eax
	popq	%rbp
	retq
.Lfunc_end44:
	.size	BZ2_indexIntoF, .Lfunc_end44-BZ2_indexIntoF
	.cfi_endproc
                                        # -- End function
	.globl	BZ2_bzDecompress        # -- Begin function BZ2_bzDecompress
	.p2align	4, 0x90
	.type	BZ2_bzDecompress,@function
BZ2_bzDecompress:                       # @BZ2_bzDecompress
	.cfi_startproc
# %bb.0:
	pushq	%rbp
	.cfi_def_cfa_offset 16
	.cfi_offset %rbp, -16
	movq	%rsp, %rbp
	.cfi_def_cfa_register %rbp
	subq	$32, %rsp
	movq	%rdi, -32(%rbp)
	cmpq	$0, -32(%rbp)
	jne	.LBB45_2
# %bb.1:
	movl	$-2, -16(%rbp)
	jmp	.LBB45_37
.LBB45_2:
	movq	-32(%rbp), %rax
	movq	48(%rax), %rax
	movq	%rax, -8(%rbp)
	cmpq	$0, -8(%rbp)
	jne	.LBB45_4
# %bb.3:
	movl	$-2, -16(%rbp)
	jmp	.LBB45_37
.LBB45_4:
	movq	-8(%rbp), %rax
	movq	(%rax), %rax
	cmpq	-32(%rbp), %rax
	je	.LBB45_6
# %bb.5:
	movl	$-2, -16(%rbp)
	jmp	.LBB45_37
.LBB45_6:
	jmp	.LBB45_7
.LBB45_7:                               # =>This Inner Loop Header: Depth=1
	movq	-8(%rbp), %rax
	cmpl	$1, 8(%rax)
	jne	.LBB45_9
# %bb.8:
	movl	$-1, -16(%rbp)
	jmp	.LBB45_37
.LBB45_9:                               #   in Loop: Header=BB45_7 Depth=1
	movq	-8(%rbp), %rax
	cmpl	$2, 8(%rax)
	jne	.LBB45_26
# %bb.10:                               #   in Loop: Header=BB45_7 Depth=1
	movq	-8(%rbp), %rax
	cmpb	$0, 44(%rax)
	je	.LBB45_12
# %bb.11:                               #   in Loop: Header=BB45_7 Depth=1
	movq	-8(%rbp), %rdi
	callq	unRLE_obuf_to_output_SMALL
	movb	%al, -9(%rbp)
	jmp	.LBB45_13
.LBB45_12:                              #   in Loop: Header=BB45_7 Depth=1
	movq	-8(%rbp), %rdi
	callq	unRLE_obuf_to_output_FAST
	movb	%al, -9(%rbp)
.LBB45_13:                              #   in Loop: Header=BB45_7 Depth=1
	cmpb	$0, -9(%rbp)
	je	.LBB45_15
# %bb.14:
	movl	$-4, -16(%rbp)
	jmp	.LBB45_37
.LBB45_15:                              #   in Loop: Header=BB45_7 Depth=1
	movq	-8(%rbp), %rax
	movl	1092(%rax), %eax
	movq	-8(%rbp), %rcx
	movl	64080(%rcx), %ecx
	addl	$1, %ecx
	cmpl	%ecx, %eax
	jne	.LBB45_24
# %bb.16:                               #   in Loop: Header=BB45_7 Depth=1
	movq	-8(%rbp), %rax
	cmpl	$0, 16(%rax)
	jne	.LBB45_24
# %bb.17:                               #   in Loop: Header=BB45_7 Depth=1
	movq	-8(%rbp), %rax
	movl	3184(%rax), %eax
	xorl	$-1, %eax
	movq	-8(%rbp), %rcx
	movl	%eax, 3184(%rcx)
	movq	-8(%rbp), %rax
	cmpl	$3, 52(%rax)
	jl	.LBB45_19
# %bb.18:                               #   in Loop: Header=BB45_7 Depth=1
	movabsq	$.L.str.2.24, %rsi
	movq	stderr, %rdi
	movq	-8(%rbp), %rax
	movl	3176(%rax), %edx
	movq	-8(%rbp), %rax
	movl	3184(%rax), %ecx
	movb	$0, %al
	callq	fprintf
.LBB45_19:                              #   in Loop: Header=BB45_7 Depth=1
	movq	-8(%rbp), %rax
	cmpl	$2, 52(%rax)
	jl	.LBB45_21
# %bb.20:                               #   in Loop: Header=BB45_7 Depth=1
	movabsq	$.L.str.3.25, %rsi
	movq	stderr, %rdi
	movb	$0, %al
	callq	fprintf
.LBB45_21:                              #   in Loop: Header=BB45_7 Depth=1
	movq	-8(%rbp), %rax
	movl	3184(%rax), %eax
	movq	-8(%rbp), %rcx
	cmpl	3176(%rcx), %eax
	je	.LBB45_23
# %bb.22:
	movl	$-4, -16(%rbp)
	jmp	.LBB45_37
.LBB45_23:                              #   in Loop: Header=BB45_7 Depth=1
	movq	-8(%rbp), %rax
	movl	3188(%rax), %eax
	shll	$1, %eax
	movq	-8(%rbp), %rcx
	movl	3188(%rcx), %ecx
	shrl	$31, %ecx
	orl	%ecx, %eax
	movq	-8(%rbp), %rcx
	movl	%eax, 3188(%rcx)
	movq	-8(%rbp), %rax
	movl	3184(%rax), %eax
	movq	-8(%rbp), %rcx
	xorl	3188(%rcx), %eax
	movl	%eax, 3188(%rcx)
	movq	-8(%rbp), %rax
	movl	$14, 8(%rax)
	jmp	.LBB45_25
.LBB45_24:
	movl	$0, -16(%rbp)
	jmp	.LBB45_37
.LBB45_25:                              #   in Loop: Header=BB45_7 Depth=1
	jmp	.LBB45_26
.LBB45_26:                              #   in Loop: Header=BB45_7 Depth=1
	movq	-8(%rbp), %rax
	cmpl	$10, 8(%rax)
	jl	.LBB45_36
# %bb.27:                               #   in Loop: Header=BB45_7 Depth=1
	movq	-8(%rbp), %rdi
	callq	BZ2_decompress
	movl	%eax, -20(%rbp)
	cmpl	$4, -20(%rbp)
	jne	.LBB45_33
# %bb.28:
	movq	-8(%rbp), %rax
	cmpl	$3, 52(%rax)
	jl	.LBB45_30
# %bb.29:
	movabsq	$.L.str.4.26, %rsi
	movq	stderr, %rdi
	movq	-8(%rbp), %rax
	movl	3180(%rax), %edx
	movq	-8(%rbp), %rax
	movl	3188(%rax), %ecx
	movb	$0, %al
	callq	fprintf
.LBB45_30:
	movq	-8(%rbp), %rax
	movl	3188(%rax), %eax
	movq	-8(%rbp), %rcx
	cmpl	3180(%rcx), %eax
	je	.LBB45_32
# %bb.31:
	movl	$-4, -16(%rbp)
	jmp	.LBB45_37
.LBB45_32:
	movl	-20(%rbp), %eax
	movl	%eax, -16(%rbp)
	jmp	.LBB45_37
.LBB45_33:                              #   in Loop: Header=BB45_7 Depth=1
	movq	-8(%rbp), %rax
	cmpl	$2, 8(%rax)
	je	.LBB45_35
# %bb.34:
	movl	-20(%rbp), %eax
	movl	%eax, -16(%rbp)
	jmp	.LBB45_37
.LBB45_35:                              #   in Loop: Header=BB45_7 Depth=1
	jmp	.LBB45_36
.LBB45_36:                              #   in Loop: Header=BB45_7 Depth=1
	jmp	.LBB45_7
.LBB45_37:
	movl	-16(%rbp), %eax
	addq	$32, %rsp
	popq	%rbp
	retq
.Lfunc_end45:
	.size	BZ2_bzDecompress, .Lfunc_end45-BZ2_bzDecompress
	.cfi_endproc
                                        # -- End function
	.p2align	4, 0x90         # -- Begin function unRLE_obuf_to_output_SMALL
	.type	unRLE_obuf_to_output_SMALL,@function
unRLE_obuf_to_output_SMALL:             # @unRLE_obuf_to_output_SMALL
	.cfi_startproc
# %bb.0:
	pushq	%rbp
	.cfi_def_cfa_offset 16
	.cfi_offset %rbp, -16
	movq	%rsp, %rbp
	.cfi_def_cfa_register %rbp
	subq	$32, %rsp
	movq	%rdi, -16(%rbp)
	movq	-16(%rbp), %rax
	cmpb	$0, 20(%rax)
	je	.LBB46_48
# %bb.1:
	jmp	.LBB46_2
.LBB46_2:                               # =>This Loop Header: Depth=1
                                        #     Child Loop BB46_3 Depth 2
	jmp	.LBB46_3
.LBB46_3:                               #   Parent Loop BB46_2 Depth=1
                                        # =>  This Inner Loop Header: Depth=2
	movq	-16(%rbp), %rax
	movq	(%rax), %rax
	cmpl	$0, 32(%rax)
	jne	.LBB46_5
# %bb.4:
	movb	$0, -17(%rbp)
	jmp	.LBB46_75
.LBB46_5:                               #   in Loop: Header=BB46_3 Depth=2
	movq	-16(%rbp), %rax
	cmpl	$0, 16(%rax)
	jne	.LBB46_7
# %bb.6:                                #   in Loop: Header=BB46_2 Depth=1
	jmp	.LBB46_10
.LBB46_7:                               #   in Loop: Header=BB46_3 Depth=2
	movq	-16(%rbp), %rax
	movb	12(%rax), %al
	movq	-16(%rbp), %rcx
	movq	(%rcx), %rcx
	movq	24(%rcx), %rcx
	movb	%al, (%rcx)
	movq	-16(%rbp), %rax
	movl	3184(%rax), %eax
	shll	$8, %eax
	movq	-16(%rbp), %rcx
	movl	3184(%rcx), %ecx
	shrl	$24, %ecx
	movq	-16(%rbp), %rdx
	movzbl	12(%rdx), %edx
	xorl	%edx, %ecx
	movl	%ecx, %ecx
	xorl	BZ2_crc32Table(,%rcx,4), %eax
	movq	-16(%rbp), %rcx
	movl	%eax, 3184(%rcx)
	movq	-16(%rbp), %rax
	movl	16(%rax), %ecx
	addl	$-1, %ecx
	movl	%ecx, 16(%rax)
	movq	-16(%rbp), %rax
	movq	(%rax), %rax
	movq	24(%rax), %rcx
	addq	$1, %rcx
	movq	%rcx, 24(%rax)
	movq	-16(%rbp), %rax
	movq	(%rax), %rax
	movl	32(%rax), %ecx
	addl	$-1, %ecx
	movl	%ecx, 32(%rax)
	movq	-16(%rbp), %rax
	movq	(%rax), %rax
	movl	36(%rax), %ecx
	addl	$1, %ecx
	movl	%ecx, 36(%rax)
	movq	-16(%rbp), %rax
	movq	(%rax), %rax
	cmpl	$0, 36(%rax)
	jne	.LBB46_9
# %bb.8:                                #   in Loop: Header=BB46_3 Depth=2
	movq	-16(%rbp), %rax
	movq	(%rax), %rax
	movl	40(%rax), %ecx
	addl	$1, %ecx
	movl	%ecx, 40(%rax)
.LBB46_9:                               #   in Loop: Header=BB46_3 Depth=2
	jmp	.LBB46_3
.LBB46_10:                              #   in Loop: Header=BB46_2 Depth=1
	movq	-16(%rbp), %rax
	movl	1092(%rax), %eax
	movq	-16(%rbp), %rcx
	movl	64080(%rcx), %ecx
	addl	$1, %ecx
	cmpl	%ecx, %eax
	jne	.LBB46_12
# %bb.11:
	movb	$0, -17(%rbp)
	jmp	.LBB46_75
.LBB46_12:                              #   in Loop: Header=BB46_2 Depth=1
	movq	-16(%rbp), %rax
	movl	1092(%rax), %eax
	movq	-16(%rbp), %rcx
	movl	64080(%rcx), %ecx
	addl	$1, %ecx
	cmpl	%ecx, %eax
	jle	.LBB46_14
# %bb.13:
	movb	$1, -17(%rbp)
	jmp	.LBB46_75
.LBB46_14:                              #   in Loop: Header=BB46_2 Depth=1
	movq	-16(%rbp), %rax
	movl	$1, 16(%rax)
	movq	-16(%rbp), %rax
	movl	64(%rax), %eax
	movq	-16(%rbp), %rcx
	movb	%al, 12(%rcx)
	movq	-16(%rbp), %rax
	movl	60(%rax), %edi
	movq	-16(%rbp), %rsi
	addq	$1096, %rsi             # imm = 0x448
	callq	BZ2_indexIntoF
	movb	%al, -1(%rbp)
	movq	-16(%rbp), %rax
	movq	3160(%rax), %rax
	movq	-16(%rbp), %rcx
	movl	60(%rcx), %ecx
	movzwl	(%rax,%rcx,2), %eax
	movq	-16(%rbp), %rcx
	movq	3168(%rcx), %rcx
	movq	-16(%rbp), %rdx
	movl	60(%rdx), %edx
	shrl	$1, %edx
	movl	%edx, %edx
	movzbl	(%rcx,%rdx), %edx
	movq	-16(%rbp), %rcx
	movl	60(%rcx), %ecx
	shll	$2, %ecx
	andl	$4, %ecx
                                        # kill: def %cl killed %ecx
	shrl	%cl, %edx
	andl	$15, %edx
	shll	$16, %edx
	orl	%edx, %eax
	movq	-16(%rbp), %rcx
	movl	%eax, 60(%rcx)
	movq	-16(%rbp), %rax
	cmpl	$0, 24(%rax)
	jne	.LBB46_18
# %bb.15:                               #   in Loop: Header=BB46_2 Depth=1
	movq	-16(%rbp), %rax
	movslq	28(%rax), %rax
	movl	BZ2_rNums(,%rax,4), %eax
	movq	-16(%rbp), %rcx
	movl	%eax, 24(%rcx)
	movq	-16(%rbp), %rax
	movl	28(%rax), %ecx
	addl	$1, %ecx
	movl	%ecx, 28(%rax)
	movq	-16(%rbp), %rax
	cmpl	$512, 28(%rax)          # imm = 0x200
	jne	.LBB46_17
# %bb.16:                               #   in Loop: Header=BB46_2 Depth=1
	movq	-16(%rbp), %rax
	movl	$0, 28(%rax)
.LBB46_17:                              #   in Loop: Header=BB46_2 Depth=1
	jmp	.LBB46_18
.LBB46_18:                              #   in Loop: Header=BB46_2 Depth=1
	xorl	%eax, %eax
	movl	$1, %ecx
	movq	-16(%rbp), %rdx
	movl	24(%rdx), %esi
	addl	$-1, %esi
	movl	%esi, 24(%rdx)
	movq	-16(%rbp), %rdx
	movl	24(%rdx), %edx
	cmpl	$1, %edx
	cmovel	%ecx, %eax
	movzbl	-1(%rbp), %ecx
	xorl	%eax, %ecx
	movb	%cl, -1(%rbp)
	movq	-16(%rbp), %rax
	movl	1092(%rax), %ecx
	addl	$1, %ecx
	movl	%ecx, 1092(%rax)
	movq	-16(%rbp), %rax
	movl	1092(%rax), %eax
	movq	-16(%rbp), %rcx
	movl	64080(%rcx), %ecx
	addl	$1, %ecx
	cmpl	%ecx, %eax
	jne	.LBB46_21
# %bb.19:                               #   in Loop: Header=BB46_2 Depth=1
	jmp	.LBB46_20
.LBB46_20:                              # %.backedge
                                        #   in Loop: Header=BB46_2 Depth=1
	jmp	.LBB46_2
.LBB46_21:                              #   in Loop: Header=BB46_2 Depth=1
	movzbl	-1(%rbp), %eax
	movq	-16(%rbp), %rcx
	cmpl	64(%rcx), %eax
	je	.LBB46_23
# %bb.22:                               #   in Loop: Header=BB46_2 Depth=1
	movzbl	-1(%rbp), %eax
	movq	-16(%rbp), %rcx
	movl	%eax, 64(%rcx)
	jmp	.LBB46_20
.LBB46_23:                              #   in Loop: Header=BB46_2 Depth=1
	movq	-16(%rbp), %rax
	movl	$2, 16(%rax)
	movq	-16(%rbp), %rax
	movl	60(%rax), %edi
	movq	-16(%rbp), %rsi
	addq	$1096, %rsi             # imm = 0x448
	callq	BZ2_indexIntoF
	movb	%al, -1(%rbp)
	movq	-16(%rbp), %rax
	movq	3160(%rax), %rax
	movq	-16(%rbp), %rcx
	movl	60(%rcx), %ecx
	movzwl	(%rax,%rcx,2), %eax
	movq	-16(%rbp), %rcx
	movq	3168(%rcx), %rcx
	movq	-16(%rbp), %rdx
	movl	60(%rdx), %edx
	shrl	$1, %edx
	movl	%edx, %edx
	movzbl	(%rcx,%rdx), %edx
	movq	-16(%rbp), %rcx
	movl	60(%rcx), %ecx
	shll	$2, %ecx
	andl	$4, %ecx
                                        # kill: def %cl killed %ecx
	shrl	%cl, %edx
	andl	$15, %edx
	shll	$16, %edx
	orl	%edx, %eax
	movq	-16(%rbp), %rcx
	movl	%eax, 60(%rcx)
	movq	-16(%rbp), %rax
	cmpl	$0, 24(%rax)
	jne	.LBB46_27
# %bb.24:                               #   in Loop: Header=BB46_2 Depth=1
	movq	-16(%rbp), %rax
	movslq	28(%rax), %rax
	movl	BZ2_rNums(,%rax,4), %eax
	movq	-16(%rbp), %rcx
	movl	%eax, 24(%rcx)
	movq	-16(%rbp), %rax
	movl	28(%rax), %ecx
	addl	$1, %ecx
	movl	%ecx, 28(%rax)
	movq	-16(%rbp), %rax
	cmpl	$512, 28(%rax)          # imm = 0x200
	jne	.LBB46_26
# %bb.25:                               #   in Loop: Header=BB46_2 Depth=1
	movq	-16(%rbp), %rax
	movl	$0, 28(%rax)
.LBB46_26:                              #   in Loop: Header=BB46_2 Depth=1
	jmp	.LBB46_27
.LBB46_27:                              #   in Loop: Header=BB46_2 Depth=1
	xorl	%eax, %eax
	movl	$1, %ecx
	movq	-16(%rbp), %rdx
	movl	24(%rdx), %esi
	addl	$-1, %esi
	movl	%esi, 24(%rdx)
	movq	-16(%rbp), %rdx
	movl	24(%rdx), %edx
	cmpl	$1, %edx
	cmovel	%ecx, %eax
	movzbl	-1(%rbp), %ecx
	xorl	%eax, %ecx
	movb	%cl, -1(%rbp)
	movq	-16(%rbp), %rax
	movl	1092(%rax), %ecx
	addl	$1, %ecx
	movl	%ecx, 1092(%rax)
	movq	-16(%rbp), %rax
	movl	1092(%rax), %eax
	movq	-16(%rbp), %rcx
	movl	64080(%rcx), %ecx
	addl	$1, %ecx
	cmpl	%ecx, %eax
	jne	.LBB46_29
# %bb.28:                               #   in Loop: Header=BB46_2 Depth=1
	jmp	.LBB46_20
.LBB46_29:                              #   in Loop: Header=BB46_2 Depth=1
	movzbl	-1(%rbp), %eax
	movq	-16(%rbp), %rcx
	cmpl	64(%rcx), %eax
	je	.LBB46_31
# %bb.30:                               #   in Loop: Header=BB46_2 Depth=1
	movzbl	-1(%rbp), %eax
	movq	-16(%rbp), %rcx
	movl	%eax, 64(%rcx)
	jmp	.LBB46_20
.LBB46_31:                              #   in Loop: Header=BB46_2 Depth=1
	movq	-16(%rbp), %rax
	movl	$3, 16(%rax)
	movq	-16(%rbp), %rax
	movl	60(%rax), %edi
	movq	-16(%rbp), %rsi
	addq	$1096, %rsi             # imm = 0x448
	callq	BZ2_indexIntoF
	movb	%al, -1(%rbp)
	movq	-16(%rbp), %rax
	movq	3160(%rax), %rax
	movq	-16(%rbp), %rcx
	movl	60(%rcx), %ecx
	movzwl	(%rax,%rcx,2), %eax
	movq	-16(%rbp), %rcx
	movq	3168(%rcx), %rcx
	movq	-16(%rbp), %rdx
	movl	60(%rdx), %edx
	shrl	$1, %edx
	movl	%edx, %edx
	movzbl	(%rcx,%rdx), %edx
	movq	-16(%rbp), %rcx
	movl	60(%rcx), %ecx
	shll	$2, %ecx
	andl	$4, %ecx
                                        # kill: def %cl killed %ecx
	shrl	%cl, %edx
	andl	$15, %edx
	shll	$16, %edx
	orl	%edx, %eax
	movq	-16(%rbp), %rcx
	movl	%eax, 60(%rcx)
	movq	-16(%rbp), %rax
	cmpl	$0, 24(%rax)
	jne	.LBB46_35
# %bb.32:                               #   in Loop: Header=BB46_2 Depth=1
	movq	-16(%rbp), %rax
	movslq	28(%rax), %rax
	movl	BZ2_rNums(,%rax,4), %eax
	movq	-16(%rbp), %rcx
	movl	%eax, 24(%rcx)
	movq	-16(%rbp), %rax
	movl	28(%rax), %ecx
	addl	$1, %ecx
	movl	%ecx, 28(%rax)
	movq	-16(%rbp), %rax
	cmpl	$512, 28(%rax)          # imm = 0x200
	jne	.LBB46_34
# %bb.33:                               #   in Loop: Header=BB46_2 Depth=1
	movq	-16(%rbp), %rax
	movl	$0, 28(%rax)
.LBB46_34:                              #   in Loop: Header=BB46_2 Depth=1
	jmp	.LBB46_35
.LBB46_35:                              #   in Loop: Header=BB46_2 Depth=1
	xorl	%eax, %eax
	movl	$1, %ecx
	movq	-16(%rbp), %rdx
	movl	24(%rdx), %esi
	addl	$-1, %esi
	movl	%esi, 24(%rdx)
	movq	-16(%rbp), %rdx
	movl	24(%rdx), %edx
	cmpl	$1, %edx
	cmovel	%ecx, %eax
	movzbl	-1(%rbp), %ecx
	xorl	%eax, %ecx
	movb	%cl, -1(%rbp)
	movq	-16(%rbp), %rax
	movl	1092(%rax), %ecx
	addl	$1, %ecx
	movl	%ecx, 1092(%rax)
	movq	-16(%rbp), %rax
	movl	1092(%rax), %eax
	movq	-16(%rbp), %rcx
	movl	64080(%rcx), %ecx
	addl	$1, %ecx
	cmpl	%ecx, %eax
	jne	.LBB46_37
# %bb.36:                               #   in Loop: Header=BB46_2 Depth=1
	jmp	.LBB46_20
.LBB46_37:                              #   in Loop: Header=BB46_2 Depth=1
	movzbl	-1(%rbp), %eax
	movq	-16(%rbp), %rcx
	cmpl	64(%rcx), %eax
	je	.LBB46_39
# %bb.38:                               #   in Loop: Header=BB46_2 Depth=1
	movzbl	-1(%rbp), %eax
	movq	-16(%rbp), %rcx
	movl	%eax, 64(%rcx)
	jmp	.LBB46_20
.LBB46_39:                              #   in Loop: Header=BB46_2 Depth=1
	movq	-16(%rbp), %rax
	movl	60(%rax), %edi
	movq	-16(%rbp), %rsi
	addq	$1096, %rsi             # imm = 0x448
	callq	BZ2_indexIntoF
	movb	%al, -1(%rbp)
	movq	-16(%rbp), %rax
	movq	3160(%rax), %rax
	movq	-16(%rbp), %rcx
	movl	60(%rcx), %ecx
	movzwl	(%rax,%rcx,2), %eax
	movq	-16(%rbp), %rcx
	movq	3168(%rcx), %rcx
	movq	-16(%rbp), %rdx
	movl	60(%rdx), %edx
	shrl	$1, %edx
	movl	%edx, %edx
	movzbl	(%rcx,%rdx), %edx
	movq	-16(%rbp), %rcx
	movl	60(%rcx), %ecx
	shll	$2, %ecx
	andl	$4, %ecx
                                        # kill: def %cl killed %ecx
	shrl	%cl, %edx
	andl	$15, %edx
	shll	$16, %edx
	orl	%edx, %eax
	movq	-16(%rbp), %rcx
	movl	%eax, 60(%rcx)
	movq	-16(%rbp), %rax
	cmpl	$0, 24(%rax)
	jne	.LBB46_43
# %bb.40:                               #   in Loop: Header=BB46_2 Depth=1
	movq	-16(%rbp), %rax
	movslq	28(%rax), %rax
	movl	BZ2_rNums(,%rax,4), %eax
	movq	-16(%rbp), %rcx
	movl	%eax, 24(%rcx)
	movq	-16(%rbp), %rax
	movl	28(%rax), %ecx
	addl	$1, %ecx
	movl	%ecx, 28(%rax)
	movq	-16(%rbp), %rax
	cmpl	$512, 28(%rax)          # imm = 0x200
	jne	.LBB46_42
# %bb.41:                               #   in Loop: Header=BB46_2 Depth=1
	movq	-16(%rbp), %rax
	movl	$0, 28(%rax)
.LBB46_42:                              #   in Loop: Header=BB46_2 Depth=1
	jmp	.LBB46_43
.LBB46_43:                              #   in Loop: Header=BB46_2 Depth=1
	xorl	%eax, %eax
	movl	$1, %ecx
	movq	-16(%rbp), %rdx
	movl	24(%rdx), %esi
	addl	$-1, %esi
	movl	%esi, 24(%rdx)
	movq	-16(%rbp), %rdx
	movl	24(%rdx), %edx
	cmpl	$1, %edx
	cmovel	%ecx, %eax
	movzbl	-1(%rbp), %ecx
	xorl	%eax, %ecx
	movb	%cl, -1(%rbp)
	movq	-16(%rbp), %rax
	movl	1092(%rax), %ecx
	addl	$1, %ecx
	movl	%ecx, 1092(%rax)
	movzbl	-1(%rbp), %eax
	addl	$4, %eax
	movq	-16(%rbp), %rcx
	movl	%eax, 16(%rcx)
	movq	-16(%rbp), %rax
	movl	60(%rax), %edi
	movq	-16(%rbp), %rsi
	addq	$1096, %rsi             # imm = 0x448
	callq	BZ2_indexIntoF
	movq	-16(%rbp), %rcx
	movl	%eax, 64(%rcx)
	movq	-16(%rbp), %rax
	movq	3160(%rax), %rax
	movq	-16(%rbp), %rcx
	movl	60(%rcx), %ecx
	movzwl	(%rax,%rcx,2), %eax
	movq	-16(%rbp), %rcx
	movq	3168(%rcx), %rcx
	movq	-16(%rbp), %rdx
	movl	60(%rdx), %edx
	shrl	$1, %edx
	movl	%edx, %edx
	movzbl	(%rcx,%rdx), %edx
	movq	-16(%rbp), %rcx
	movl	60(%rcx), %ecx
	shll	$2, %ecx
	andl	$4, %ecx
                                        # kill: def %cl killed %ecx
	shrl	%cl, %edx
	andl	$15, %edx
	shll	$16, %edx
	orl	%edx, %eax
	movq	-16(%rbp), %rcx
	movl	%eax, 60(%rcx)
	movq	-16(%rbp), %rax
	cmpl	$0, 24(%rax)
	jne	.LBB46_47
# %bb.44:                               #   in Loop: Header=BB46_2 Depth=1
	movq	-16(%rbp), %rax
	movslq	28(%rax), %rax
	movl	BZ2_rNums(,%rax,4), %eax
	movq	-16(%rbp), %rcx
	movl	%eax, 24(%rcx)
	movq	-16(%rbp), %rax
	movl	28(%rax), %ecx
	addl	$1, %ecx
	movl	%ecx, 28(%rax)
	movq	-16(%rbp), %rax
	cmpl	$512, 28(%rax)          # imm = 0x200
	jne	.LBB46_46
# %bb.45:                               #   in Loop: Header=BB46_2 Depth=1
	movq	-16(%rbp), %rax
	movl	$0, 28(%rax)
.LBB46_46:                              #   in Loop: Header=BB46_2 Depth=1
	jmp	.LBB46_47
.LBB46_47:                              #   in Loop: Header=BB46_2 Depth=1
	xorl	%eax, %eax
	movl	$1, %ecx
	movq	-16(%rbp), %rdx
	movl	24(%rdx), %esi
	addl	$-1, %esi
	movl	%esi, 24(%rdx)
	movq	-16(%rbp), %rdx
	movl	24(%rdx), %edx
	cmpl	$1, %edx
	cmovel	%ecx, %eax
	movq	-16(%rbp), %rcx
	xorl	64(%rcx), %eax
	movl	%eax, 64(%rcx)
	movq	-16(%rbp), %rax
	movl	1092(%rax), %ecx
	addl	$1, %ecx
	movl	%ecx, 1092(%rax)
	jmp	.LBB46_20
.LBB46_48:
	jmp	.LBB46_49
.LBB46_49:                              # =>This Loop Header: Depth=1
                                        #     Child Loop BB46_50 Depth 2
	jmp	.LBB46_50
.LBB46_50:                              #   Parent Loop BB46_49 Depth=1
                                        # =>  This Inner Loop Header: Depth=2
	movq	-16(%rbp), %rax
	movq	(%rax), %rax
	cmpl	$0, 32(%rax)
	jne	.LBB46_52
# %bb.51:
	movb	$0, -17(%rbp)
	jmp	.LBB46_75
.LBB46_52:                              #   in Loop: Header=BB46_50 Depth=2
	movq	-16(%rbp), %rax
	cmpl	$0, 16(%rax)
	jne	.LBB46_54
# %bb.53:                               #   in Loop: Header=BB46_49 Depth=1
	jmp	.LBB46_57
.LBB46_54:                              #   in Loop: Header=BB46_50 Depth=2
	movq	-16(%rbp), %rax
	movb	12(%rax), %al
	movq	-16(%rbp), %rcx
	movq	(%rcx), %rcx
	movq	24(%rcx), %rcx
	movb	%al, (%rcx)
	movq	-16(%rbp), %rax
	movl	3184(%rax), %eax
	shll	$8, %eax
	movq	-16(%rbp), %rcx
	movl	3184(%rcx), %ecx
	shrl	$24, %ecx
	movq	-16(%rbp), %rdx
	movzbl	12(%rdx), %edx
	xorl	%edx, %ecx
	movl	%ecx, %ecx
	xorl	BZ2_crc32Table(,%rcx,4), %eax
	movq	-16(%rbp), %rcx
	movl	%eax, 3184(%rcx)
	movq	-16(%rbp), %rax
	movl	16(%rax), %ecx
	addl	$-1, %ecx
	movl	%ecx, 16(%rax)
	movq	-16(%rbp), %rax
	movq	(%rax), %rax
	movq	24(%rax), %rcx
	addq	$1, %rcx
	movq	%rcx, 24(%rax)
	movq	-16(%rbp), %rax
	movq	(%rax), %rax
	movl	32(%rax), %ecx
	addl	$-1, %ecx
	movl	%ecx, 32(%rax)
	movq	-16(%rbp), %rax
	movq	(%rax), %rax
	movl	36(%rax), %ecx
	addl	$1, %ecx
	movl	%ecx, 36(%rax)
	movq	-16(%rbp), %rax
	movq	(%rax), %rax
	cmpl	$0, 36(%rax)
	jne	.LBB46_56
# %bb.55:                               #   in Loop: Header=BB46_50 Depth=2
	movq	-16(%rbp), %rax
	movq	(%rax), %rax
	movl	40(%rax), %ecx
	addl	$1, %ecx
	movl	%ecx, 40(%rax)
.LBB46_56:                              #   in Loop: Header=BB46_50 Depth=2
	jmp	.LBB46_50
.LBB46_57:                              #   in Loop: Header=BB46_49 Depth=1
	movq	-16(%rbp), %rax
	movl	1092(%rax), %eax
	movq	-16(%rbp), %rcx
	movl	64080(%rcx), %ecx
	addl	$1, %ecx
	cmpl	%ecx, %eax
	jne	.LBB46_59
# %bb.58:
	movb	$0, -17(%rbp)
	jmp	.LBB46_75
.LBB46_59:                              #   in Loop: Header=BB46_49 Depth=1
	movq	-16(%rbp), %rax
	movl	1092(%rax), %eax
	movq	-16(%rbp), %rcx
	movl	64080(%rcx), %ecx
	addl	$1, %ecx
	cmpl	%ecx, %eax
	jle	.LBB46_61
# %bb.60:
	movb	$1, -17(%rbp)
	jmp	.LBB46_75
.LBB46_61:                              #   in Loop: Header=BB46_49 Depth=1
	movq	-16(%rbp), %rax
	movl	$1, 16(%rax)
	movq	-16(%rbp), %rax
	movl	64(%rax), %eax
	movq	-16(%rbp), %rcx
	movb	%al, 12(%rcx)
	movq	-16(%rbp), %rax
	movl	60(%rax), %edi
	movq	-16(%rbp), %rsi
	addq	$1096, %rsi             # imm = 0x448
	callq	BZ2_indexIntoF
	movb	%al, -1(%rbp)
	movq	-16(%rbp), %rax
	movq	3160(%rax), %rax
	movq	-16(%rbp), %rcx
	movl	60(%rcx), %ecx
	movzwl	(%rax,%rcx,2), %eax
	movq	-16(%rbp), %rcx
	movq	3168(%rcx), %rcx
	movq	-16(%rbp), %rdx
	movl	60(%rdx), %edx
	shrl	$1, %edx
	movl	%edx, %edx
	movzbl	(%rcx,%rdx), %edx
	movq	-16(%rbp), %rcx
	movl	60(%rcx), %ecx
	shll	$2, %ecx
	andl	$4, %ecx
                                        # kill: def %cl killed %ecx
	shrl	%cl, %edx
	andl	$15, %edx
	shll	$16, %edx
	orl	%edx, %eax
	movq	-16(%rbp), %rcx
	movl	%eax, 60(%rcx)
	movq	-16(%rbp), %rax
	movl	1092(%rax), %ecx
	addl	$1, %ecx
	movl	%ecx, 1092(%rax)
	movq	-16(%rbp), %rax
	movl	1092(%rax), %eax
	movq	-16(%rbp), %rcx
	movl	64080(%rcx), %ecx
	addl	$1, %ecx
	cmpl	%ecx, %eax
	jne	.LBB46_64
# %bb.62:                               #   in Loop: Header=BB46_49 Depth=1
	jmp	.LBB46_63
.LBB46_63:                              # %.backedge1
                                        #   in Loop: Header=BB46_49 Depth=1
	jmp	.LBB46_49
.LBB46_64:                              #   in Loop: Header=BB46_49 Depth=1
	movzbl	-1(%rbp), %eax
	movq	-16(%rbp), %rcx
	cmpl	64(%rcx), %eax
	je	.LBB46_66
# %bb.65:                               #   in Loop: Header=BB46_49 Depth=1
	movzbl	-1(%rbp), %eax
	movq	-16(%rbp), %rcx
	movl	%eax, 64(%rcx)
	jmp	.LBB46_63
.LBB46_66:                              #   in Loop: Header=BB46_49 Depth=1
	movq	-16(%rbp), %rax
	movl	$2, 16(%rax)
	movq	-16(%rbp), %rax
	movl	60(%rax), %edi
	movq	-16(%rbp), %rsi
	addq	$1096, %rsi             # imm = 0x448
	callq	BZ2_indexIntoF
	movb	%al, -1(%rbp)
	movq	-16(%rbp), %rax
	movq	3160(%rax), %rax
	movq	-16(%rbp), %rcx
	movl	60(%rcx), %ecx
	movzwl	(%rax,%rcx,2), %eax
	movq	-16(%rbp), %rcx
	movq	3168(%rcx), %rcx
	movq	-16(%rbp), %rdx
	movl	60(%rdx), %edx
	shrl	$1, %edx
	movl	%edx, %edx
	movzbl	(%rcx,%rdx), %edx
	movq	-16(%rbp), %rcx
	movl	60(%rcx), %ecx
	shll	$2, %ecx
	andl	$4, %ecx
                                        # kill: def %cl killed %ecx
	shrl	%cl, %edx
	andl	$15, %edx
	shll	$16, %edx
	orl	%edx, %eax
	movq	-16(%rbp), %rcx
	movl	%eax, 60(%rcx)
	movq	-16(%rbp), %rax
	movl	1092(%rax), %ecx
	addl	$1, %ecx
	movl	%ecx, 1092(%rax)
	movq	-16(%rbp), %rax
	movl	1092(%rax), %eax
	movq	-16(%rbp), %rcx
	movl	64080(%rcx), %ecx
	addl	$1, %ecx
	cmpl	%ecx, %eax
	jne	.LBB46_68
# %bb.67:                               #   in Loop: Header=BB46_49 Depth=1
	jmp	.LBB46_63
.LBB46_68:                              #   in Loop: Header=BB46_49 Depth=1
	movzbl	-1(%rbp), %eax
	movq	-16(%rbp), %rcx
	cmpl	64(%rcx), %eax
	je	.LBB46_70
# %bb.69:                               #   in Loop: Header=BB46_49 Depth=1
	movzbl	-1(%rbp), %eax
	movq	-16(%rbp), %rcx
	movl	%eax, 64(%rcx)
	jmp	.LBB46_63
.LBB46_70:                              #   in Loop: Header=BB46_49 Depth=1
	movq	-16(%rbp), %rax
	movl	$3, 16(%rax)
	movq	-16(%rbp), %rax
	movl	60(%rax), %edi
	movq	-16(%rbp), %rsi
	addq	$1096, %rsi             # imm = 0x448
	callq	BZ2_indexIntoF
	movb	%al, -1(%rbp)
	movq	-16(%rbp), %rax
	movq	3160(%rax), %rax
	movq	-16(%rbp), %rcx
	movl	60(%rcx), %ecx
	movzwl	(%rax,%rcx,2), %eax
	movq	-16(%rbp), %rcx
	movq	3168(%rcx), %rcx
	movq	-16(%rbp), %rdx
	movl	60(%rdx), %edx
	shrl	$1, %edx
	movl	%edx, %edx
	movzbl	(%rcx,%rdx), %edx
	movq	-16(%rbp), %rcx
	movl	60(%rcx), %ecx
	shll	$2, %ecx
	andl	$4, %ecx
                                        # kill: def %cl killed %ecx
	shrl	%cl, %edx
	andl	$15, %edx
	shll	$16, %edx
	orl	%edx, %eax
	movq	-16(%rbp), %rcx
	movl	%eax, 60(%rcx)
	movq	-16(%rbp), %rax
	movl	1092(%rax), %ecx
	addl	$1, %ecx
	movl	%ecx, 1092(%rax)
	movq	-16(%rbp), %rax
	movl	1092(%rax), %eax
	movq	-16(%rbp), %rcx
	movl	64080(%rcx), %ecx
	addl	$1, %ecx
	cmpl	%ecx, %eax
	jne	.LBB46_72
# %bb.71:                               #   in Loop: Header=BB46_49 Depth=1
	jmp	.LBB46_63
.LBB46_72:                              #   in Loop: Header=BB46_49 Depth=1
	movzbl	-1(%rbp), %eax
	movq	-16(%rbp), %rcx
	cmpl	64(%rcx), %eax
	je	.LBB46_74
# %bb.73:                               #   in Loop: Header=BB46_49 Depth=1
	movzbl	-1(%rbp), %eax
	movq	-16(%rbp), %rcx
	movl	%eax, 64(%rcx)
	jmp	.LBB46_63
.LBB46_74:                              #   in Loop: Header=BB46_49 Depth=1
	movq	-16(%rbp), %rax
	movl	60(%rax), %edi
	movq	-16(%rbp), %rsi
	addq	$1096, %rsi             # imm = 0x448
	callq	BZ2_indexIntoF
	movb	%al, -1(%rbp)
	movq	-16(%rbp), %rax
	movq	3160(%rax), %rax
	movq	-16(%rbp), %rcx
	movl	60(%rcx), %ecx
	movzwl	(%rax,%rcx,2), %eax
	movq	-16(%rbp), %rcx
	movq	3168(%rcx), %rcx
	movq	-16(%rbp), %rdx
	movl	60(%rdx), %edx
	shrl	$1, %edx
	movl	%edx, %edx
	movzbl	(%rcx,%rdx), %edx
	movq	-16(%rbp), %rcx
	movl	60(%rcx), %ecx
	shll	$2, %ecx
	andl	$4, %ecx
                                        # kill: def %cl killed %ecx
	shrl	%cl, %edx
	andl	$15, %edx
	shll	$16, %edx
	orl	%edx, %eax
	movq	-16(%rbp), %rcx
	movl	%eax, 60(%rcx)
	movq	-16(%rbp), %rax
	movl	1092(%rax), %ecx
	addl	$1, %ecx
	movl	%ecx, 1092(%rax)
	movzbl	-1(%rbp), %eax
	addl	$4, %eax
	movq	-16(%rbp), %rcx
	movl	%eax, 16(%rcx)
	movq	-16(%rbp), %rax
	movl	60(%rax), %edi
	movq	-16(%rbp), %rsi
	addq	$1096, %rsi             # imm = 0x448
	callq	BZ2_indexIntoF
	movq	-16(%rbp), %rcx
	movl	%eax, 64(%rcx)
	movq	-16(%rbp), %rax
	movq	3160(%rax), %rax
	movq	-16(%rbp), %rcx
	movl	60(%rcx), %ecx
	movzwl	(%rax,%rcx,2), %eax
	movq	-16(%rbp), %rcx
	movq	3168(%rcx), %rcx
	movq	-16(%rbp), %rdx
	movl	60(%rdx), %edx
	shrl	$1, %edx
	movl	%edx, %edx
	movzbl	(%rcx,%rdx), %edx
	movq	-16(%rbp), %rcx
	movl	60(%rcx), %ecx
	shll	$2, %ecx
	andl	$4, %ecx
                                        # kill: def %cl killed %ecx
	shrl	%cl, %edx
	andl	$15, %edx
	shll	$16, %edx
	orl	%edx, %eax
	movq	-16(%rbp), %rcx
	movl	%eax, 60(%rcx)
	movq	-16(%rbp), %rax
	movl	1092(%rax), %ecx
	addl	$1, %ecx
	movl	%ecx, 1092(%rax)
	jmp	.LBB46_63
.LBB46_75:
	movzbl	-17(%rbp), %eax
	addq	$32, %rsp
	popq	%rbp
	retq
.Lfunc_end46:
	.size	unRLE_obuf_to_output_SMALL, .Lfunc_end46-unRLE_obuf_to_output_SMALL
	.cfi_endproc
                                        # -- End function
	.p2align	4, 0x90         # -- Begin function unRLE_obuf_to_output_FAST
	.type	unRLE_obuf_to_output_FAST,@function
unRLE_obuf_to_output_FAST:              # @unRLE_obuf_to_output_FAST
	.cfi_startproc
# %bb.0:
	pushq	%rbp
	.cfi_def_cfa_offset 16
	.cfi_offset %rbp, -16
	movq	%rsp, %rbp
	.cfi_def_cfa_register %rbp
	movq	%rdi, -16(%rbp)
	movq	-16(%rbp), %rax
	cmpb	$0, 20(%rax)
	je	.LBB47_48
# %bb.1:
	jmp	.LBB47_2
.LBB47_2:                               # =>This Loop Header: Depth=1
                                        #     Child Loop BB47_3 Depth 2
	jmp	.LBB47_3
.LBB47_3:                               #   Parent Loop BB47_2 Depth=1
                                        # =>  This Inner Loop Header: Depth=2
	movq	-16(%rbp), %rax
	movq	(%rax), %rax
	cmpl	$0, 32(%rax)
	jne	.LBB47_5
# %bb.4:
	movb	$0, -25(%rbp)
	jmp	.LBB47_82
.LBB47_5:                               #   in Loop: Header=BB47_3 Depth=2
	movq	-16(%rbp), %rax
	cmpl	$0, 16(%rax)
	jne	.LBB47_7
# %bb.6:                                #   in Loop: Header=BB47_2 Depth=1
	jmp	.LBB47_10
.LBB47_7:                               #   in Loop: Header=BB47_3 Depth=2
	movq	-16(%rbp), %rax
	movb	12(%rax), %al
	movq	-16(%rbp), %rcx
	movq	(%rcx), %rcx
	movq	24(%rcx), %rcx
	movb	%al, (%rcx)
	movq	-16(%rbp), %rax
	movl	3184(%rax), %eax
	shll	$8, %eax
	movq	-16(%rbp), %rcx
	movl	3184(%rcx), %ecx
	shrl	$24, %ecx
	movq	-16(%rbp), %rdx
	movzbl	12(%rdx), %edx
	xorl	%edx, %ecx
	movl	%ecx, %ecx
	xorl	BZ2_crc32Table(,%rcx,4), %eax
	movq	-16(%rbp), %rcx
	movl	%eax, 3184(%rcx)
	movq	-16(%rbp), %rax
	movl	16(%rax), %ecx
	addl	$-1, %ecx
	movl	%ecx, 16(%rax)
	movq	-16(%rbp), %rax
	movq	(%rax), %rax
	movq	24(%rax), %rcx
	addq	$1, %rcx
	movq	%rcx, 24(%rax)
	movq	-16(%rbp), %rax
	movq	(%rax), %rax
	movl	32(%rax), %ecx
	addl	$-1, %ecx
	movl	%ecx, 32(%rax)
	movq	-16(%rbp), %rax
	movq	(%rax), %rax
	movl	36(%rax), %ecx
	addl	$1, %ecx
	movl	%ecx, 36(%rax)
	movq	-16(%rbp), %rax
	movq	(%rax), %rax
	cmpl	$0, 36(%rax)
	jne	.LBB47_9
# %bb.8:                                #   in Loop: Header=BB47_3 Depth=2
	movq	-16(%rbp), %rax
	movq	(%rax), %rax
	movl	40(%rax), %ecx
	addl	$1, %ecx
	movl	%ecx, 40(%rax)
.LBB47_9:                               #   in Loop: Header=BB47_3 Depth=2
	jmp	.LBB47_3
.LBB47_10:                              #   in Loop: Header=BB47_2 Depth=1
	movq	-16(%rbp), %rax
	movl	1092(%rax), %eax
	movq	-16(%rbp), %rcx
	movl	64080(%rcx), %ecx
	addl	$1, %ecx
	cmpl	%ecx, %eax
	jne	.LBB47_12
# %bb.11:
	movb	$0, -25(%rbp)
	jmp	.LBB47_82
.LBB47_12:                              #   in Loop: Header=BB47_2 Depth=1
	movq	-16(%rbp), %rax
	movl	1092(%rax), %eax
	movq	-16(%rbp), %rcx
	movl	64080(%rcx), %ecx
	addl	$1, %ecx
	cmpl	%ecx, %eax
	jle	.LBB47_14
# %bb.13:
	movb	$1, -25(%rbp)
	jmp	.LBB47_82
.LBB47_14:                              #   in Loop: Header=BB47_2 Depth=1
	movq	-16(%rbp), %rax
	movl	$1, 16(%rax)
	movq	-16(%rbp), %rax
	movl	64(%rax), %eax
	movq	-16(%rbp), %rcx
	movb	%al, 12(%rcx)
	movq	-16(%rbp), %rax
	movq	3152(%rax), %rax
	movq	-16(%rbp), %rcx
	movl	60(%rcx), %ecx
	movl	(%rax,%rcx,4), %eax
	movq	-16(%rbp), %rcx
	movl	%eax, 60(%rcx)
	movq	-16(%rbp), %rax
	movl	60(%rax), %eax
	andl	$255, %eax
	movb	%al, -1(%rbp)
	movq	-16(%rbp), %rax
	movl	60(%rax), %ecx
	shrl	$8, %ecx
	movl	%ecx, 60(%rax)
	movq	-16(%rbp), %rax
	cmpl	$0, 24(%rax)
	jne	.LBB47_18
# %bb.15:                               #   in Loop: Header=BB47_2 Depth=1
	movq	-16(%rbp), %rax
	movslq	28(%rax), %rax
	movl	BZ2_rNums(,%rax,4), %eax
	movq	-16(%rbp), %rcx
	movl	%eax, 24(%rcx)
	movq	-16(%rbp), %rax
	movl	28(%rax), %ecx
	addl	$1, %ecx
	movl	%ecx, 28(%rax)
	movq	-16(%rbp), %rax
	cmpl	$512, 28(%rax)          # imm = 0x200
	jne	.LBB47_17
# %bb.16:                               #   in Loop: Header=BB47_2 Depth=1
	movq	-16(%rbp), %rax
	movl	$0, 28(%rax)
.LBB47_17:                              #   in Loop: Header=BB47_2 Depth=1
	jmp	.LBB47_18
.LBB47_18:                              #   in Loop: Header=BB47_2 Depth=1
	xorl	%eax, %eax
	movl	$1, %ecx
	movq	-16(%rbp), %rdx
	movl	24(%rdx), %esi
	addl	$-1, %esi
	movl	%esi, 24(%rdx)
	movq	-16(%rbp), %rdx
	movl	24(%rdx), %edx
	cmpl	$1, %edx
	cmovel	%ecx, %eax
	movzbl	-1(%rbp), %ecx
	xorl	%eax, %ecx
	movb	%cl, -1(%rbp)
	movq	-16(%rbp), %rax
	movl	1092(%rax), %ecx
	addl	$1, %ecx
	movl	%ecx, 1092(%rax)
	movq	-16(%rbp), %rax
	movl	1092(%rax), %eax
	movq	-16(%rbp), %rcx
	movl	64080(%rcx), %ecx
	addl	$1, %ecx
	cmpl	%ecx, %eax
	jne	.LBB47_21
# %bb.19:                               #   in Loop: Header=BB47_2 Depth=1
	jmp	.LBB47_20
.LBB47_20:                              # %.backedge
                                        #   in Loop: Header=BB47_2 Depth=1
	jmp	.LBB47_2
.LBB47_21:                              #   in Loop: Header=BB47_2 Depth=1
	movzbl	-1(%rbp), %eax
	movq	-16(%rbp), %rcx
	cmpl	64(%rcx), %eax
	je	.LBB47_23
# %bb.22:                               #   in Loop: Header=BB47_2 Depth=1
	movzbl	-1(%rbp), %eax
	movq	-16(%rbp), %rcx
	movl	%eax, 64(%rcx)
	jmp	.LBB47_20
.LBB47_23:                              #   in Loop: Header=BB47_2 Depth=1
	movq	-16(%rbp), %rax
	movl	$2, 16(%rax)
	movq	-16(%rbp), %rax
	movq	3152(%rax), %rax
	movq	-16(%rbp), %rcx
	movl	60(%rcx), %ecx
	movl	(%rax,%rcx,4), %eax
	movq	-16(%rbp), %rcx
	movl	%eax, 60(%rcx)
	movq	-16(%rbp), %rax
	movl	60(%rax), %eax
	andl	$255, %eax
	movb	%al, -1(%rbp)
	movq	-16(%rbp), %rax
	movl	60(%rax), %ecx
	shrl	$8, %ecx
	movl	%ecx, 60(%rax)
	movq	-16(%rbp), %rax
	cmpl	$0, 24(%rax)
	jne	.LBB47_27
# %bb.24:                               #   in Loop: Header=BB47_2 Depth=1
	movq	-16(%rbp), %rax
	movslq	28(%rax), %rax
	movl	BZ2_rNums(,%rax,4), %eax
	movq	-16(%rbp), %rcx
	movl	%eax, 24(%rcx)
	movq	-16(%rbp), %rax
	movl	28(%rax), %ecx
	addl	$1, %ecx
	movl	%ecx, 28(%rax)
	movq	-16(%rbp), %rax
	cmpl	$512, 28(%rax)          # imm = 0x200
	jne	.LBB47_26
# %bb.25:                               #   in Loop: Header=BB47_2 Depth=1
	movq	-16(%rbp), %rax
	movl	$0, 28(%rax)
.LBB47_26:                              #   in Loop: Header=BB47_2 Depth=1
	jmp	.LBB47_27
.LBB47_27:                              #   in Loop: Header=BB47_2 Depth=1
	xorl	%eax, %eax
	movl	$1, %ecx
	movq	-16(%rbp), %rdx
	movl	24(%rdx), %esi
	addl	$-1, %esi
	movl	%esi, 24(%rdx)
	movq	-16(%rbp), %rdx
	movl	24(%rdx), %edx
	cmpl	$1, %edx
	cmovel	%ecx, %eax
	movzbl	-1(%rbp), %ecx
	xorl	%eax, %ecx
	movb	%cl, -1(%rbp)
	movq	-16(%rbp), %rax
	movl	1092(%rax), %ecx
	addl	$1, %ecx
	movl	%ecx, 1092(%rax)
	movq	-16(%rbp), %rax
	movl	1092(%rax), %eax
	movq	-16(%rbp), %rcx
	movl	64080(%rcx), %ecx
	addl	$1, %ecx
	cmpl	%ecx, %eax
	jne	.LBB47_29
# %bb.28:                               #   in Loop: Header=BB47_2 Depth=1
	jmp	.LBB47_20
.LBB47_29:                              #   in Loop: Header=BB47_2 Depth=1
	movzbl	-1(%rbp), %eax
	movq	-16(%rbp), %rcx
	cmpl	64(%rcx), %eax
	je	.LBB47_31
# %bb.30:                               #   in Loop: Header=BB47_2 Depth=1
	movzbl	-1(%rbp), %eax
	movq	-16(%rbp), %rcx
	movl	%eax, 64(%rcx)
	jmp	.LBB47_20
.LBB47_31:                              #   in Loop: Header=BB47_2 Depth=1
	movq	-16(%rbp), %rax
	movl	$3, 16(%rax)
	movq	-16(%rbp), %rax
	movq	3152(%rax), %rax
	movq	-16(%rbp), %rcx
	movl	60(%rcx), %ecx
	movl	(%rax,%rcx,4), %eax
	movq	-16(%rbp), %rcx
	movl	%eax, 60(%rcx)
	movq	-16(%rbp), %rax
	movl	60(%rax), %eax
	andl	$255, %eax
	movb	%al, -1(%rbp)
	movq	-16(%rbp), %rax
	movl	60(%rax), %ecx
	shrl	$8, %ecx
	movl	%ecx, 60(%rax)
	movq	-16(%rbp), %rax
	cmpl	$0, 24(%rax)
	jne	.LBB47_35
# %bb.32:                               #   in Loop: Header=BB47_2 Depth=1
	movq	-16(%rbp), %rax
	movslq	28(%rax), %rax
	movl	BZ2_rNums(,%rax,4), %eax
	movq	-16(%rbp), %rcx
	movl	%eax, 24(%rcx)
	movq	-16(%rbp), %rax
	movl	28(%rax), %ecx
	addl	$1, %ecx
	movl	%ecx, 28(%rax)
	movq	-16(%rbp), %rax
	cmpl	$512, 28(%rax)          # imm = 0x200
	jne	.LBB47_34
# %bb.33:                               #   in Loop: Header=BB47_2 Depth=1
	movq	-16(%rbp), %rax
	movl	$0, 28(%rax)
.LBB47_34:                              #   in Loop: Header=BB47_2 Depth=1
	jmp	.LBB47_35
.LBB47_35:                              #   in Loop: Header=BB47_2 Depth=1
	xorl	%eax, %eax
	movl	$1, %ecx
	movq	-16(%rbp), %rdx
	movl	24(%rdx), %esi
	addl	$-1, %esi
	movl	%esi, 24(%rdx)
	movq	-16(%rbp), %rdx
	movl	24(%rdx), %edx
	cmpl	$1, %edx
	cmovel	%ecx, %eax
	movzbl	-1(%rbp), %ecx
	xorl	%eax, %ecx
	movb	%cl, -1(%rbp)
	movq	-16(%rbp), %rax
	movl	1092(%rax), %ecx
	addl	$1, %ecx
	movl	%ecx, 1092(%rax)
	movq	-16(%rbp), %rax
	movl	1092(%rax), %eax
	movq	-16(%rbp), %rcx
	movl	64080(%rcx), %ecx
	addl	$1, %ecx
	cmpl	%ecx, %eax
	jne	.LBB47_37
# %bb.36:                               #   in Loop: Header=BB47_2 Depth=1
	jmp	.LBB47_20
.LBB47_37:                              #   in Loop: Header=BB47_2 Depth=1
	movzbl	-1(%rbp), %eax
	movq	-16(%rbp), %rcx
	cmpl	64(%rcx), %eax
	je	.LBB47_39
# %bb.38:                               #   in Loop: Header=BB47_2 Depth=1
	movzbl	-1(%rbp), %eax
	movq	-16(%rbp), %rcx
	movl	%eax, 64(%rcx)
	jmp	.LBB47_20
.LBB47_39:                              #   in Loop: Header=BB47_2 Depth=1
	movq	-16(%rbp), %rax
	movq	3152(%rax), %rax
	movq	-16(%rbp), %rcx
	movl	60(%rcx), %ecx
	movl	(%rax,%rcx,4), %eax
	movq	-16(%rbp), %rcx
	movl	%eax, 60(%rcx)
	movq	-16(%rbp), %rax
	movl	60(%rax), %eax
	andl	$255, %eax
	movb	%al, -1(%rbp)
	movq	-16(%rbp), %rax
	movl	60(%rax), %ecx
	shrl	$8, %ecx
	movl	%ecx, 60(%rax)
	movq	-16(%rbp), %rax
	cmpl	$0, 24(%rax)
	jne	.LBB47_43
# %bb.40:                               #   in Loop: Header=BB47_2 Depth=1
	movq	-16(%rbp), %rax
	movslq	28(%rax), %rax
	movl	BZ2_rNums(,%rax,4), %eax
	movq	-16(%rbp), %rcx
	movl	%eax, 24(%rcx)
	movq	-16(%rbp), %rax
	movl	28(%rax), %ecx
	addl	$1, %ecx
	movl	%ecx, 28(%rax)
	movq	-16(%rbp), %rax
	cmpl	$512, 28(%rax)          # imm = 0x200
	jne	.LBB47_42
# %bb.41:                               #   in Loop: Header=BB47_2 Depth=1
	movq	-16(%rbp), %rax
	movl	$0, 28(%rax)
.LBB47_42:                              #   in Loop: Header=BB47_2 Depth=1
	jmp	.LBB47_43
.LBB47_43:                              #   in Loop: Header=BB47_2 Depth=1
	xorl	%eax, %eax
	movl	$1, %ecx
	movq	-16(%rbp), %rdx
	movl	24(%rdx), %esi
	addl	$-1, %esi
	movl	%esi, 24(%rdx)
	movq	-16(%rbp), %rdx
	movl	24(%rdx), %edx
	cmpl	$1, %edx
	cmovel	%ecx, %eax
	movzbl	-1(%rbp), %ecx
	xorl	%eax, %ecx
	movb	%cl, -1(%rbp)
	movq	-16(%rbp), %rax
	movl	1092(%rax), %ecx
	addl	$1, %ecx
	movl	%ecx, 1092(%rax)
	movzbl	-1(%rbp), %eax
	addl	$4, %eax
	movq	-16(%rbp), %rcx
	movl	%eax, 16(%rcx)
	movq	-16(%rbp), %rax
	movq	3152(%rax), %rax
	movq	-16(%rbp), %rcx
	movl	60(%rcx), %ecx
	movl	(%rax,%rcx,4), %eax
	movq	-16(%rbp), %rcx
	movl	%eax, 60(%rcx)
	movq	-16(%rbp), %rax
	movl	60(%rax), %eax
	andl	$255, %eax
	movzbl	%al, %eax
	movq	-16(%rbp), %rcx
	movl	%eax, 64(%rcx)
	movq	-16(%rbp), %rax
	movl	60(%rax), %ecx
	shrl	$8, %ecx
	movl	%ecx, 60(%rax)
	movq	-16(%rbp), %rax
	cmpl	$0, 24(%rax)
	jne	.LBB47_47
# %bb.44:                               #   in Loop: Header=BB47_2 Depth=1
	movq	-16(%rbp), %rax
	movslq	28(%rax), %rax
	movl	BZ2_rNums(,%rax,4), %eax
	movq	-16(%rbp), %rcx
	movl	%eax, 24(%rcx)
	movq	-16(%rbp), %rax
	movl	28(%rax), %ecx
	addl	$1, %ecx
	movl	%ecx, 28(%rax)
	movq	-16(%rbp), %rax
	cmpl	$512, 28(%rax)          # imm = 0x200
	jne	.LBB47_46
# %bb.45:                               #   in Loop: Header=BB47_2 Depth=1
	movq	-16(%rbp), %rax
	movl	$0, 28(%rax)
.LBB47_46:                              #   in Loop: Header=BB47_2 Depth=1
	jmp	.LBB47_47
.LBB47_47:                              #   in Loop: Header=BB47_2 Depth=1
	xorl	%eax, %eax
	movl	$1, %ecx
	movq	-16(%rbp), %rdx
	movl	24(%rdx), %esi
	addl	$-1, %esi
	movl	%esi, 24(%rdx)
	movq	-16(%rbp), %rdx
	movl	24(%rdx), %edx
	cmpl	$1, %edx
	cmovel	%ecx, %eax
	movq	-16(%rbp), %rcx
	xorl	64(%rcx), %eax
	movl	%eax, 64(%rcx)
	movq	-16(%rbp), %rax
	movl	1092(%rax), %ecx
	addl	$1, %ecx
	movl	%ecx, 1092(%rax)
	jmp	.LBB47_20
.LBB47_48:
	movq	-16(%rbp), %rax
	movl	3184(%rax), %eax
	movl	%eax, -48(%rbp)
	movq	-16(%rbp), %rax
	movb	12(%rax), %al
	movb	%al, -17(%rbp)
	movq	-16(%rbp), %rax
	movl	16(%rax), %eax
	movl	%eax, -36(%rbp)
	movq	-16(%rbp), %rax
	movl	1092(%rax), %eax
	movl	%eax, -32(%rbp)
	movq	-16(%rbp), %rax
	movl	64(%rax), %eax
	movl	%eax, -44(%rbp)
	movq	-16(%rbp), %rax
	movq	3152(%rax), %rax
	movq	%rax, -72(%rbp)
	movq	-16(%rbp), %rax
	movl	60(%rax), %eax
	movl	%eax, -24(%rbp)
	movq	-16(%rbp), %rax
	movq	(%rax), %rax
	movq	24(%rax), %rax
	movq	%rax, -64(%rbp)
	movq	-16(%rbp), %rax
	movq	(%rax), %rax
	movl	32(%rax), %eax
	movl	%eax, -40(%rbp)
	movl	-40(%rbp), %eax
	movl	%eax, -80(%rbp)
	movq	-16(%rbp), %rax
	movl	64080(%rax), %eax
	addl	$1, %eax
	movl	%eax, -52(%rbp)
.LBB47_49:                              # =>This Loop Header: Depth=1
                                        #     Child Loop BB47_51 Depth 2
	cmpl	$0, -36(%rbp)
	jle	.LBB47_60
# %bb.50:                               #   in Loop: Header=BB47_49 Depth=1
	jmp	.LBB47_51
.LBB47_51:                              #   Parent Loop BB47_49 Depth=1
                                        # =>  This Inner Loop Header: Depth=2
	cmpl	$0, -40(%rbp)
	jne	.LBB47_53
# %bb.52:
	jmp	.LBB47_78
.LBB47_53:                              #   in Loop: Header=BB47_51 Depth=2
	cmpl	$1, -36(%rbp)
	jne	.LBB47_55
# %bb.54:                               #   in Loop: Header=BB47_49 Depth=1
	jmp	.LBB47_56
.LBB47_55:                              #   in Loop: Header=BB47_51 Depth=2
	movb	-17(%rbp), %al
	movq	-64(%rbp), %rcx
	movb	%al, (%rcx)
	movl	-48(%rbp), %eax
	shll	$8, %eax
	movl	-48(%rbp), %ecx
	shrl	$24, %ecx
	movzbl	-17(%rbp), %edx
	xorl	%edx, %ecx
	movl	%ecx, %ecx
	xorl	BZ2_crc32Table(,%rcx,4), %eax
	movl	%eax, -48(%rbp)
	movl	-36(%rbp), %eax
	addl	$-1, %eax
	movl	%eax, -36(%rbp)
	movq	-64(%rbp), %rax
	addq	$1, %rax
	movq	%rax, -64(%rbp)
	movl	-40(%rbp), %eax
	addl	$-1, %eax
	movl	%eax, -40(%rbp)
	jmp	.LBB47_51
.LBB47_56:                              #   in Loop: Header=BB47_49 Depth=1
	jmp	.LBB47_57
.LBB47_57:                              #   in Loop: Header=BB47_49 Depth=1
	cmpl	$0, -40(%rbp)
	jne	.LBB47_59
# %bb.58:
	movl	$1, -36(%rbp)
	jmp	.LBB47_78
.LBB47_59:                              #   in Loop: Header=BB47_49 Depth=1
	movb	-17(%rbp), %al
	movq	-64(%rbp), %rcx
	movb	%al, (%rcx)
	movl	-48(%rbp), %eax
	shll	$8, %eax
	movl	-48(%rbp), %ecx
	shrl	$24, %ecx
	movzbl	-17(%rbp), %edx
	xorl	%edx, %ecx
	movl	%ecx, %ecx
	xorl	BZ2_crc32Table(,%rcx,4), %eax
	movl	%eax, -48(%rbp)
	movq	-64(%rbp), %rax
	addq	$1, %rax
	movq	%rax, -64(%rbp)
	movl	-40(%rbp), %eax
	addl	$-1, %eax
	movl	%eax, -40(%rbp)
.LBB47_60:                              #   in Loop: Header=BB47_49 Depth=1
	movl	-32(%rbp), %eax
	cmpl	-52(%rbp), %eax
	jle	.LBB47_62
# %bb.61:
	movb	$1, -25(%rbp)
	jmp	.LBB47_82
.LBB47_62:                              #   in Loop: Header=BB47_49 Depth=1
	movl	-32(%rbp), %eax
	cmpl	-52(%rbp), %eax
	jne	.LBB47_64
# %bb.63:
	movl	$0, -36(%rbp)
	jmp	.LBB47_78
.LBB47_64:                              #   in Loop: Header=BB47_49 Depth=1
	movl	-44(%rbp), %eax
	movb	%al, -17(%rbp)
	movq	-72(%rbp), %rax
	movl	-24(%rbp), %ecx
	movl	(%rax,%rcx,4), %eax
	movl	%eax, -24(%rbp)
	movl	-24(%rbp), %eax
	andl	$255, %eax
	movb	%al, -1(%rbp)
	movl	-24(%rbp), %eax
	shrl	$8, %eax
	movl	%eax, -24(%rbp)
	movl	-32(%rbp), %eax
	addl	$1, %eax
	movl	%eax, -32(%rbp)
	movzbl	-1(%rbp), %eax
	cmpl	-44(%rbp), %eax
	je	.LBB47_66
# %bb.65:                               #   in Loop: Header=BB47_49 Depth=1
	movzbl	-1(%rbp), %eax
	movl	%eax, -44(%rbp)
	jmp	.LBB47_57
.LBB47_66:                              #   in Loop: Header=BB47_49 Depth=1
	movl	-32(%rbp), %eax
	cmpl	-52(%rbp), %eax
	jne	.LBB47_68
# %bb.67:                               #   in Loop: Header=BB47_49 Depth=1
	jmp	.LBB47_57
.LBB47_68:                              #   in Loop: Header=BB47_49 Depth=1
	movl	$2, -36(%rbp)
	movq	-72(%rbp), %rax
	movl	-24(%rbp), %ecx
	movl	(%rax,%rcx,4), %eax
	movl	%eax, -24(%rbp)
	movl	-24(%rbp), %eax
	andl	$255, %eax
	movb	%al, -1(%rbp)
	movl	-24(%rbp), %eax
	shrl	$8, %eax
	movl	%eax, -24(%rbp)
	movl	-32(%rbp), %eax
	addl	$1, %eax
	movl	%eax, -32(%rbp)
	movl	-32(%rbp), %eax
	cmpl	-52(%rbp), %eax
	jne	.LBB47_71
# %bb.69:                               #   in Loop: Header=BB47_49 Depth=1
	jmp	.LBB47_70
.LBB47_70:                              # %.backedge1
                                        #   in Loop: Header=BB47_49 Depth=1
	jmp	.LBB47_49
.LBB47_71:                              #   in Loop: Header=BB47_49 Depth=1
	movzbl	-1(%rbp), %eax
	cmpl	-44(%rbp), %eax
	je	.LBB47_73
# %bb.72:                               #   in Loop: Header=BB47_49 Depth=1
	movzbl	-1(%rbp), %eax
	movl	%eax, -44(%rbp)
	jmp	.LBB47_70
.LBB47_73:                              #   in Loop: Header=BB47_49 Depth=1
	movl	$3, -36(%rbp)
	movq	-72(%rbp), %rax
	movl	-24(%rbp), %ecx
	movl	(%rax,%rcx,4), %eax
	movl	%eax, -24(%rbp)
	movl	-24(%rbp), %eax
	andl	$255, %eax
	movb	%al, -1(%rbp)
	movl	-24(%rbp), %eax
	shrl	$8, %eax
	movl	%eax, -24(%rbp)
	movl	-32(%rbp), %eax
	addl	$1, %eax
	movl	%eax, -32(%rbp)
	movl	-32(%rbp), %eax
	cmpl	-52(%rbp), %eax
	jne	.LBB47_75
# %bb.74:                               #   in Loop: Header=BB47_49 Depth=1
	jmp	.LBB47_70
.LBB47_75:                              #   in Loop: Header=BB47_49 Depth=1
	movzbl	-1(%rbp), %eax
	cmpl	-44(%rbp), %eax
	je	.LBB47_77
# %bb.76:                               #   in Loop: Header=BB47_49 Depth=1
	movzbl	-1(%rbp), %eax
	movl	%eax, -44(%rbp)
	jmp	.LBB47_70
.LBB47_77:                              #   in Loop: Header=BB47_49 Depth=1
	movq	-72(%rbp), %rax
	movl	-24(%rbp), %ecx
	movl	(%rax,%rcx,4), %eax
	movl	%eax, -24(%rbp)
	movl	-24(%rbp), %eax
	andl	$255, %eax
	movb	%al, -1(%rbp)
	movl	-24(%rbp), %eax
	shrl	$8, %eax
	movl	%eax, -24(%rbp)
	movl	-32(%rbp), %eax
	addl	$1, %eax
	movl	%eax, -32(%rbp)
	movzbl	-1(%rbp), %eax
	addl	$4, %eax
	movl	%eax, -36(%rbp)
	movq	-72(%rbp), %rax
	movl	-24(%rbp), %ecx
	movl	(%rax,%rcx,4), %eax
	movl	%eax, -24(%rbp)
	movl	-24(%rbp), %eax
	andl	$255, %eax
	movzbl	%al, %eax
	movl	%eax, -44(%rbp)
	movl	-24(%rbp), %eax
	shrl	$8, %eax
	movl	%eax, -24(%rbp)
	movl	-32(%rbp), %eax
	addl	$1, %eax
	movl	%eax, -32(%rbp)
	jmp	.LBB47_70
.LBB47_78:
	movq	-16(%rbp), %rax
	movq	(%rax), %rax
	movl	36(%rax), %eax
	movl	%eax, -76(%rbp)
	movl	-80(%rbp), %eax
	subl	-40(%rbp), %eax
	movq	-16(%rbp), %rcx
	movq	(%rcx), %rcx
	addl	36(%rcx), %eax
	movl	%eax, 36(%rcx)
	movq	-16(%rbp), %rax
	movq	(%rax), %rax
	movl	36(%rax), %eax
	cmpl	-76(%rbp), %eax
	jae	.LBB47_80
# %bb.79:
	movq	-16(%rbp), %rax
	movq	(%rax), %rax
	movl	40(%rax), %ecx
	addl	$1, %ecx
	movl	%ecx, 40(%rax)
.LBB47_80:
	movl	-48(%rbp), %eax
	movq	-16(%rbp), %rcx
	movl	%eax, 3184(%rcx)
	movb	-17(%rbp), %al
	movq	-16(%rbp), %rcx
	movb	%al, 12(%rcx)
	movl	-36(%rbp), %eax
	movq	-16(%rbp), %rcx
	movl	%eax, 16(%rcx)
	movl	-32(%rbp), %eax
	movq	-16(%rbp), %rcx
	movl	%eax, 1092(%rcx)
	movl	-44(%rbp), %eax
	movq	-16(%rbp), %rcx
	movl	%eax, 64(%rcx)
	movq	-72(%rbp), %rax
	movq	-16(%rbp), %rcx
	movq	%rax, 3152(%rcx)
	movl	-24(%rbp), %eax
	movq	-16(%rbp), %rcx
	movl	%eax, 60(%rcx)
	movq	-64(%rbp), %rax
	movq	-16(%rbp), %rcx
	movq	(%rcx), %rcx
	movq	%rax, 24(%rcx)
	movl	-40(%rbp), %eax
	movq	-16(%rbp), %rcx
	movq	(%rcx), %rcx
	movl	%eax, 32(%rcx)
# %bb.81:
	movb	$0, -25(%rbp)
.LBB47_82:
	movzbl	-25(%rbp), %eax
	popq	%rbp
	retq
.Lfunc_end47:
	.size	unRLE_obuf_to_output_FAST, .Lfunc_end47-unRLE_obuf_to_output_FAST
	.cfi_endproc
                                        # -- End function
	.globl	BZ2_bzDecompressEnd     # -- Begin function BZ2_bzDecompressEnd
	.p2align	4, 0x90
	.type	BZ2_bzDecompressEnd,@function
BZ2_bzDecompressEnd:                    # @BZ2_bzDecompressEnd
	.cfi_startproc
# %bb.0:
	pushq	%rbp
	.cfi_def_cfa_offset 16
	.cfi_offset %rbp, -16
	movq	%rsp, %rbp
	.cfi_def_cfa_register %rbp
	subq	$32, %rsp
	movq	%rdi, -8(%rbp)
	cmpq	$0, -8(%rbp)
	jne	.LBB48_2
# %bb.1:
	movl	$-2, -12(%rbp)
	jmp	.LBB48_13
.LBB48_2:
	movq	-8(%rbp), %rax
	movq	48(%rax), %rax
	movq	%rax, -24(%rbp)
	cmpq	$0, -24(%rbp)
	jne	.LBB48_4
# %bb.3:
	movl	$-2, -12(%rbp)
	jmp	.LBB48_13
.LBB48_4:
	movq	-24(%rbp), %rax
	movq	(%rax), %rax
	cmpq	-8(%rbp), %rax
	je	.LBB48_6
# %bb.5:
	movl	$-2, -12(%rbp)
	jmp	.LBB48_13
.LBB48_6:
	movq	-24(%rbp), %rax
	cmpq	$0, 3152(%rax)
	je	.LBB48_8
# %bb.7:
	movq	-8(%rbp), %rax
	movq	64(%rax), %rax
	movq	-8(%rbp), %rcx
	movq	72(%rcx), %rdi
	movq	-24(%rbp), %rcx
	movq	3152(%rcx), %rsi
	callq	*%rax
.LBB48_8:
	movq	-24(%rbp), %rax
	cmpq	$0, 3160(%rax)
	je	.LBB48_10
# %bb.9:
	movq	-8(%rbp), %rax
	movq	64(%rax), %rax
	movq	-8(%rbp), %rcx
	movq	72(%rcx), %rdi
	movq	-24(%rbp), %rcx
	movq	3160(%rcx), %rsi
	callq	*%rax
.LBB48_10:
	movq	-24(%rbp), %rax
	cmpq	$0, 3168(%rax)
	je	.LBB48_12
# %bb.11:
	movq	-8(%rbp), %rax
	movq	64(%rax), %rax
	movq	-8(%rbp), %rcx
	movq	72(%rcx), %rdi
	movq	-24(%rbp), %rcx
	movq	3168(%rcx), %rsi
	callq	*%rax
.LBB48_12:
	movq	-8(%rbp), %rax
	movq	64(%rax), %rax
	movq	-8(%rbp), %rcx
	movq	72(%rcx), %rdi
	movq	-8(%rbp), %rcx
	movq	48(%rcx), %rsi
	callq	*%rax
	movq	-8(%rbp), %rax
	movq	$0, 48(%rax)
	movl	$0, -12(%rbp)
.LBB48_13:
	movl	-12(%rbp), %eax
	addq	$32, %rsp
	popq	%rbp
	retq
.Lfunc_end48:
	.size	BZ2_bzDecompressEnd, .Lfunc_end48-BZ2_bzDecompressEnd
	.cfi_endproc
                                        # -- End function
	.globl	BZ2_bzWriteOpen         # -- Begin function BZ2_bzWriteOpen
	.p2align	4, 0x90
	.type	BZ2_bzWriteOpen,@function
BZ2_bzWriteOpen:                        # @BZ2_bzWriteOpen
	.cfi_startproc
# %bb.0:
	pushq	%rbp
	.cfi_def_cfa_offset 16
	.cfi_offset %rbp, -16
	movq	%rsp, %rbp
	.cfi_def_cfa_register %rbp
	subq	$48, %rsp
	movq	%rdi, -24(%rbp)
	movl	%esi, -40(%rbp)
	movl	%edx, -36(%rbp)
	movl	%ecx, -32(%rbp)
	movl	%r8d, -12(%rbp)
	movq	$0, -8(%rbp)
	cmpq	$0, -24(%rbp)
	je	.LBB49_2
# %bb.1:
	movq	-24(%rbp), %rax
	movl	$0, (%rax)
.LBB49_2:
	cmpq	$0, -8(%rbp)
	je	.LBB49_4
# %bb.3:
	movq	-8(%rbp), %rax
	movl	$0, 5096(%rax)
.LBB49_4:
	cmpl	$0, -40(%rbp)
	je	.LBB49_11
# %bb.5:
	cmpl	$1, -36(%rbp)
	jl	.LBB49_11
# %bb.6:
	cmpl	$9, -36(%rbp)
	jg	.LBB49_11
# %bb.7:
	cmpl	$0, -12(%rbp)
	jl	.LBB49_11
# %bb.8:
	cmpl	$250, -12(%rbp)
	jg	.LBB49_11
# %bb.9:
	cmpl	$0, -32(%rbp)
	jl	.LBB49_11
# %bb.10:
	cmpl	$4, -32(%rbp)
	jle	.LBB49_16
.LBB49_11:
	cmpq	$0, -24(%rbp)
	je	.LBB49_13
# %bb.12:
	movq	-24(%rbp), %rax
	movl	$-2, (%rax)
.LBB49_13:
	cmpq	$0, -8(%rbp)
	je	.LBB49_15
# %bb.14:
	movq	-8(%rbp), %rax
	movl	$-2, 5096(%rax)
.LBB49_15:
	movq	$0, -48(%rbp)
	jmp	.LBB49_35
.LBB49_16:
	movl	$5104, %edi             # imm = 0x13F0
	callq	malloc
	movq	%rax, -8(%rbp)
	cmpq	$0, -8(%rbp)
	jne	.LBB49_22
# %bb.17:
	cmpq	$0, -24(%rbp)
	je	.LBB49_19
# %bb.18:
	movq	-24(%rbp), %rax
	movl	$-3, (%rax)
.LBB49_19:
	cmpq	$0, -8(%rbp)
	je	.LBB49_21
# %bb.20:
	movq	-8(%rbp), %rax
	movl	$-3, 5096(%rax)
.LBB49_21:
	movq	$0, -48(%rbp)
	jmp	.LBB49_35
.LBB49_22:
	cmpq	$0, -24(%rbp)
	je	.LBB49_24
# %bb.23:
	movq	-24(%rbp), %rax
	movl	$0, (%rax)
.LBB49_24:
	cmpq	$0, -8(%rbp)
	je	.LBB49_26
# %bb.25:
	movq	-8(%rbp), %rax
	movl	$0, 5096(%rax)
.LBB49_26:
	movq	-8(%rbp), %rax
	movb	$0, 5100(%rax)
	movq	-8(%rbp), %rax
	movl	$0, 5004(%rax)
	movl	-40(%rbp), %eax
	movq	-8(%rbp), %rcx
	movl	%eax, (%rcx)
	movq	-8(%rbp), %rax
	movb	$1, 5008(%rax)
	movq	-8(%rbp), %rax
	movq	$0, 5072(%rax)
	movq	-8(%rbp), %rax
	movq	$0, 5080(%rax)
	movq	-8(%rbp), %rax
	movq	$0, 5088(%rax)
	cmpl	$0, -12(%rbp)
	jne	.LBB49_28
# %bb.27:
	movl	$30, -12(%rbp)
.LBB49_28:
	movq	-8(%rbp), %rdi
	addq	$5016, %rdi             # imm = 0x1398
	movl	-36(%rbp), %esi
	movl	-32(%rbp), %edx
	movl	-12(%rbp), %ecx
	callq	BZ2_bzCompressInit
	movl	%eax, -28(%rbp)
	cmpl	$0, -28(%rbp)
	je	.LBB49_34
# %bb.29:
	cmpq	$0, -24(%rbp)
	je	.LBB49_31
# %bb.30:
	movl	-28(%rbp), %eax
	movq	-24(%rbp), %rcx
	movl	%eax, (%rcx)
.LBB49_31:
	cmpq	$0, -8(%rbp)
	je	.LBB49_33
# %bb.32:
	movl	-28(%rbp), %eax
	movq	-8(%rbp), %rcx
	movl	%eax, 5096(%rcx)
.LBB49_33:
	movq	-8(%rbp), %rdi
	callq	free
	movq	$0, -48(%rbp)
	jmp	.LBB49_35
.LBB49_34:
	movq	-8(%rbp), %rax
	movl	$0, 5024(%rax)
	movq	-8(%rbp), %rax
	movb	$1, 5100(%rax)
	movq	-8(%rbp), %rax
	movq	%rax, -48(%rbp)
.LBB49_35:
	movq	-48(%rbp), %rax
	addq	$48, %rsp
	popq	%rbp
	retq
.Lfunc_end49:
	.size	BZ2_bzWriteOpen, .Lfunc_end49-BZ2_bzWriteOpen
	.cfi_endproc
                                        # -- End function
	.globl	BZ2_bzWrite             # -- Begin function BZ2_bzWrite
	.p2align	4, 0x90
	.type	BZ2_bzWrite,@function
BZ2_bzWrite:                            # @BZ2_bzWrite
	.cfi_startproc
# %bb.0:
	pushq	%rbp
	.cfi_def_cfa_offset 16
	.cfi_offset %rbp, -16
	movq	%rsp, %rbp
	.cfi_def_cfa_register %rbp
	subq	$48, %rsp
	movq	%rdi, -16(%rbp)
	movq	%rsi, -48(%rbp)
	movq	%rdx, -40(%rbp)
	movl	%ecx, -24(%rbp)
	movq	-48(%rbp), %rax
	movq	%rax, -8(%rbp)
	cmpq	$0, -16(%rbp)
	je	.LBB50_2
# %bb.1:
	movq	-16(%rbp), %rax
	movl	$0, (%rax)
.LBB50_2:
	cmpq	$0, -8(%rbp)
	je	.LBB50_4
# %bb.3:
	movq	-8(%rbp), %rax
	movl	$0, 5096(%rax)
.LBB50_4:
	cmpq	$0, -8(%rbp)
	je	.LBB50_7
# %bb.5:
	cmpq	$0, -40(%rbp)
	je	.LBB50_7
# %bb.6:
	cmpl	$0, -24(%rbp)
	jge	.LBB50_12
.LBB50_7:
	cmpq	$0, -16(%rbp)
	je	.LBB50_9
# %bb.8:
	movq	-16(%rbp), %rax
	movl	$-2, (%rax)
.LBB50_9:
	cmpq	$0, -8(%rbp)
	je	.LBB50_11
# %bb.10:
	movq	-8(%rbp), %rax
	movl	$-2, 5096(%rax)
.LBB50_11:
	jmp	.LBB50_46
.LBB50_12:
	movq	-8(%rbp), %rax
	cmpb	$0, 5008(%rax)
	jne	.LBB50_18
# %bb.13:
	cmpq	$0, -16(%rbp)
	je	.LBB50_15
# %bb.14:
	movq	-16(%rbp), %rax
	movl	$-1, (%rax)
.LBB50_15:
	cmpq	$0, -8(%rbp)
	je	.LBB50_17
# %bb.16:
	movq	-8(%rbp), %rax
	movl	$-1, 5096(%rax)
.LBB50_17:
	jmp	.LBB50_46
.LBB50_18:
	cmpl	$0, -24(%rbp)
	jne	.LBB50_24
# %bb.19:
	cmpq	$0, -16(%rbp)
	je	.LBB50_21
# %bb.20:
	movq	-16(%rbp), %rax
	movl	$0, (%rax)
.LBB50_21:
	cmpq	$0, -8(%rbp)
	je	.LBB50_23
# %bb.22:
	movq	-8(%rbp), %rax
	movl	$0, 5096(%rax)
.LBB50_23:
	jmp	.LBB50_46
.LBB50_24:
	movl	-24(%rbp), %eax
	movq	-8(%rbp), %rcx
	movl	%eax, 5024(%rcx)
	movq	-40(%rbp), %rax
	movq	-8(%rbp), %rcx
	movq	%rax, 5016(%rcx)
.LBB50_25:                              # =>This Inner Loop Header: Depth=1
	movq	-8(%rbp), %rax
	movl	$5000, 5048(%rax)       # imm = 0x1388
	movq	-8(%rbp), %rax
	addq	$4, %rax
	movq	-8(%rbp), %rcx
	movq	%rax, 5040(%rcx)
	movq	-8(%rbp), %rdi
	addq	$5016, %rdi             # imm = 0x1398
	xorl	%esi, %esi
	callq	BZ2_bzCompress
	movl	%eax, -20(%rbp)
	cmpl	$1, -20(%rbp)
	je	.LBB50_31
# %bb.26:
	cmpq	$0, -16(%rbp)
	je	.LBB50_28
# %bb.27:
	movl	-20(%rbp), %eax
	movq	-16(%rbp), %rcx
	movl	%eax, (%rcx)
.LBB50_28:
	cmpq	$0, -8(%rbp)
	je	.LBB50_30
# %bb.29:
	movl	-20(%rbp), %eax
	movq	-8(%rbp), %rcx
	movl	%eax, 5096(%rcx)
.LBB50_30:
	jmp	.LBB50_46
.LBB50_31:                              #   in Loop: Header=BB50_25 Depth=1
	movq	-8(%rbp), %rax
	cmpl	$5000, 5048(%rax)       # imm = 0x1388
	jae	.LBB50_39
# %bb.32:                               #   in Loop: Header=BB50_25 Depth=1
	movl	$5000, %eax             # imm = 0x1388
	movq	-8(%rbp), %rcx
	subl	5048(%rcx), %eax
	movl	%eax, -28(%rbp)
	movq	-8(%rbp), %rdi
	addq	$4, %rdi
	movl	-28(%rbp), %edx
	movq	-8(%rbp), %rax
	movl	(%rax), %ecx
	movl	$1, %esi
	callq	spec_fwrite
	movl	%eax, -32(%rbp)
	movl	-28(%rbp), %eax
	cmpl	-32(%rbp), %eax
	je	.LBB50_38
# %bb.33:
	cmpq	$0, -16(%rbp)
	je	.LBB50_35
# %bb.34:
	movq	-16(%rbp), %rax
	movl	$-6, (%rax)
.LBB50_35:
	cmpq	$0, -8(%rbp)
	je	.LBB50_37
# %bb.36:
	movq	-8(%rbp), %rax
	movl	$-6, 5096(%rax)
.LBB50_37:
	jmp	.LBB50_46
.LBB50_38:                              #   in Loop: Header=BB50_25 Depth=1
	jmp	.LBB50_39
.LBB50_39:                              #   in Loop: Header=BB50_25 Depth=1
	movq	-8(%rbp), %rax
	cmpl	$0, 5024(%rax)
	jne	.LBB50_45
# %bb.40:
	cmpq	$0, -16(%rbp)
	je	.LBB50_42
# %bb.41:
	movq	-16(%rbp), %rax
	movl	$0, (%rax)
.LBB50_42:
	cmpq	$0, -8(%rbp)
	je	.LBB50_44
# %bb.43:
	movq	-8(%rbp), %rax
	movl	$0, 5096(%rax)
.LBB50_44:
	jmp	.LBB50_46
.LBB50_45:                              #   in Loop: Header=BB50_25 Depth=1
	jmp	.LBB50_25
.LBB50_46:
	addq	$48, %rsp
	popq	%rbp
	retq
.Lfunc_end50:
	.size	BZ2_bzWrite, .Lfunc_end50-BZ2_bzWrite
	.cfi_endproc
                                        # -- End function
	.globl	BZ2_bzWriteClose        # -- Begin function BZ2_bzWriteClose
	.p2align	4, 0x90
	.type	BZ2_bzWriteClose,@function
BZ2_bzWriteClose:                       # @BZ2_bzWriteClose
	.cfi_startproc
# %bb.0:
	pushq	%rbp
	.cfi_def_cfa_offset 16
	.cfi_offset %rbp, -16
	movq	%rsp, %rbp
	.cfi_def_cfa_register %rbp
	subq	$48, %rsp
	movq	%rdi, -40(%rbp)
	movq	%rsi, -32(%rbp)
	movl	%edx, -4(%rbp)
	movq	%rcx, -24(%rbp)
	movq	%r8, -16(%rbp)
	movq	-40(%rbp), %rdi
	movq	-32(%rbp), %rsi
	movl	-4(%rbp), %edx
	movq	-24(%rbp), %rcx
	movq	-16(%rbp), %r9
	xorl	%r8d, %r8d
	movq	$0, (%rsp)
	callq	BZ2_bzWriteClose64
	addq	$48, %rsp
	popq	%rbp
	retq
.Lfunc_end51:
	.size	BZ2_bzWriteClose, .Lfunc_end51-BZ2_bzWriteClose
	.cfi_endproc
                                        # -- End function
	.globl	BZ2_bzWriteClose64      # -- Begin function BZ2_bzWriteClose64
	.p2align	4, 0x90
	.type	BZ2_bzWriteClose64,@function
BZ2_bzWriteClose64:                     # @BZ2_bzWriteClose64
	.cfi_startproc
# %bb.0:
	pushq	%rbp
	.cfi_def_cfa_offset 16
	.cfi_offset %rbp, -16
	movq	%rsp, %rbp
	.cfi_def_cfa_register %rbp
	subq	$80, %rsp
	movq	16(%rbp), %rax
	movq	%rdi, -24(%rbp)
	movq	%rsi, -72(%rbp)
	movl	%edx, -32(%rbp)
	movq	%rcx, -56(%rbp)
	movq	%r8, -48(%rbp)
	movq	%r9, -40(%rbp)
	movq	-72(%rbp), %rax
	movq	%rax, -8(%rbp)
	cmpq	$0, -8(%rbp)
	jne	.LBB52_6
# %bb.1:
	cmpq	$0, -24(%rbp)
	je	.LBB52_3
# %bb.2:
	movq	-24(%rbp), %rax
	movl	$0, (%rax)
.LBB52_3:
	cmpq	$0, -8(%rbp)
	je	.LBB52_5
# %bb.4:
	movq	-8(%rbp), %rax
	movl	$0, 5096(%rax)
.LBB52_5:
	jmp	.LBB52_57
.LBB52_6:
	movq	-8(%rbp), %rax
	cmpb	$0, 5008(%rax)
	jne	.LBB52_12
# %bb.7:
	cmpq	$0, -24(%rbp)
	je	.LBB52_9
# %bb.8:
	movq	-24(%rbp), %rax
	movl	$-1, (%rax)
.LBB52_9:
	cmpq	$0, -8(%rbp)
	je	.LBB52_11
# %bb.10:
	movq	-8(%rbp), %rax
	movl	$-1, 5096(%rax)
.LBB52_11:
	jmp	.LBB52_57
.LBB52_12:
	cmpq	$0, -56(%rbp)
	je	.LBB52_14
# %bb.13:
	movq	-56(%rbp), %rax
	movl	$0, (%rax)
.LBB52_14:
	cmpq	$0, -48(%rbp)
	je	.LBB52_16
# %bb.15:
	movq	-48(%rbp), %rax
	movl	$0, (%rax)
.LBB52_16:
	cmpq	$0, -40(%rbp)
	je	.LBB52_18
# %bb.17:
	movq	-40(%rbp), %rax
	movl	$0, (%rax)
.LBB52_18:
	cmpq	$0, 16(%rbp)
	je	.LBB52_20
# %bb.19:
	movq	16(%rbp), %rax
	movl	$0, (%rax)
.LBB52_20:
	cmpl	$0, -32(%rbp)
	jne	.LBB52_42
# %bb.21:
	movq	-8(%rbp), %rax
	cmpl	$0, 5096(%rax)
	jne	.LBB52_42
# %bb.22:
	jmp	.LBB52_23
.LBB52_23:                              # =>This Inner Loop Header: Depth=1
	movq	-8(%rbp), %rax
	movl	$5000, 5048(%rax)       # imm = 0x1388
	movq	-8(%rbp), %rax
	addq	$4, %rax
	movq	-8(%rbp), %rcx
	movq	%rax, 5040(%rcx)
	movq	-8(%rbp), %rdi
	addq	$5016, %rdi             # imm = 0x1398
	movl	$2, %esi
	callq	BZ2_bzCompress
	movl	%eax, -12(%rbp)
	cmpl	$3, -12(%rbp)
	je	.LBB52_30
# %bb.24:                               #   in Loop: Header=BB52_23 Depth=1
	cmpl	$4, -12(%rbp)
	je	.LBB52_30
# %bb.25:
	cmpq	$0, -24(%rbp)
	je	.LBB52_27
# %bb.26:
	movl	-12(%rbp), %eax
	movq	-24(%rbp), %rcx
	movl	%eax, (%rcx)
.LBB52_27:
	cmpq	$0, -8(%rbp)
	je	.LBB52_29
# %bb.28:
	movl	-12(%rbp), %eax
	movq	-8(%rbp), %rcx
	movl	%eax, 5096(%rcx)
.LBB52_29:
	jmp	.LBB52_57
.LBB52_30:                              #   in Loop: Header=BB52_23 Depth=1
	movq	-8(%rbp), %rax
	cmpl	$5000, 5048(%rax)       # imm = 0x1388
	jae	.LBB52_38
# %bb.31:                               #   in Loop: Header=BB52_23 Depth=1
	movl	$5000, %eax             # imm = 0x1388
	movq	-8(%rbp), %rcx
	subl	5048(%rcx), %eax
	movl	%eax, -28(%rbp)
	movq	-8(%rbp), %rdi
	addq	$4, %rdi
	movl	-28(%rbp), %edx
	movq	-8(%rbp), %rax
	movl	(%rax), %ecx
	movl	$1, %esi
	callq	spec_fwrite
	movl	%eax, -60(%rbp)
	movl	-28(%rbp), %eax
	cmpl	-60(%rbp), %eax
	je	.LBB52_37
# %bb.32:
	cmpq	$0, -24(%rbp)
	je	.LBB52_34
# %bb.33:
	movq	-24(%rbp), %rax
	movl	$-6, (%rax)
.LBB52_34:
	cmpq	$0, -8(%rbp)
	je	.LBB52_36
# %bb.35:
	movq	-8(%rbp), %rax
	movl	$-6, 5096(%rax)
.LBB52_36:
	jmp	.LBB52_57
.LBB52_37:                              #   in Loop: Header=BB52_23 Depth=1
	jmp	.LBB52_38
.LBB52_38:                              #   in Loop: Header=BB52_23 Depth=1
	cmpl	$4, -12(%rbp)
	jne	.LBB52_40
# %bb.39:
	jmp	.LBB52_41
.LBB52_40:                              #   in Loop: Header=BB52_23 Depth=1
	jmp	.LBB52_23
.LBB52_41:
	jmp	.LBB52_42
.LBB52_42:
	cmpl	$0, -32(%rbp)
	jne	.LBB52_44
# %bb.43:
	jmp	.LBB52_44
.LBB52_44:
	cmpq	$0, -56(%rbp)
	je	.LBB52_46
# %bb.45:
	movq	-8(%rbp), %rax
	movl	5028(%rax), %eax
	movq	-56(%rbp), %rcx
	movl	%eax, (%rcx)
.LBB52_46:
	cmpq	$0, -48(%rbp)
	je	.LBB52_48
# %bb.47:
	movq	-8(%rbp), %rax
	movl	5032(%rax), %eax
	movq	-48(%rbp), %rcx
	movl	%eax, (%rcx)
.LBB52_48:
	cmpq	$0, -40(%rbp)
	je	.LBB52_50
# %bb.49:
	movq	-8(%rbp), %rax
	movl	5052(%rax), %eax
	movq	-40(%rbp), %rcx
	movl	%eax, (%rcx)
.LBB52_50:
	cmpq	$0, 16(%rbp)
	je	.LBB52_52
# %bb.51:
	movq	-8(%rbp), %rax
	movl	5056(%rax), %eax
	movq	16(%rbp), %rcx
	movl	%eax, (%rcx)
.LBB52_52:
	cmpq	$0, -24(%rbp)
	je	.LBB52_54
# %bb.53:
	movq	-24(%rbp), %rax
	movl	$0, (%rax)
.LBB52_54:
	cmpq	$0, -8(%rbp)
	je	.LBB52_56
# %bb.55:
	movq	-8(%rbp), %rax
	movl	$0, 5096(%rax)
.LBB52_56:
	movq	-8(%rbp), %rdi
	addq	$5016, %rdi             # imm = 0x1398
	callq	BZ2_bzCompressEnd
	movq	-8(%rbp), %rdi
	callq	free
.LBB52_57:
	addq	$80, %rsp
	popq	%rbp
	retq
.Lfunc_end52:
	.size	BZ2_bzWriteClose64, .Lfunc_end52-BZ2_bzWriteClose64
	.cfi_endproc
                                        # -- End function
	.globl	BZ2_bzReadOpen          # -- Begin function BZ2_bzReadOpen
	.p2align	4, 0x90
	.type	BZ2_bzReadOpen,@function
BZ2_bzReadOpen:                         # @BZ2_bzReadOpen
	.cfi_startproc
# %bb.0:
	pushq	%rbp
	.cfi_def_cfa_offset 16
	.cfi_offset %rbp, -16
	movq	%rsp, %rbp
	.cfi_def_cfa_register %rbp
	subq	$64, %rsp
	movq	%rdi, -24(%rbp)
	movl	%esi, -52(%rbp)
	movl	%edx, -36(%rbp)
	movl	%ecx, -32(%rbp)
	movq	%r8, -48(%rbp)
	movl	%r9d, -12(%rbp)
	movq	$0, -8(%rbp)
	cmpq	$0, -24(%rbp)
	je	.LBB53_2
# %bb.1:
	movq	-24(%rbp), %rax
	movl	$0, (%rax)
.LBB53_2:
	cmpq	$0, -8(%rbp)
	je	.LBB53_4
# %bb.3:
	movq	-8(%rbp), %rax
	movl	$0, 5096(%rax)
.LBB53_4:
	cmpl	$0, -52(%rbp)
	je	.LBB53_14
# %bb.5:
	cmpl	$0, -32(%rbp)
	je	.LBB53_7
# %bb.6:
	cmpl	$1, -32(%rbp)
	jne	.LBB53_14
.LBB53_7:
	cmpl	$0, -36(%rbp)
	jl	.LBB53_14
# %bb.8:
	cmpl	$4, -36(%rbp)
	jg	.LBB53_14
# %bb.9:
	cmpq	$0, -48(%rbp)
	jne	.LBB53_11
# %bb.10:
	cmpl	$0, -12(%rbp)
	jne	.LBB53_14
.LBB53_11:
	cmpq	$0, -48(%rbp)
	je	.LBB53_19
# %bb.12:
	cmpl	$0, -12(%rbp)
	jl	.LBB53_14
# %bb.13:
	cmpl	$5000, -12(%rbp)        # imm = 0x1388
	jle	.LBB53_19
.LBB53_14:
	cmpq	$0, -24(%rbp)
	je	.LBB53_16
# %bb.15:
	movq	-24(%rbp), %rax
	movl	$-2, (%rax)
.LBB53_16:
	cmpq	$0, -8(%rbp)
	je	.LBB53_18
# %bb.17:
	movq	-8(%rbp), %rax
	movl	$-2, 5096(%rax)
.LBB53_18:
	movq	$0, -64(%rbp)
	jmp	.LBB53_39
.LBB53_19:
	movl	$5104, %edi             # imm = 0x13F0
	callq	malloc
	movq	%rax, -8(%rbp)
	cmpq	$0, -8(%rbp)
	jne	.LBB53_25
# %bb.20:
	cmpq	$0, -24(%rbp)
	je	.LBB53_22
# %bb.21:
	movq	-24(%rbp), %rax
	movl	$-3, (%rax)
.LBB53_22:
	cmpq	$0, -8(%rbp)
	je	.LBB53_24
# %bb.23:
	movq	-8(%rbp), %rax
	movl	$-3, 5096(%rax)
.LBB53_24:
	movq	$0, -64(%rbp)
	jmp	.LBB53_39
.LBB53_25:
	cmpq	$0, -24(%rbp)
	je	.LBB53_27
# %bb.26:
	movq	-24(%rbp), %rax
	movl	$0, (%rax)
.LBB53_27:
	cmpq	$0, -8(%rbp)
	je	.LBB53_29
# %bb.28:
	movq	-8(%rbp), %rax
	movl	$0, 5096(%rax)
.LBB53_29:
	movq	-8(%rbp), %rax
	movb	$0, 5100(%rax)
	movl	-52(%rbp), %eax
	movq	-8(%rbp), %rcx
	movl	%eax, (%rcx)
	movq	-8(%rbp), %rax
	movl	$0, 5004(%rax)
	movq	-8(%rbp), %rax
	movb	$0, 5008(%rax)
	movq	-8(%rbp), %rax
	movq	$0, 5072(%rax)
	movq	-8(%rbp), %rax
	movq	$0, 5080(%rax)
	movq	-8(%rbp), %rax
	movq	$0, 5088(%rax)
.LBB53_30:                              # =>This Inner Loop Header: Depth=1
	cmpl	$0, -12(%rbp)
	jle	.LBB53_32
# %bb.31:                               #   in Loop: Header=BB53_30 Depth=1
	movq	-48(%rbp), %rax
	movb	(%rax), %al
	movq	-8(%rbp), %rcx
	movq	-8(%rbp), %rdx
	movslq	5004(%rdx), %rdx
	movb	%al, 4(%rcx,%rdx)
	movq	-8(%rbp), %rax
	movl	5004(%rax), %ecx
	addl	$1, %ecx
	movl	%ecx, 5004(%rax)
	movq	-48(%rbp), %rax
	addq	$1, %rax
	movq	%rax, -48(%rbp)
	movl	-12(%rbp), %eax
	addl	$-1, %eax
	movl	%eax, -12(%rbp)
	jmp	.LBB53_30
.LBB53_32:
	movq	-8(%rbp), %rdi
	addq	$5016, %rdi             # imm = 0x1398
	movl	-36(%rbp), %esi
	movl	-32(%rbp), %edx
	callq	BZ2_bzDecompressInit
	movl	%eax, -28(%rbp)
	cmpl	$0, -28(%rbp)
	je	.LBB53_38
# %bb.33:
	cmpq	$0, -24(%rbp)
	je	.LBB53_35
# %bb.34:
	movl	-28(%rbp), %eax
	movq	-24(%rbp), %rcx
	movl	%eax, (%rcx)
.LBB53_35:
	cmpq	$0, -8(%rbp)
	je	.LBB53_37
# %bb.36:
	movl	-28(%rbp), %eax
	movq	-8(%rbp), %rcx
	movl	%eax, 5096(%rcx)
.LBB53_37:
	movq	-8(%rbp), %rdi
	callq	free
	movq	$0, -64(%rbp)
	jmp	.LBB53_39
.LBB53_38:
	movq	-8(%rbp), %rax
	movl	5004(%rax), %eax
	movq	-8(%rbp), %rcx
	movl	%eax, 5024(%rcx)
	movq	-8(%rbp), %rax
	addq	$4, %rax
	movq	-8(%rbp), %rcx
	movq	%rax, 5016(%rcx)
	movq	-8(%rbp), %rax
	movb	$1, 5100(%rax)
	movq	-8(%rbp), %rax
	movq	%rax, -64(%rbp)
.LBB53_39:
	movq	-64(%rbp), %rax
	addq	$64, %rsp
	popq	%rbp
	retq
.Lfunc_end53:
	.size	BZ2_bzReadOpen, .Lfunc_end53-BZ2_bzReadOpen
	.cfi_endproc
                                        # -- End function
	.globl	BZ2_bzReadClose         # -- Begin function BZ2_bzReadClose
	.p2align	4, 0x90
	.type	BZ2_bzReadClose,@function
BZ2_bzReadClose:                        # @BZ2_bzReadClose
	.cfi_startproc
# %bb.0:
	pushq	%rbp
	.cfi_def_cfa_offset 16
	.cfi_offset %rbp, -16
	movq	%rsp, %rbp
	.cfi_def_cfa_register %rbp
	subq	$32, %rsp
	movq	%rdi, -16(%rbp)
	movq	%rsi, -24(%rbp)
	movq	-24(%rbp), %rax
	movq	%rax, -8(%rbp)
	cmpq	$0, -16(%rbp)
	je	.LBB54_2
# %bb.1:
	movq	-16(%rbp), %rax
	movl	$0, (%rax)
.LBB54_2:
	cmpq	$0, -8(%rbp)
	je	.LBB54_4
# %bb.3:
	movq	-8(%rbp), %rax
	movl	$0, 5096(%rax)
.LBB54_4:
	cmpq	$0, -8(%rbp)
	jne	.LBB54_10
# %bb.5:
	cmpq	$0, -16(%rbp)
	je	.LBB54_7
# %bb.6:
	movq	-16(%rbp), %rax
	movl	$0, (%rax)
.LBB54_7:
	cmpq	$0, -8(%rbp)
	je	.LBB54_9
# %bb.8:
	movq	-8(%rbp), %rax
	movl	$0, 5096(%rax)
.LBB54_9:
	jmp	.LBB54_19
.LBB54_10:
	movq	-8(%rbp), %rax
	cmpb	$0, 5008(%rax)
	je	.LBB54_16
# %bb.11:
	cmpq	$0, -16(%rbp)
	je	.LBB54_13
# %bb.12:
	movq	-16(%rbp), %rax
	movl	$-1, (%rax)
.LBB54_13:
	cmpq	$0, -8(%rbp)
	je	.LBB54_15
# %bb.14:
	movq	-8(%rbp), %rax
	movl	$-1, 5096(%rax)
.LBB54_15:
	jmp	.LBB54_19
.LBB54_16:
	movq	-8(%rbp), %rax
	cmpb	$0, 5100(%rax)
	je	.LBB54_18
# %bb.17:
	movq	-8(%rbp), %rdi
	addq	$5016, %rdi             # imm = 0x1398
	callq	BZ2_bzDecompressEnd
.LBB54_18:
	movq	-8(%rbp), %rdi
	callq	free
.LBB54_19:
	addq	$32, %rsp
	popq	%rbp
	retq
.Lfunc_end54:
	.size	BZ2_bzReadClose, .Lfunc_end54-BZ2_bzReadClose
	.cfi_endproc
                                        # -- End function
	.globl	BZ2_bzRead              # -- Begin function BZ2_bzRead
	.p2align	4, 0x90
	.type	BZ2_bzRead,@function
BZ2_bzRead:                             # @BZ2_bzRead
	.cfi_startproc
# %bb.0:
	pushq	%rbp
	.cfi_def_cfa_offset 16
	.cfi_offset %rbp, -16
	movq	%rsp, %rbp
	.cfi_def_cfa_register %rbp
	subq	$48, %rsp
	movq	%rdi, -16(%rbp)
	movq	%rsi, -48(%rbp)
	movq	%rdx, -40(%rbp)
	movl	%ecx, -28(%rbp)
	movq	-48(%rbp), %rax
	movq	%rax, -8(%rbp)
	cmpq	$0, -16(%rbp)
	je	.LBB55_2
# %bb.1:
	movq	-16(%rbp), %rax
	movl	$0, (%rax)
.LBB55_2:
	cmpq	$0, -8(%rbp)
	je	.LBB55_4
# %bb.3:
	movq	-8(%rbp), %rax
	movl	$0, 5096(%rax)
.LBB55_4:
	cmpq	$0, -8(%rbp)
	je	.LBB55_7
# %bb.5:
	cmpq	$0, -40(%rbp)
	je	.LBB55_7
# %bb.6:
	cmpl	$0, -28(%rbp)
	jge	.LBB55_12
.LBB55_7:
	cmpq	$0, -16(%rbp)
	je	.LBB55_9
# %bb.8:
	movq	-16(%rbp), %rax
	movl	$-2, (%rax)
.LBB55_9:
	cmpq	$0, -8(%rbp)
	je	.LBB55_11
# %bb.10:
	movq	-8(%rbp), %rax
	movl	$-2, 5096(%rax)
.LBB55_11:
	movl	$0, -20(%rbp)
	jmp	.LBB55_57
.LBB55_12:
	movq	-8(%rbp), %rax
	cmpb	$0, 5008(%rax)
	je	.LBB55_18
# %bb.13:
	cmpq	$0, -16(%rbp)
	je	.LBB55_15
# %bb.14:
	movq	-16(%rbp), %rax
	movl	$-1, (%rax)
.LBB55_15:
	cmpq	$0, -8(%rbp)
	je	.LBB55_17
# %bb.16:
	movq	-8(%rbp), %rax
	movl	$-1, 5096(%rax)
.LBB55_17:
	movl	$0, -20(%rbp)
	jmp	.LBB55_57
.LBB55_18:
	cmpl	$0, -28(%rbp)
	jne	.LBB55_24
# %bb.19:
	cmpq	$0, -16(%rbp)
	je	.LBB55_21
# %bb.20:
	movq	-16(%rbp), %rax
	movl	$0, (%rax)
.LBB55_21:
	cmpq	$0, -8(%rbp)
	je	.LBB55_23
# %bb.22:
	movq	-8(%rbp), %rax
	movl	$0, 5096(%rax)
.LBB55_23:
	movl	$0, -20(%rbp)
	jmp	.LBB55_57
.LBB55_24:
	movl	-28(%rbp), %eax
	movq	-8(%rbp), %rcx
	movl	%eax, 5048(%rcx)
	movq	-40(%rbp), %rax
	movq	-8(%rbp), %rcx
	movq	%rax, 5040(%rcx)
.LBB55_25:                              # =>This Inner Loop Header: Depth=1
	movq	-8(%rbp), %rax
	cmpl	$0, 5024(%rax)
	jne	.LBB55_28
# %bb.26:                               #   in Loop: Header=BB55_25 Depth=1
	movq	-8(%rbp), %rax
	movl	(%rax), %edi
	callq	myfeof.39
	cmpb	$0, %al
	jne	.LBB55_28
# %bb.27:                               #   in Loop: Header=BB55_25 Depth=1
	movq	-8(%rbp), %rdi
	addq	$4, %rdi
	movq	-8(%rbp), %rax
	movl	(%rax), %ecx
	movl	$1, %esi
	movl	$5000, %edx             # imm = 0x1388
	callq	spec_fread
	movl	%eax, -32(%rbp)
	movl	-32(%rbp), %eax
	movq	-8(%rbp), %rcx
	movl	%eax, 5004(%rcx)
	movq	-8(%rbp), %rax
	movl	5004(%rax), %eax
	movq	-8(%rbp), %rcx
	movl	%eax, 5024(%rcx)
	movq	-8(%rbp), %rax
	addq	$4, %rax
	movq	-8(%rbp), %rcx
	movq	%rax, 5016(%rcx)
.LBB55_28:                              #   in Loop: Header=BB55_25 Depth=1
	movq	-8(%rbp), %rdi
	addq	$5016, %rdi             # imm = 0x1398
	callq	BZ2_bzDecompress
	movl	%eax, -24(%rbp)
	cmpl	$0, -24(%rbp)
	je	.LBB55_35
# %bb.29:                               #   in Loop: Header=BB55_25 Depth=1
	cmpl	$4, -24(%rbp)
	je	.LBB55_35
# %bb.30:
	cmpq	$0, -16(%rbp)
	je	.LBB55_32
# %bb.31:
	movl	-24(%rbp), %eax
	movq	-16(%rbp), %rcx
	movl	%eax, (%rcx)
.LBB55_32:
	cmpq	$0, -8(%rbp)
	je	.LBB55_34
# %bb.33:
	movl	-24(%rbp), %eax
	movq	-8(%rbp), %rcx
	movl	%eax, 5096(%rcx)
.LBB55_34:
	movl	$0, -20(%rbp)
	jmp	.LBB55_57
.LBB55_35:                              #   in Loop: Header=BB55_25 Depth=1
	cmpl	$0, -24(%rbp)
	jne	.LBB55_44
# %bb.36:                               #   in Loop: Header=BB55_25 Depth=1
	movq	-8(%rbp), %rax
	movl	(%rax), %edi
	callq	myfeof.39
	movzbl	%al, %eax
	cmpl	$0, %eax
	je	.LBB55_44
# %bb.37:                               #   in Loop: Header=BB55_25 Depth=1
	movq	-8(%rbp), %rax
	cmpl	$0, 5024(%rax)
	jne	.LBB55_44
# %bb.38:                               #   in Loop: Header=BB55_25 Depth=1
	movq	-8(%rbp), %rax
	cmpl	$0, 5048(%rax)
	jbe	.LBB55_44
# %bb.39:
	cmpq	$0, -16(%rbp)
	je	.LBB55_41
# %bb.40:
	movq	-16(%rbp), %rax
	movl	$-7, (%rax)
.LBB55_41:
	cmpq	$0, -8(%rbp)
	je	.LBB55_43
# %bb.42:
	movq	-8(%rbp), %rax
	movl	$-7, 5096(%rax)
.LBB55_43:
	movl	$0, -20(%rbp)
	jmp	.LBB55_57
.LBB55_44:                              #   in Loop: Header=BB55_25 Depth=1
	cmpl	$4, -24(%rbp)
	jne	.LBB55_50
# %bb.45:
	cmpq	$0, -16(%rbp)
	je	.LBB55_47
# %bb.46:
	movq	-16(%rbp), %rax
	movl	$4, (%rax)
.LBB55_47:
	cmpq	$0, -8(%rbp)
	je	.LBB55_49
# %bb.48:
	movq	-8(%rbp), %rax
	movl	$4, 5096(%rax)
.LBB55_49:
	movl	-28(%rbp), %eax
	movq	-8(%rbp), %rcx
	subl	5048(%rcx), %eax
	movl	%eax, -20(%rbp)
	jmp	.LBB55_57
.LBB55_50:                              #   in Loop: Header=BB55_25 Depth=1
	movq	-8(%rbp), %rax
	cmpl	$0, 5048(%rax)
	jne	.LBB55_56
# %bb.51:
	cmpq	$0, -16(%rbp)
	je	.LBB55_53
# %bb.52:
	movq	-16(%rbp), %rax
	movl	$0, (%rax)
.LBB55_53:
	cmpq	$0, -8(%rbp)
	je	.LBB55_55
# %bb.54:
	movq	-8(%rbp), %rax
	movl	$0, 5096(%rax)
.LBB55_55:
	movl	-28(%rbp), %eax
	movl	%eax, -20(%rbp)
	jmp	.LBB55_57
.LBB55_56:                              #   in Loop: Header=BB55_25 Depth=1
	jmp	.LBB55_25
.LBB55_57:
	movl	-20(%rbp), %eax
	addq	$48, %rsp
	popq	%rbp
	retq
.Lfunc_end55:
	.size	BZ2_bzRead, .Lfunc_end55-BZ2_bzRead
	.cfi_endproc
                                        # -- End function
	.p2align	4, 0x90         # -- Begin function myfeof.39
	.type	myfeof.39,@function
myfeof.39:                              # @myfeof.39
	.cfi_startproc
# %bb.0:
	pushq	%rbp
	.cfi_def_cfa_offset 16
	.cfi_offset %rbp, -16
	movq	%rsp, %rbp
	.cfi_def_cfa_register %rbp
	subq	$16, %rsp
	movl	%edi, -12(%rbp)
	movl	-12(%rbp), %edi
	callq	spec_getc
	movl	%eax, -8(%rbp)
	cmpl	$-1, -8(%rbp)
	jne	.LBB56_2
# %bb.1:
	movb	$1, -1(%rbp)
	jmp	.LBB56_3
.LBB56_2:
	movl	-8(%rbp), %eax
	movl	-12(%rbp), %esi
	movzbl	%al, %edi
	callq	spec_ungetc
	movb	$0, -1(%rbp)
.LBB56_3:
	movzbl	-1(%rbp), %eax
	addq	$16, %rsp
	popq	%rbp
	retq
.Lfunc_end56:
	.size	myfeof.39, .Lfunc_end56-myfeof.39
	.cfi_endproc
                                        # -- End function
	.globl	BZ2_bzReadGetUnused     # -- Begin function BZ2_bzReadGetUnused
	.p2align	4, 0x90
	.type	BZ2_bzReadGetUnused,@function
BZ2_bzReadGetUnused:                    # @BZ2_bzReadGetUnused
	.cfi_startproc
# %bb.0:
	pushq	%rbp
	.cfi_def_cfa_offset 16
	.cfi_offset %rbp, -16
	movq	%rsp, %rbp
	.cfi_def_cfa_register %rbp
	movq	%rdi, -16(%rbp)
	movq	%rsi, -40(%rbp)
	movq	%rdx, -32(%rbp)
	movq	%rcx, -24(%rbp)
	movq	-40(%rbp), %rax
	movq	%rax, -8(%rbp)
	cmpq	$0, -8(%rbp)
	jne	.LBB57_6
# %bb.1:
	cmpq	$0, -16(%rbp)
	je	.LBB57_3
# %bb.2:
	movq	-16(%rbp), %rax
	movl	$-2, (%rax)
.LBB57_3:
	cmpq	$0, -8(%rbp)
	je	.LBB57_5
# %bb.4:
	movq	-8(%rbp), %rax
	movl	$-2, 5096(%rax)
.LBB57_5:
	jmp	.LBB57_24
.LBB57_6:
	movq	-8(%rbp), %rax
	cmpl	$4, 5096(%rax)
	je	.LBB57_12
# %bb.7:
	cmpq	$0, -16(%rbp)
	je	.LBB57_9
# %bb.8:
	movq	-16(%rbp), %rax
	movl	$-1, (%rax)
.LBB57_9:
	cmpq	$0, -8(%rbp)
	je	.LBB57_11
# %bb.10:
	movq	-8(%rbp), %rax
	movl	$-1, 5096(%rax)
.LBB57_11:
	jmp	.LBB57_24
.LBB57_12:
	cmpq	$0, -32(%rbp)
	je	.LBB57_14
# %bb.13:
	cmpq	$0, -24(%rbp)
	jne	.LBB57_19
.LBB57_14:
	cmpq	$0, -16(%rbp)
	je	.LBB57_16
# %bb.15:
	movq	-16(%rbp), %rax
	movl	$-2, (%rax)
.LBB57_16:
	cmpq	$0, -8(%rbp)
	je	.LBB57_18
# %bb.17:
	movq	-8(%rbp), %rax
	movl	$-2, 5096(%rax)
.LBB57_18:
	jmp	.LBB57_24
.LBB57_19:
	cmpq	$0, -16(%rbp)
	je	.LBB57_21
# %bb.20:
	movq	-16(%rbp), %rax
	movl	$0, (%rax)
.LBB57_21:
	cmpq	$0, -8(%rbp)
	je	.LBB57_23
# %bb.22:
	movq	-8(%rbp), %rax
	movl	$0, 5096(%rax)
.LBB57_23:
	movq	-8(%rbp), %rax
	movl	5024(%rax), %eax
	movq	-24(%rbp), %rcx
	movl	%eax, (%rcx)
	movq	-8(%rbp), %rax
	movq	5016(%rax), %rax
	movq	-32(%rbp), %rcx
	movq	%rax, (%rcx)
.LBB57_24:
	popq	%rbp
	retq
.Lfunc_end57:
	.size	BZ2_bzReadGetUnused, .Lfunc_end57-BZ2_bzReadGetUnused
	.cfi_endproc
                                        # -- End function
	.globl	BZ2_bzBuffToBuffCompress # -- Begin function BZ2_bzBuffToBuffCompress
	.p2align	4, 0x90
	.type	BZ2_bzBuffToBuffCompress,@function
BZ2_bzBuffToBuffCompress:               # @BZ2_bzBuffToBuffCompress
	.cfi_startproc
# %bb.0:
	pushq	%rbp
	.cfi_def_cfa_offset 16
	.cfi_offset %rbp, -16
	movq	%rsp, %rbp
	.cfi_def_cfa_register %rbp
	subq	$128, %rsp
	movl	16(%rbp), %eax
	movq	%rdi, -48(%rbp)
	movq	%rsi, -24(%rbp)
	movq	%rdx, -40(%rbp)
	movl	%ecx, -28(%rbp)
	movl	%r8d, -16(%rbp)
	movl	%r9d, -12(%rbp)
	cmpq	$0, -48(%rbp)
	je	.LBB58_9
# %bb.1:
	cmpq	$0, -24(%rbp)
	je	.LBB58_9
# %bb.2:
	cmpq	$0, -40(%rbp)
	je	.LBB58_9
# %bb.3:
	cmpl	$1, -16(%rbp)
	jl	.LBB58_9
# %bb.4:
	cmpl	$9, -16(%rbp)
	jg	.LBB58_9
# %bb.5:
	cmpl	$0, -12(%rbp)
	jl	.LBB58_9
# %bb.6:
	cmpl	$4, -12(%rbp)
	jg	.LBB58_9
# %bb.7:
	cmpl	$0, 16(%rbp)
	jl	.LBB58_9
# %bb.8:
	cmpl	$250, 16(%rbp)
	jle	.LBB58_10
.LBB58_9:
	movl	$-2, -8(%rbp)
	jmp	.LBB58_21
.LBB58_10:
	cmpl	$0, 16(%rbp)
	jne	.LBB58_12
# %bb.11:
	movl	$30, 16(%rbp)
.LBB58_12:
	leaq	-128(%rbp), %rdi
	movq	$0, -72(%rbp)
	movq	$0, -64(%rbp)
	movq	$0, -56(%rbp)
	movl	-16(%rbp), %esi
	movl	-12(%rbp), %edx
	movl	16(%rbp), %ecx
	callq	BZ2_bzCompressInit
	movl	%eax, -4(%rbp)
	cmpl	$0, -4(%rbp)
	je	.LBB58_14
# %bb.13:
	movl	-4(%rbp), %eax
	movl	%eax, -8(%rbp)
	jmp	.LBB58_21
.LBB58_14:
	leaq	-128(%rbp), %rdi
	movq	-40(%rbp), %rax
	movq	%rax, -128(%rbp)
	movq	-48(%rbp), %rax
	movq	%rax, -104(%rbp)
	movl	-28(%rbp), %eax
	movl	%eax, -120(%rbp)
	movq	-24(%rbp), %rax
	movl	(%rax), %eax
	movl	%eax, -96(%rbp)
	movl	$2, %esi
	callq	BZ2_bzCompress
	movl	%eax, -4(%rbp)
	cmpl	$3, -4(%rbp)
	jne	.LBB58_16
# %bb.15:
	jmp	.LBB58_19
.LBB58_16:
	cmpl	$4, -4(%rbp)
	je	.LBB58_18
# %bb.17:
	jmp	.LBB58_20
.LBB58_18:
	leaq	-128(%rbp), %rdi
	movl	-96(%rbp), %eax
	movq	-24(%rbp), %rcx
	movl	(%rcx), %edx
	subl	%eax, %edx
	movl	%edx, (%rcx)
	callq	BZ2_bzCompressEnd
	movl	$0, -8(%rbp)
	jmp	.LBB58_21
.LBB58_19:
	leaq	-128(%rbp), %rdi
	callq	BZ2_bzCompressEnd
	movl	$-8, -8(%rbp)
	jmp	.LBB58_21
.LBB58_20:
	leaq	-128(%rbp), %rdi
	callq	BZ2_bzCompressEnd
	movl	-4(%rbp), %eax
	movl	%eax, -8(%rbp)
.LBB58_21:
	movl	-8(%rbp), %eax
	addq	$128, %rsp
	popq	%rbp
	retq
.Lfunc_end58:
	.size	BZ2_bzBuffToBuffCompress, .Lfunc_end58-BZ2_bzBuffToBuffCompress
	.cfi_endproc
                                        # -- End function
	.globl	BZ2_bzBuffToBuffDecompress # -- Begin function BZ2_bzBuffToBuffDecompress
	.p2align	4, 0x90
	.type	BZ2_bzBuffToBuffDecompress,@function
BZ2_bzBuffToBuffDecompress:             # @BZ2_bzBuffToBuffDecompress
	.cfi_startproc
# %bb.0:
	pushq	%rbp
	.cfi_def_cfa_offset 16
	.cfi_offset %rbp, -16
	movq	%rsp, %rbp
	.cfi_def_cfa_register %rbp
	subq	$128, %rsp
	movq	%rdi, -48(%rbp)
	movq	%rsi, -24(%rbp)
	movq	%rdx, -40(%rbp)
	movl	%ecx, -28(%rbp)
	movl	%r8d, -16(%rbp)
	movl	%r9d, -12(%rbp)
	cmpq	$0, -48(%rbp)
	je	.LBB59_7
# %bb.1:
	cmpq	$0, -24(%rbp)
	je	.LBB59_7
# %bb.2:
	cmpq	$0, -40(%rbp)
	je	.LBB59_7
# %bb.3:
	cmpl	$0, -16(%rbp)
	je	.LBB59_5
# %bb.4:
	cmpl	$1, -16(%rbp)
	jne	.LBB59_7
.LBB59_5:
	cmpl	$0, -12(%rbp)
	jl	.LBB59_7
# %bb.6:
	cmpl	$4, -12(%rbp)
	jle	.LBB59_8
.LBB59_7:
	movl	$-2, -8(%rbp)
	jmp	.LBB59_19
.LBB59_8:
	leaq	-128(%rbp), %rdi
	movq	$0, -72(%rbp)
	movq	$0, -64(%rbp)
	movq	$0, -56(%rbp)
	movl	-12(%rbp), %esi
	movl	-16(%rbp), %edx
	callq	BZ2_bzDecompressInit
	movl	%eax, -4(%rbp)
	cmpl	$0, -4(%rbp)
	je	.LBB59_10
# %bb.9:
	movl	-4(%rbp), %eax
	movl	%eax, -8(%rbp)
	jmp	.LBB59_19
.LBB59_10:
	leaq	-128(%rbp), %rdi
	movq	-40(%rbp), %rax
	movq	%rax, -128(%rbp)
	movq	-48(%rbp), %rax
	movq	%rax, -104(%rbp)
	movl	-28(%rbp), %eax
	movl	%eax, -120(%rbp)
	movq	-24(%rbp), %rax
	movl	(%rax), %eax
	movl	%eax, -96(%rbp)
	callq	BZ2_bzDecompress
	movl	%eax, -4(%rbp)
	cmpl	$0, -4(%rbp)
	jne	.LBB59_12
# %bb.11:
	jmp	.LBB59_15
.LBB59_12:
	cmpl	$4, -4(%rbp)
	je	.LBB59_14
# %bb.13:
	jmp	.LBB59_18
.LBB59_14:
	leaq	-128(%rbp), %rdi
	movl	-96(%rbp), %eax
	movq	-24(%rbp), %rcx
	movl	(%rcx), %edx
	subl	%eax, %edx
	movl	%edx, (%rcx)
	callq	BZ2_bzDecompressEnd
	movl	$0, -8(%rbp)
	jmp	.LBB59_19
.LBB59_15:
	cmpl	$0, -96(%rbp)
	jbe	.LBB59_17
# %bb.16:
	leaq	-128(%rbp), %rdi
	callq	BZ2_bzDecompressEnd
	movl	$-7, -8(%rbp)
	jmp	.LBB59_19
.LBB59_17:
	leaq	-128(%rbp), %rdi
	callq	BZ2_bzDecompressEnd
	movl	$-8, -8(%rbp)
	jmp	.LBB59_19
.LBB59_18:
	leaq	-128(%rbp), %rdi
	callq	BZ2_bzDecompressEnd
	movl	-4(%rbp), %eax
	movl	%eax, -8(%rbp)
.LBB59_19:
	movl	-8(%rbp), %eax
	addq	$128, %rsp
	popq	%rbp
	retq
.Lfunc_end59:
	.size	BZ2_bzBuffToBuffDecompress, .Lfunc_end59-BZ2_bzBuffToBuffDecompress
	.cfi_endproc
                                        # -- End function
	.globl	BZ2_bzopen              # -- Begin function BZ2_bzopen
	.p2align	4, 0x90
	.type	BZ2_bzopen,@function
BZ2_bzopen:                             # @BZ2_bzopen
	.cfi_startproc
# %bb.0:
	pushq	%rbp
	.cfi_def_cfa_offset 16
	.cfi_offset %rbp, -16
	movq	%rsp, %rbp
	.cfi_def_cfa_register %rbp
	subq	$16, %rsp
	movq	%rdi, -16(%rbp)
	movq	%rsi, -8(%rbp)
	movq	-16(%rbp), %rdi
	movq	-8(%rbp), %rdx
	movl	$4294967295, %esi       # imm = 0xFFFFFFFF
	xorl	%ecx, %ecx
	callq	bzopen_or_bzdopen
	addq	$16, %rsp
	popq	%rbp
	retq
.Lfunc_end60:
	.size	BZ2_bzopen, .Lfunc_end60-BZ2_bzopen
	.cfi_endproc
                                        # -- End function
	.p2align	4, 0x90         # -- Begin function bzopen_or_bzdopen
	.type	bzopen_or_bzdopen,@function
bzopen_or_bzdopen:                      # @bzopen_or_bzdopen
	.cfi_startproc
# %bb.0:
	pushq	%rbp
	.cfi_def_cfa_offset 16
	.cfi_offset %rbp, -16
	movq	%rsp, %rbp
	.cfi_def_cfa_register %rbp
	subq	$5088, %rsp             # imm = 0x13E0
	leaq	-82(%rbp), %rax
	movq	%rdi, -72(%rbp)
	movl	%esi, -88(%rbp)
	movq	%rdx, -24(%rbp)
	movl	%ecx, -64(%rbp)
	movl	$9, -8(%rbp)
	movl	$0, -12(%rbp)
	movq	%rax, %rdi
	xorl	%esi, %esi
	movl	$10, %edx
	callq	memset
	movl	$0, -4(%rbp)
	movq	$0, -40(%rbp)
	movl	$0, -32(%rbp)
	movl	$30, -56(%rbp)
	movl	$0, -28(%rbp)
	movl	$0, -52(%rbp)
	cmpq	$0, -24(%rbp)
	jne	.LBB61_2
# %bb.1:
	movq	$0, -48(%rbp)
	jmp	.LBB61_36
.LBB61_2:
	jmp	.LBB61_3
.LBB61_3:                               # =>This Inner Loop Header: Depth=1
	movq	-24(%rbp), %rax
	cmpb	$0, (%rax)
	je	.LBB61_14
# %bb.4:                                #   in Loop: Header=BB61_3 Depth=1
	movq	-24(%rbp), %rax
	movsbl	(%rax), %eax
	movl	%eax, %ecx
	subl	$114, %ecx
	je	.LBB61_7
	jmp	.LBB61_5
.LBB61_5:                               #   in Loop: Header=BB61_3 Depth=1
	movl	%eax, %ecx
	subl	$115, %ecx
	je	.LBB61_9
	jmp	.LBB61_6
.LBB61_6:                               #   in Loop: Header=BB61_3 Depth=1
	subl	$119, %eax
	je	.LBB61_8
	jmp	.LBB61_10
.LBB61_7:                               #   in Loop: Header=BB61_3 Depth=1
	movl	$0, -12(%rbp)
	jmp	.LBB61_13
.LBB61_8:                               #   in Loop: Header=BB61_3 Depth=1
	movl	$1, -12(%rbp)
	jmp	.LBB61_13
.LBB61_9:                               #   in Loop: Header=BB61_3 Depth=1
	movl	$1, -28(%rbp)
	jmp	.LBB61_13
.LBB61_10:                              #   in Loop: Header=BB61_3 Depth=1
	callq	__ctype_b_loc
	movq	(%rax), %rax
	movq	-24(%rbp), %rcx
	movsbl	(%rcx), %ecx
	movslq	%ecx, %rcx
	movzwl	(%rax,%rcx,2), %eax
	andl	$2048, %eax             # imm = 0x800
	cmpl	$0, %eax
	je	.LBB61_12
# %bb.11:                               #   in Loop: Header=BB61_3 Depth=1
	movq	-24(%rbp), %rax
	movsbl	(%rax), %eax
	subl	$48, %eax
	movl	%eax, -8(%rbp)
.LBB61_12:                              #   in Loop: Header=BB61_3 Depth=1
	jmp	.LBB61_13
.LBB61_13:                              #   in Loop: Header=BB61_3 Depth=1
	movq	-24(%rbp), %rax
	addq	$1, %rax
	movq	%rax, -24(%rbp)
	jmp	.LBB61_3
.LBB61_14:
	movabsq	$.L.str.7.43, %rsi
	movabsq	$.L.str.6.42, %rax
	leaq	-82(%rbp), %rdi
