	.text
	.file	"llvm-link"
	.globl	BZ2_blockSort           # -- Begin function BZ2_blockSort
	.p2align	4, 0x90
	.type	BZ2_blockSort,@function
BZ2_blockSort:                          # @BZ2_blockSort
	.cfi_startproc
# %bb.0:
	pushq	%rbp
	.cfi_def_cfa_offset 16
	.cfi_offset %rbp, -16
	movq	%rsp, %rbp
	.cfi_def_cfa_register %rbp
	pushq	%r15
	pushq	%r14
	pushq	%r13
	pushq	%r12
	pushq	%rbx
	subq	$24, %rsp
	.cfi_offset %rbx, -56
	.cfi_offset %r12, -48
	.cfi_offset %r13, -40
	.cfi_offset %r14, -32
	.cfi_offset %r15, -24
	movw	BasicBlockSignatureTracker, %ax
	movw	RunTimeSignatureAdjuster, %cx
	xorw	$-29683, %ax            # imm = 0x8C0D
	xorw	%cx, %ax
	cmpw	$2, %ax
	jne	.LBB0_56
# %bb.1:                                # %BZ2_blockSort.split153
	movq	%rsp, %r15
	addq	$-16, %r15
	movq	%r15, %rsp
	movq	%rsp, %rbx
	addq	$-16, %rbx
	movq	%rbx, %rsp
	movq	%rsp, %r10
	addq	$-16, %r10
	movq	%r10, %rsp
	movq	%rsp, %rcx
	addq	$-16, %rcx
	movq	%rcx, %rsp
	movq	%rsp, %r13
	addq	$-16, %r13
	movq	%r13, %rsp
	movq	%rsp, %r14
	addq	$-16, %r14
	movq	%r14, %rsp
	movq	%rsp, %rax
	addq	$-16, %rax
	movq	%rax, %rsp
	movq	%rsp, %r8
	addq	$-16, %r8
	movq	%r8, %rsp
	movq	%rsp, %r11
	addq	$-16, %r11
	movq	%r11, %rsp
	movq	%rsp, %r12
	addq	$-16, %r12
	movq	%r12, %rsp
	movq	%rsp, %r9
	addq	$-16, %r9
	movq	%r9, %rsp
	movq	%rdi, (%r15)
	movq	(%r15), %rdx
	movq	56(%rdx), %rdx
	movq	%rdx, (%rbx)
	movq	(%r15), %rdx
	movq	64(%rdx), %rdx
	movq	%rdx, (%r10)
	movq	(%r15), %rdx
	movq	40(%rdx), %rdx
	movq	%rdx, (%rcx)
	movq	(%r15), %rdx
	movl	108(%rdx), %edx
	movl	%edx, (%r13)
	movq	(%r15), %rdx
	movl	656(%rdx), %edx
	movl	%edx, (%r14)
	movq	(%r15), %rdx
	movl	88(%rdx), %edx
	movl	%edx, (%rax)
	movl	(%r13), %edx
	movw	$2, BasicBlockSignatureTracker
	movw	$0, RunTimeSignatureAdjuster
	cmpl	$10000, %edx            # imm = 0x2710
	jge	.LBB0_4
# %bb.2:
	movw	BasicBlockSignatureTracker, %ax
	xorw	$18, %ax
	cmpw	$16, %ax
	jne	.LBB0_56
# %bb.3:                                # %BZ2_blockSort.split
	movq	(%r15), %rax
	movq	24(%rax), %rdi
	movq	(%r15), %rax
	movq	32(%rax), %rsi
	movq	(%rcx), %rdx
	movl	(%r13), %ecx
	movl	(%r14), %r8d
	movw	$16, BasicBlockSignatureTracker
	movw	$0, RunTimeSignatureAdjuster
	movq	%r9, %r14
	callq	fallbackSort
	movq	%r14, %rsi
	movq	%rbx, %rdx
	movw	$16, BasicBlockSignatureTracker
	movw	$0, RunTimeSignatureAdjuster
	movw	$16, BasicBlockSignatureTracker
	movw	$0, RunTimeSignatureAdjuster
	jmp	.LBB0_36
.LBB0_4:
	movw	BasicBlockSignatureTracker, %dx
	xorw	$81, %dx
	cmpw	$83, %dx
	jne	.LBB0_56
# %bb.5:                                # %BZ2_blockSort.split103
	movl	(%r13), %edx
	addl	$34, %edx
	movl	%edx, (%r9)
	movl	(%r9), %edx
	andl	$1, %edx
	movw	$83, BasicBlockSignatureTracker
	movw	$0, RunTimeSignatureAdjuster
	cmpl	$0, %edx
	je	.LBB0_8
# %bb.6:
	movw	BasicBlockSignatureTracker, %dx
	xorw	$47, %dx
	cmpw	$124, %dx
	jne	.LBB0_56
# %bb.7:                                # %BZ2_blockSort.split107
	movl	(%r9), %edx
	addl	$1, %edx
	movl	%edx, (%r9)
	movw	$124, BasicBlockSignatureTracker
	movw	$47, RunTimeSignatureAdjuster
.LBB0_8:
	movw	BasicBlockSignatureTracker, %dx
	movw	RunTimeSignatureAdjuster, %si
	xorw	$216, %dx
	xorw	%si, %dx
	cmpw	$139, %dx
	jne	.LBB0_56
# %bb.9:                                # %BZ2_blockSort.split109
	movq	(%r10), %rdx
	movslq	(%r9), %rsi
	addq	%rsi, %rdx
	movq	%rdx, (%r8)
	movl	(%rax), %edx
	movw	$139, BasicBlockSignatureTracker
	movw	$0, RunTimeSignatureAdjuster
	cmpl	$1, %edx
	jge	.LBB0_12
# %bb.10:
	movw	BasicBlockSignatureTracker, %dx
	xorw	$21, %dx
	cmpw	$158, %dx
	jne	.LBB0_56
# %bb.11:                               # %BZ2_blockSort.split111
	movl	$1, (%rax)
	movw	$158, BasicBlockSignatureTracker
	movw	$21, RunTimeSignatureAdjuster
.LBB0_12:
	movw	BasicBlockSignatureTracker, %dx
	movw	RunTimeSignatureAdjuster, %si
	xorw	$79, %dx
	xorw	%si, %dx
	cmpw	$196, %dx
	jne	.LBB0_56
# %bb.13:                               # %BZ2_blockSort.split113
	movl	(%rax), %edx
	movw	$196, BasicBlockSignatureTracker
	movw	$0, RunTimeSignatureAdjuster
	cmpl	$100, %edx
	jle	.LBB0_16
# %bb.14:
	movw	BasicBlockSignatureTracker, %dx
	xorw	$34, %dx
	cmpw	$230, %dx
	jne	.LBB0_56
# %bb.15:                               # %BZ2_blockSort.split115
	movl	$100, (%rax)
	movw	$230, BasicBlockSignatureTracker
	movw	$34, RunTimeSignatureAdjuster
.LBB0_16:
	movw	BasicBlockSignatureTracker, %dx
	movw	RunTimeSignatureAdjuster, %si
	xorw	$41, %dx
	xorw	%si, %dx
	cmpw	$237, %dx
	jne	.LBB0_56
# %bb.17:                               # %BZ2_blockSort.split117
	movq	%r9, -56(%rbp)          # 8-byte Spill
	movl	$3, %esi
	movl	(%r13), %edi
	movl	(%rax), %eax
	subl	$1, %eax
	cltd
	idivl	%esi
	imull	%eax, %edi
	movl	%edi, (%r12)
	movl	(%r12), %eax
	movl	%eax, (%r11)
	movq	%rbx, -64(%rbp)         # 8-byte Spill
	movq	(%rbx), %rdi
	movq	(%r10), %rsi
	movq	(%r8), %rdx
	movq	%rcx, -48(%rbp)         # 8-byte Spill
	movq	(%rcx), %rcx
	movl	(%r13), %r8d
	movl	(%r14), %r9d
	movw	$237, BasicBlockSignatureTracker
	movw	$0, RunTimeSignatureAdjuster
	subq	$16, %rsp
	movq	%r11, %rbx
	movq	%r11, (%rsp)
	callq	mainSort
	addq	$16, %rsp
	movw	$237, BasicBlockSignatureTracker
	movw	$0, RunTimeSignatureAdjuster
	movl	(%r14), %eax
	movw	$237, BasicBlockSignatureTracker
	movw	$0, RunTimeSignatureAdjuster
	cmpl	$3, %eax
	jl	.LBB0_26
# %bb.18:
	movw	BasicBlockSignatureTracker, %ax
	xorw	$508, %ax               # imm = 0x1FC
	cmpw	$273, %ax               # imm = 0x111
	movq	%rbx, %rsi
	jne	.LBB0_56
# %bb.19:                               # %BZ2_blockSort.split119
	movq	stderr, %rdi
	movl	(%r12), %edx
	subl	(%rsi), %edx
	movl	(%r13), %ecx
	movl	(%r12), %eax
	subl	(%rsi), %eax
	cvtsi2ssl	%eax, %xmm0
	movl	(%r13), %eax
	movw	$273, BasicBlockSignatureTracker # imm = 0x111
	movw	$0, RunTimeSignatureAdjuster
	cmpl	$0, %eax
	jne	.LBB0_22
# %bb.20:
	movw	BasicBlockSignatureTracker, %ax
	xorw	$5, %ax
	cmpw	$276, %ax               # imm = 0x114
	jne	.LBB0_56
# %bb.21:                               # %BZ2_blockSort.split123
	movl	$1, %r8d
	movw	$276, BasicBlockSignatureTracker # imm = 0x114
	movw	$0, RunTimeSignatureAdjuster
	jmp	.LBB0_24
.LBB0_22:
	movw	BasicBlockSignatureTracker, %ax
	xorw	$8, %ax
	cmpw	$281, %ax               # imm = 0x119
	jne	.LBB0_56
# %bb.23:                               # %BZ2_blockSort.split125
	movl	(%r13), %r8d
	movw	$281, BasicBlockSignatureTracker # imm = 0x119
	movw	$13, RunTimeSignatureAdjuster
.LBB0_24:
	movw	BasicBlockSignatureTracker, %si
	movw	RunTimeSignatureAdjuster, %ax
	xorw	$8, %si
	xorw	%ax, %si
	cmpw	$284, %si               # imm = 0x11C
	jne	.LBB0_56
# %bb.25:                               # %BZ2_blockSort.split127
	movabsq	$.L.str, %rsi
	cvtsi2ssl	%r8d, %xmm1
	divss	%xmm1, %xmm0
	cvtss2sd	%xmm0, %xmm0
	movb	$1, %al
	callq	fprintf
	movw	$284, BasicBlockSignatureTracker # imm = 0x11C
	movw	$497, RunTimeSignatureAdjuster # imm = 0x1F1
.LBB0_26:
	movw	BasicBlockSignatureTracker, %ax
	movw	RunTimeSignatureAdjuster, %cx
	xorw	$461, %ax               # imm = 0x1CD
	xorw	%cx, %ax
	cmpw	$288, %ax               # imm = 0x120
	movq	-64(%rbp), %rdx         # 8-byte Reload
	movq	-56(%rbp), %rsi         # 8-byte Reload
	movq	-48(%rbp), %rcx         # 8-byte Reload
	jne	.LBB0_56
# %bb.27:                               # %BZ2_blockSort.split121
	movl	(%rbx), %eax
	movw	$288, BasicBlockSignatureTracker # imm = 0x120
	movw	$0, RunTimeSignatureAdjuster
	cmpl	$0, %eax
	jge	.LBB0_34
# %bb.28:
	movw	BasicBlockSignatureTracker, %ax
	xorw	$2, %ax
	cmpw	$290, %ax               # imm = 0x122
	jne	.LBB0_56
# %bb.29:                               # %BZ2_blockSort.split129
	movl	(%r14), %eax
	movw	$290, BasicBlockSignatureTracker # imm = 0x122
	movw	$0, RunTimeSignatureAdjuster
	cmpl	$2, %eax
	jl	.LBB0_32
# %bb.30:
	movw	BasicBlockSignatureTracker, %ax
	xorw	$24, %ax
	cmpw	$314, %ax               # imm = 0x13A
	jne	.LBB0_56
# %bb.31:                               # %BZ2_blockSort.split133
	movabsq	$.L.str.1, %rsi
	movq	stderr, %rdi
	movb	$0, %al
	callq	fprintf
	movq	-48(%rbp), %rcx         # 8-byte Reload
	movw	$314, BasicBlockSignatureTracker # imm = 0x13A
	movw	$24, RunTimeSignatureAdjuster
.LBB0_32:
	movw	BasicBlockSignatureTracker, %ax
	movw	RunTimeSignatureAdjuster, %dx
	xorw	$126, %ax
	xorw	%dx, %ax
	cmpw	$348, %ax               # imm = 0x15C
	jne	.LBB0_56
# %bb.33:                               # %BZ2_blockSort.split135
	movq	(%r15), %rax
	movq	24(%rax), %rdi
	movq	(%r15), %rax
	movq	32(%rax), %rsi
	movq	(%rcx), %rdx
	movl	(%r13), %ecx
	movl	(%r14), %r8d
	movw	$348, BasicBlockSignatureTracker # imm = 0x15C
	movw	$332, RunTimeSignatureAdjuster # imm = 0x14C
	callq	fallbackSort
	movq	-56(%rbp), %rsi         # 8-byte Reload
	movq	-64(%rbp), %rdx         # 8-byte Reload
	movw	$348, BasicBlockSignatureTracker # imm = 0x15C
	movw	$332, RunTimeSignatureAdjuster # imm = 0x14C
	movw	$348, BasicBlockSignatureTracker # imm = 0x15C
	movw	$124, RunTimeSignatureAdjuster
.LBB0_34:
	movw	BasicBlockSignatureTracker, %ax
	movw	RunTimeSignatureAdjuster, %cx
	xorw	$79, %ax
	xorw	%cx, %ax
	cmpw	$367, %ax               # imm = 0x16F
	jne	.LBB0_56
# %bb.35:                               # %BZ2_blockSort.split131
	movw	$367, BasicBlockSignatureTracker # imm = 0x16F
	movw	$383, RunTimeSignatureAdjuster # imm = 0x17F
.LBB0_36:
	movw	BasicBlockSignatureTracker, %ax
	movw	RunTimeSignatureAdjuster, %cx
	xorw	$433, %ax               # imm = 0x1B1
	xorw	%cx, %ax
	cmpw	$417, %ax               # imm = 0x1A1
	jne	.LBB0_56
# %bb.37:                               # %BZ2_blockSort.split105
	movq	(%r15), %rax
	movl	$-1, 48(%rax)
	movl	$0, (%rsi)
	movw	$417, BasicBlockSignatureTracker # imm = 0x1A1
	movw	$0, RunTimeSignatureAdjuster
.LBB0_38:                               # =>This Inner Loop Header: Depth=1
	movw	BasicBlockSignatureTracker, %ax
	movw	RunTimeSignatureAdjuster, %cx
	xorw	$14, %ax
	xorw	%cx, %ax
	cmpw	$431, %ax               # imm = 0x1AF
	jne	.LBB0_55
# %bb.39:                               # %BZ2_blockSort.split137
                                        #   in Loop: Header=BB0_38 Depth=1
	movl	(%rsi), %eax
	movq	(%r15), %rcx
	movl	108(%rcx), %ecx
	movw	$431, BasicBlockSignatureTracker # imm = 0x1AF
	movw	$0, RunTimeSignatureAdjuster
	cmpl	%ecx, %eax
	jge	.LBB0_48
# %bb.40:                               #   in Loop: Header=BB0_38 Depth=1
	movw	BasicBlockSignatureTracker, %ax
	xorw	$104, %ax
	cmpw	$455, %ax               # imm = 0x1C7
	jne	.LBB0_55
# %bb.41:                               # %BZ2_blockSort.split139
                                        #   in Loop: Header=BB0_38 Depth=1
	movq	(%rdx), %rax
	movslq	(%rsi), %rcx
	movl	(%rax,%rcx,4), %eax
	movw	$455, BasicBlockSignatureTracker # imm = 0x1C7
	movw	$0, RunTimeSignatureAdjuster
	cmpl	$0, %eax
	jne	.LBB0_44
# %bb.42:
	movw	BasicBlockSignatureTracker, %ax
	xorw	$36, %ax
	cmpw	$483, %ax               # imm = 0x1E3
	jne	.LBB0_56
# %bb.43:                               # %BZ2_blockSort.split143
	movl	(%rsi), %eax
	movq	(%r15), %rcx
	movl	%eax, 48(%rcx)
	movw	$483, BasicBlockSignatureTracker # imm = 0x1E3
	movw	$76, RunTimeSignatureAdjuster
	jmp	.LBB0_49
.LBB0_44:                               #   in Loop: Header=BB0_38 Depth=1
	movw	BasicBlockSignatureTracker, %ax
	xorw	$56, %ax
	cmpw	$511, %ax               # imm = 0x1FF
	jne	.LBB0_55
# %bb.45:                               # %BZ2_blockSort.split145
                                        #   in Loop: Header=BB0_38 Depth=1
	movw	$511, BasicBlockSignatureTracker # imm = 0x1FF
	movw	$0, RunTimeSignatureAdjuster
# %bb.46:                               #   in Loop: Header=BB0_38 Depth=1
	movw	BasicBlockSignatureTracker, %ax
	xorw	$989, %ax               # imm = 0x3DD
	cmpw	$546, %ax               # imm = 0x222
	jne	.LBB0_55
# %bb.47:                               # %BZ2_blockSort.split147
                                        #   in Loop: Header=BB0_38 Depth=1
	movl	(%rsi), %eax
	addl	$1, %eax
	movl	%eax, (%rsi)
	movw	$546, BasicBlockSignatureTracker # imm = 0x222
	movw	$899, RunTimeSignatureAdjuster # imm = 0x383
	jmp	.LBB0_38
.LBB0_48:                               # %.loopexit
	jmp	.LBB0_49
.LBB0_49:
	movw	BasicBlockSignatureTracker, %ax
	movw	RunTimeSignatureAdjuster, %cx
	xorw	$903, %ax               # imm = 0x387
	xorw	%cx, %ax
	cmpw	$552, %ax               # imm = 0x228
	jne	.LBB0_56
# %bb.50:                               # %BZ2_blockSort.split141
	movq	(%r15), %rax
	movl	48(%rax), %eax
	movw	$552, BasicBlockSignatureTracker # imm = 0x228
	movw	$0, RunTimeSignatureAdjuster
	cmpl	$-1, %eax
	jne	.LBB0_53
# %bb.51:
	movw	BasicBlockSignatureTracker, %ax
	xorw	$111, %ax
	cmpw	$583, %ax               # imm = 0x247
	jne	.LBB0_56
# %bb.52:                               # %BZ2_blockSort.split151
	movw	$583, BasicBlockSignatureTracker # imm = 0x247
	movw	$0, RunTimeSignatureAdjuster
	movl	$1003, %edi             # imm = 0x3EB
	callq	BZ2_bz__AssertH__fail
	movw	$583, BasicBlockSignatureTracker # imm = 0x247
	movw	$111, RunTimeSignatureAdjuster
	movw	$583, BasicBlockSignatureTracker # imm = 0x247
	movw	$111, RunTimeSignatureAdjuster
.LBB0_53:
	movw	BasicBlockSignatureTracker, %ax
	movw	RunTimeSignatureAdjuster, %cx
	xorw	$100, %ax
	xorw	%cx, %ax
	cmpw	$588, %ax               # imm = 0x24C
	jne	.LBB0_56
# %bb.54:                               # %BZ2_blockSort.split149
	movw	$588, BasicBlockSignatureTracker # imm = 0x24C
	movw	$-30433, RunTimeSignatureAdjuster # imm = 0x891F
	leaq	-40(%rbp), %rsp
	popq	%rbx
	popq	%r12
	popq	%r13
	popq	%r14
	popq	%r15
	popq	%rbp
	retq
.LBB0_55:                               # %CFerrorHandler.BZ2_blockSort.loopexit
	jmp	.LBB0_56
.LBB0_56:                               # %CFerrorHandler.BZ2_blockSort
	callq	FAULT_DETECTED_CFC
.Lfunc_end0:
	.size	BZ2_blockSort, .Lfunc_end0-BZ2_blockSort
	.cfi_endproc
                                        # -- End function
	.p2align	4, 0x90         # -- Begin function fallbackSort
	.type	fallbackSort,@function
fallbackSort:                           # @fallbackSort
	.cfi_startproc
# %bb.0:
	pushq	%rbp
	.cfi_def_cfa_offset 16
	.cfi_offset %rbp, -16
	movq	%rsp, %rbp
	.cfi_def_cfa_register %rbp
	pushq	%r15
	pushq	%r14
	pushq	%r13
	pushq	%r12
	pushq	%rbx
	subq	$104, %rsp
	.cfi_offset %rbx, -56
	.cfi_offset %r12, -48
	.cfi_offset %r13, -40
	.cfi_offset %r14, -32
	.cfi_offset %r15, -24
	movw	BasicBlockSignatureTracker, %ax
	movw	RunTimeSignatureAdjuster, %bx
	xorw	$628, %ax               # imm = 0x274
	xorw	%bx, %ax
	cmpw	$612, %ax               # imm = 0x264
	jne	.LBB1_229
# %bb.1:                                # %fallbackSort.split389
	movw	BasicBlockSignatureTracker, %ax
	movw	RunTimeSignatureAdjuster, %bx
	xorw	$628, %ax               # imm = 0x274
	xorw	%bx, %ax
	cmpw	$612, %ax               # imm = 0x264
	jne	.LBB1_229
# %bb.2:                                # %fallbackSort.split
	movq	%rsp, %r12
	addq	$-16, %r12
	movq	%r12, %rsp
	movq	%rsp, %r13
	addq	$-16, %r13
	movq	%r13, %rsp
	movq	%rsp, %rax
	addq	$-16, %rax
	movq	%rax, %rsp
	movq	%rsp, %rbx
	addq	$-16, %rbx
	movq	%rbx, %rsp
	movq	%rsp, %r15
	addq	$-16, %r15
	movq	%r15, %rsp
	movq	%rsp, %r9
	addq	$-1040, %r9             # imm = 0xFBF0
	movq	%r9, -80(%rbp)          # 8-byte Spill
	movq	%r9, %rsp
	movq	%rsp, %r9
	addq	$-1024, %r9             # imm = 0xFC00
	movq	%r9, %rsp
	movq	%rsp, %r10
	addq	$-16, %r10
	movq	%r10, -120(%rbp)        # 8-byte Spill
	movq	%r10, %rsp
	movq	%rsp, %r11
	addq	$-16, %r11
	movq	%r11, %rsp
	movq	%rsp, %r10
	addq	$-16, %r10
	movq	%r10, %rsp
	movq	%rsp, %r14
	addq	$-16, %r14
	movq	%r14, -48(%rbp)         # 8-byte Spill
	movq	%r14, %rsp
	movq	%rsp, %r14
	addq	$-16, %r14
	movq	%r14, -112(%rbp)        # 8-byte Spill
	movq	%r14, %rsp
	movq	%rsp, %r14
	addq	$-16, %r14
	movq	%r14, -72(%rbp)         # 8-byte Spill
	movq	%r14, %rsp
	movq	%rsp, %r14
	addq	$-16, %r14
	movq	%r14, -128(%rbp)        # 8-byte Spill
	movq	%r14, %rsp
	movq	%rsp, %r14
	addq	$-16, %r14
	movq	%r14, -136(%rbp)        # 8-byte Spill
	movq	%r14, %rsp
	movq	%rsp, %r14
	addq	$-16, %r14
	movq	%r14, -104(%rbp)        # 8-byte Spill
	movq	%r14, %rsp
	movq	%rsp, %r14
	addq	$-16, %r14
	movq	%r14, -144(%rbp)        # 8-byte Spill
	movq	%r14, %rsp
	movq	%rsp, %r14
	addq	$-16, %r14
	movq	%r14, %rsp
	movq	%r12, -88(%rbp)         # 8-byte Spill
	movq	%rdi, (%r12)
	movq	%rsi, (%r13)
	movq	%rax, -56(%rbp)         # 8-byte Spill
	movq	%rdx, (%rax)
	movl	%ecx, (%rbx)
	movl	%r8d, (%r15)
	movq	(%r13), %rax
	movq	%rax, (%r14)
	movl	(%r15), %eax
	movw	$612, BasicBlockSignatureTracker # imm = 0x264
	movw	$0, RunTimeSignatureAdjuster
	cmpl	$4, %eax
	jl	.LBB1_5
# %bb.3:
	movw	BasicBlockSignatureTracker, %ax
	xorw	$200, %ax
	cmpw	$684, %ax               # imm = 0x2AC
	jne	.LBB1_229
# %bb.4:                                # %fallbackSort.split391
	movabsq	$.L.str.2, %rsi
	movq	stderr, %rdi
	movb	$0, %al
	movq	%r9, %r12
	movq	%r13, -96(%rbp)         # 8-byte Spill
	movq	%r10, %r13
	movq	%r15, -64(%rbp)         # 8-byte Spill
	movq	%r14, %r15
	movq	%r11, %r14
	callq	fprintf
	movq	%r14, %r11
	movq	%r15, %r14
	movq	-64(%rbp), %r15         # 8-byte Reload
	movq	%r13, %r10
	movq	-96(%rbp), %r13         # 8-byte Reload
	movq	%r12, %r9
	movw	$684, BasicBlockSignatureTracker # imm = 0x2AC
	movw	$200, RunTimeSignatureAdjuster
.LBB1_5:
	movw	BasicBlockSignatureTracker, %ax
	movw	RunTimeSignatureAdjuster, %cx
	xorw	$208, %ax
	xorw	%cx, %ax
	cmpw	$692, %ax               # imm = 0x2B4
	jne	.LBB1_229
# %bb.6:                                # %fallbackSort.split393
	movl	$0, (%r11)
	movw	$692, BasicBlockSignatureTracker # imm = 0x2B4
	movw	$0, RunTimeSignatureAdjuster
.LBB1_7:                                # =>This Inner Loop Header: Depth=1
	movw	BasicBlockSignatureTracker, %ax
	movw	RunTimeSignatureAdjuster, %cx
	xorw	$10, %ax
	xorw	%cx, %ax
	cmpw	$702, %ax               # imm = 0x2BE
	jne	.LBB1_228
# %bb.8:                                # %fallbackSort.split395
                                        #   in Loop: Header=BB1_7 Depth=1
	movl	(%r11), %eax
	movw	$702, BasicBlockSignatureTracker # imm = 0x2BE
	movw	$0, RunTimeSignatureAdjuster
	cmpl	$257, %eax              # imm = 0x101
	jge	.LBB1_13
# %bb.9:                                #   in Loop: Header=BB1_7 Depth=1
	movw	BasicBlockSignatureTracker, %ax
	xorw	$109, %ax
	cmpw	$723, %ax               # imm = 0x2D3
	jne	.LBB1_228
# %bb.10:                               # %fallbackSort.split397
                                        #   in Loop: Header=BB1_7 Depth=1
	movslq	(%r11), %rax
	movq	-80(%rbp), %rcx         # 8-byte Reload
	movl	$0, (%rcx,%rax,4)
	movw	$723, BasicBlockSignatureTracker # imm = 0x2D3
	movw	$0, RunTimeSignatureAdjuster
# %bb.11:                               #   in Loop: Header=BB1_7 Depth=1
	movw	BasicBlockSignatureTracker, %ax
	xorw	$59, %ax
	cmpw	$744, %ax               # imm = 0x2E8
	jne	.LBB1_228
# %bb.12:                               # %fallbackSort.split401
                                        #   in Loop: Header=BB1_7 Depth=1
	movl	(%r11), %eax
	addl	$1, %eax
	movl	%eax, (%r11)
	movw	$744, BasicBlockSignatureTracker # imm = 0x2E8
	movw	$92, RunTimeSignatureAdjuster
	jmp	.LBB1_7
.LBB1_13:
	movw	BasicBlockSignatureTracker, %ax
	xorw	$479, %ax               # imm = 0x1DF
	cmpw	$865, %ax               # imm = 0x361
	jne	.LBB1_229
# %bb.14:                               # %fallbackSort.split399
	movl	$0, (%r11)
	movw	$865, BasicBlockSignatureTracker # imm = 0x361
	movw	$0, RunTimeSignatureAdjuster
.LBB1_15:                               # =>This Inner Loop Header: Depth=1
	movw	BasicBlockSignatureTracker, %ax
	movw	RunTimeSignatureAdjuster, %cx
	xorw	$231, %ax
	xorw	%cx, %ax
	cmpw	$902, %ax               # imm = 0x386
	jne	.LBB1_227
# %bb.16:                               # %fallbackSort.split403
                                        #   in Loop: Header=BB1_15 Depth=1
	movl	(%r11), %eax
	movl	(%rbx), %ecx
	movw	$902, BasicBlockSignatureTracker # imm = 0x386
	movw	$0, RunTimeSignatureAdjuster
	cmpl	%ecx, %eax
	jge	.LBB1_21
# %bb.17:                               #   in Loop: Header=BB1_15 Depth=1
	movw	BasicBlockSignatureTracker, %ax
	xorw	$39, %ax
	cmpw	$929, %ax               # imm = 0x3A1
	jne	.LBB1_227
# %bb.18:                               # %fallbackSort.split405
                                        #   in Loop: Header=BB1_15 Depth=1
	movq	(%r14), %rax
	movslq	(%r11), %rcx
	movzbl	(%rax,%rcx), %eax
	movq	-80(%rbp), %rdx         # 8-byte Reload
	movl	(%rdx,%rax,4), %ecx
	addl	$1, %ecx
	movl	%ecx, (%rdx,%rax,4)
	movw	$929, BasicBlockSignatureTracker # imm = 0x3A1
	movw	$0, RunTimeSignatureAdjuster
# %bb.19:                               #   in Loop: Header=BB1_15 Depth=1
	movw	BasicBlockSignatureTracker, %ax
	xorw	$10, %ax
	cmpw	$939, %ax               # imm = 0x3AB
	jne	.LBB1_227
# %bb.20:                               # %fallbackSort.split409
                                        #   in Loop: Header=BB1_15 Depth=1
	movl	(%r11), %eax
	addl	$1, %eax
	movl	%eax, (%r11)
	movw	$939, BasicBlockSignatureTracker # imm = 0x3AB
	movw	$202, RunTimeSignatureAdjuster
	jmp	.LBB1_15
.LBB1_21:
	movw	BasicBlockSignatureTracker, %ax
	xorw	$60, %ax
	cmpw	$954, %ax               # imm = 0x3BA
	jne	.LBB1_229
# %bb.22:                               # %fallbackSort.split407
	movl	$0, (%r11)
	movw	$954, BasicBlockSignatureTracker # imm = 0x3BA
	movw	$0, RunTimeSignatureAdjuster
.LBB1_23:                               # =>This Inner Loop Header: Depth=1
	movw	BasicBlockSignatureTracker, %ax
	movw	RunTimeSignatureAdjuster, %cx
	xorw	$69, %ax
	xorw	%cx, %ax
	cmpw	$1023, %ax              # imm = 0x3FF
	jne	.LBB1_226
# %bb.24:                               # %fallbackSort.split411
                                        #   in Loop: Header=BB1_23 Depth=1
	movl	(%r11), %eax
	movw	$1023, BasicBlockSignatureTracker # imm = 0x3FF
	movw	$0, RunTimeSignatureAdjuster
	cmpl	$256, %eax              # imm = 0x100
	jge	.LBB1_29
# %bb.25:                               #   in Loop: Header=BB1_23 Depth=1
	movw	BasicBlockSignatureTracker, %ax
	xorw	$2046, %ax              # imm = 0x7FE
	cmpw	$1025, %ax              # imm = 0x401
	jne	.LBB1_226
# %bb.26:                               # %fallbackSort.split413
                                        #   in Loop: Header=BB1_23 Depth=1
	movslq	(%r11), %rax
	movq	-80(%rbp), %rcx         # 8-byte Reload
	movl	(%rcx,%rax,4), %eax
	movslq	(%r11), %rcx
	movl	%eax, (%r9,%rcx,4)
	movw	$1025, BasicBlockSignatureTracker # imm = 0x401
	movw	$0, RunTimeSignatureAdjuster
# %bb.27:                               #   in Loop: Header=BB1_23 Depth=1
	movw	BasicBlockSignatureTracker, %ax
	xorw	$18, %ax
	cmpw	$1043, %ax              # imm = 0x413
	jne	.LBB1_226
# %bb.28:                               # %fallbackSort.split417
                                        #   in Loop: Header=BB1_23 Depth=1
	movl	(%r11), %eax
	addl	$1, %eax
	movl	%eax, (%r11)
	movw	$1043, BasicBlockSignatureTracker # imm = 0x413
	movw	$1961, RunTimeSignatureAdjuster # imm = 0x7A9
	jmp	.LBB1_23
.LBB1_29:
	movw	BasicBlockSignatureTracker, %ax
	xorw	$1980, %ax              # imm = 0x7BC
	cmpw	$1091, %ax              # imm = 0x443
	jne	.LBB1_229
# %bb.30:                               # %fallbackSort.split415
	movl	$1, (%r11)
	movw	$1091, BasicBlockSignatureTracker # imm = 0x443
	movw	$0, RunTimeSignatureAdjuster
.LBB1_31:                               # =>This Inner Loop Header: Depth=1
	movw	BasicBlockSignatureTracker, %ax
	movw	RunTimeSignatureAdjuster, %cx
	xorw	$5, %ax
	xorw	%cx, %ax
	cmpw	$1094, %ax              # imm = 0x446
	jne	.LBB1_225
# %bb.32:                               # %fallbackSort.split419
                                        #   in Loop: Header=BB1_31 Depth=1
	movl	(%r11), %eax
	movw	$1094, BasicBlockSignatureTracker # imm = 0x446
	movw	$0, RunTimeSignatureAdjuster
	cmpl	$257, %eax              # imm = 0x101
	jge	.LBB1_37
# %bb.33:                               #   in Loop: Header=BB1_31 Depth=1
	movw	BasicBlockSignatureTracker, %ax
	xorw	$24, %ax
	cmpw	$1118, %ax              # imm = 0x45E
	jne	.LBB1_225
# %bb.34:                               # %fallbackSort.split421
                                        #   in Loop: Header=BB1_31 Depth=1
	movl	(%r11), %eax
	subl	$1, %eax
	cltq
	movq	-80(%rbp), %rsi         # 8-byte Reload
	movl	(%rsi,%rax,4), %eax
	movq	%r11, %rdx
	movslq	(%r11), %rcx
	addl	(%rsi,%rcx,4), %eax
	movl	%eax, (%rsi,%rcx,4)
	movw	$1118, BasicBlockSignatureTracker # imm = 0x45E
	movw	$0, RunTimeSignatureAdjuster
# %bb.35:                               #   in Loop: Header=BB1_31 Depth=1
	movw	BasicBlockSignatureTracker, %ax
	xorw	$217, %ax
	cmpw	$1159, %ax              # imm = 0x487
	movq	%rdx, %r11
	jne	.LBB1_225
# %bb.36:                               # %fallbackSort.split425
                                        #   in Loop: Header=BB1_31 Depth=1
	movl	(%r11), %eax
	addl	$1, %eax
	movl	%eax, (%r11)
	movw	$1159, BasicBlockSignatureTracker # imm = 0x487
	movw	$196, RunTimeSignatureAdjuster
	jmp	.LBB1_31
.LBB1_37:
	movw	BasicBlockSignatureTracker, %ax
	xorw	$220, %ax
	cmpw	$1178, %ax              # imm = 0x49A
	jne	.LBB1_229
# %bb.38:                               # %fallbackSort.split423
	movq	%r10, %r12
	movq	%r9, -96(%rbp)          # 8-byte Spill
	movq	%rbx, -64(%rbp)         # 8-byte Spill
	movq	%r11, %rbx
	movl	$0, (%r11)
	movw	$1178, BasicBlockSignatureTracker # imm = 0x49A
	movw	$0, RunTimeSignatureAdjuster
.LBB1_39:                               # =>This Inner Loop Header: Depth=1
	movw	BasicBlockSignatureTracker, %ax
	movw	RunTimeSignatureAdjuster, %cx
	xorw	$60, %ax
	xorw	%cx, %ax
	cmpw	$1190, %ax              # imm = 0x4A6
	jne	.LBB1_224
# %bb.40:                               # %fallbackSort.split427
                                        #   in Loop: Header=BB1_39 Depth=1
	movl	(%rbx), %eax
	movq	-64(%rbp), %rcx         # 8-byte Reload
	movl	(%rcx), %ecx
	movw	$1190, BasicBlockSignatureTracker # imm = 0x4A6
	movw	$0, RunTimeSignatureAdjuster
	cmpl	%ecx, %eax
	jge	.LBB1_45
# %bb.41:                               #   in Loop: Header=BB1_39 Depth=1
	movw	BasicBlockSignatureTracker, %ax
	xorw	$10, %ax
	cmpw	$1196, %ax              # imm = 0x4AC
	jne	.LBB1_224
# %bb.42:                               # %fallbackSort.split429
                                        #   in Loop: Header=BB1_39 Depth=1
	movq	(%r14), %rax
	movq	%rbx, %rdx
	movslq	(%rdx), %rcx
	movzbl	(%rax,%rcx), %eax
	movq	%r12, %rcx
	movl	%eax, (%rcx)
	movslq	(%rcx), %rax
	movq	-80(%rbp), %rdi         # 8-byte Reload
	movl	(%rdi,%rax,4), %eax
	subl	$1, %eax
	movq	-48(%rbp), %rsi         # 8-byte Reload
	movl	%eax, (%rsi)
	movl	(%rsi), %eax
	movslq	(%rcx), %rcx
	movl	%eax, (%rdi,%rcx,4)
	movl	(%rdx), %eax
	movq	-88(%rbp), %rcx         # 8-byte Reload
	movq	(%rcx), %rcx
	movslq	(%rsi), %rdx
	movl	%eax, (%rcx,%rdx,4)
	movw	$1196, BasicBlockSignatureTracker # imm = 0x4AC
	movw	$0, RunTimeSignatureAdjuster
# %bb.43:                               #   in Loop: Header=BB1_39 Depth=1
	movw	BasicBlockSignatureTracker, %ax
	xorw	$76, %ax
	cmpw	$1248, %ax              # imm = 0x4E0
	jne	.LBB1_224
# %bb.44:                               # %fallbackSort.split433
                                        #   in Loop: Header=BB1_39 Depth=1
	movq	%rbx, %rcx
	movl	(%rcx), %eax
	addl	$1, %eax
	movl	%eax, (%rcx)
	movw	$1248, BasicBlockSignatureTracker # imm = 0x4E0
	movw	$122, RunTimeSignatureAdjuster
	jmp	.LBB1_39
.LBB1_45:
	movw	BasicBlockSignatureTracker, %ax
	xorw	$72, %ax
	cmpw	$1262, %ax              # imm = 0x4EE
	movq	-64(%rbp), %rax         # 8-byte Reload
	movq	%rbx, %rsi
	jne	.LBB1_229
# %bb.46:                               # %fallbackSort.split431
	movl	$32, %ecx
	movl	(%rax), %eax
	cltd
	idivl	%ecx
	addl	$2, %eax
	movq	-144(%rbp), %rcx        # 8-byte Reload
	movl	%eax, (%rcx)
	movl	$0, (%rsi)
	movw	$1262, BasicBlockSignatureTracker # imm = 0x4EE
	movw	$0, RunTimeSignatureAdjuster
.LBB1_47:                               # =>This Inner Loop Header: Depth=1
	movw	BasicBlockSignatureTracker, %ax
	movw	RunTimeSignatureAdjuster, %cx
	xorw	$507, %ax               # imm = 0x1FB
	xorw	%cx, %ax
	cmpw	$1301, %ax              # imm = 0x515
	jne	.LBB1_223
# %bb.48:                               # %fallbackSort.split435
                                        #   in Loop: Header=BB1_47 Depth=1
	movl	(%rbx), %eax
	movq	-144(%rbp), %rcx        # 8-byte Reload
	movl	(%rcx), %ecx
	movw	$1301, BasicBlockSignatureTracker # imm = 0x515
	movw	$0, RunTimeSignatureAdjuster
	cmpl	%ecx, %eax
	jge	.LBB1_53
# %bb.49:                               #   in Loop: Header=BB1_47 Depth=1
	movw	BasicBlockSignatureTracker, %ax
	xorw	$71, %ax
	cmpw	$1362, %ax              # imm = 0x552
	jne	.LBB1_223
# %bb.50:                               # %fallbackSort.split437
                                        #   in Loop: Header=BB1_47 Depth=1
	movq	-56(%rbp), %rax         # 8-byte Reload
	movq	(%rax), %rax
	movslq	(%rbx), %rcx
	movl	$0, (%rax,%rcx,4)
	movw	$1362, BasicBlockSignatureTracker # imm = 0x552
	movw	$0, RunTimeSignatureAdjuster
# %bb.51:                               #   in Loop: Header=BB1_47 Depth=1
	movw	BasicBlockSignatureTracker, %ax
	xorw	$211, %ax
	cmpw	$1409, %ax              # imm = 0x581
	jne	.LBB1_223
# %bb.52:                               # %fallbackSort.split441
                                        #   in Loop: Header=BB1_47 Depth=1
	movq	%rbx, %rcx
	movl	(%rcx), %eax
	addl	$1, %eax
	movl	%eax, (%rcx)
	movw	$1409, BasicBlockSignatureTracker # imm = 0x581
	movw	$367, RunTimeSignatureAdjuster # imm = 0x16F
	jmp	.LBB1_47
.LBB1_53:
	movw	BasicBlockSignatureTracker, %ax
	xorw	$156, %ax
	cmpw	$1417, %ax              # imm = 0x589
	movq	%rbx, %rax
	jne	.LBB1_229
# %bb.54:                               # %fallbackSort.split439
	movl	$0, (%rax)
	movw	$1417, BasicBlockSignatureTracker # imm = 0x589
	movw	$0, RunTimeSignatureAdjuster
.LBB1_55:                               # =>This Inner Loop Header: Depth=1
	movw	BasicBlockSignatureTracker, %ax
	movw	RunTimeSignatureAdjuster, %cx
	xorw	$104, %ax
	xorw	%cx, %ax
	cmpw	$1505, %ax              # imm = 0x5E1
	jne	.LBB1_222
# %bb.56:                               # %fallbackSort.split443
                                        #   in Loop: Header=BB1_55 Depth=1
	movl	(%rbx), %eax
	movw	$1505, BasicBlockSignatureTracker # imm = 0x5E1
	movw	$0, RunTimeSignatureAdjuster
	cmpl	$256, %eax              # imm = 0x100
	jge	.LBB1_61
# %bb.57:                               #   in Loop: Header=BB1_55 Depth=1
	movw	BasicBlockSignatureTracker, %ax
	xorw	$965, %ax               # imm = 0x3C5
	cmpw	$1572, %ax              # imm = 0x624
	jne	.LBB1_222
# %bb.58:                               # %fallbackSort.split445
                                        #   in Loop: Header=BB1_55 Depth=1
	movl	$1, %eax
	movq	%rbx, %rdx
	movslq	(%rdx), %rcx
	movq	-80(%rbp), %rsi         # 8-byte Reload
	movl	(%rsi,%rcx,4), %ecx
	andl	$31, %ecx
                                        # kill: def %cl killed %ecx
	shll	%cl, %eax
	movq	-56(%rbp), %rcx         # 8-byte Reload
	movq	(%rcx), %rcx
	movslq	(%rdx), %rdx
	movl	(%rsi,%rdx,4), %edx
	sarl	$5, %edx
	movslq	%edx, %rdx
	orl	(%rcx,%rdx,4), %eax
	movl	%eax, (%rcx,%rdx,4)
	movw	$1572, BasicBlockSignatureTracker # imm = 0x624
	movw	$0, RunTimeSignatureAdjuster
# %bb.59:                               #   in Loop: Header=BB1_55 Depth=1
	movw	BasicBlockSignatureTracker, %ax
	xorw	$15, %ax
	cmpw	$1579, %ax              # imm = 0x62B
	jne	.LBB1_222
# %bb.60:                               # %fallbackSort.split449
                                        #   in Loop: Header=BB1_55 Depth=1
	movq	%rbx, %rcx
	movl	(%rcx), %eax
	addl	$1, %eax
	movl	%eax, (%rcx)
	movw	$1579, BasicBlockSignatureTracker # imm = 0x62B
	movw	$930, RunTimeSignatureAdjuster # imm = 0x3A2
	jmp	.LBB1_55
.LBB1_61:
	movw	BasicBlockSignatureTracker, %ax
	xorw	$985, %ax               # imm = 0x3D9
	cmpw	$1592, %ax              # imm = 0x638
	movq	%rbx, %rax
	jne	.LBB1_229
# %bb.62:                               # %fallbackSort.split447
	movl	$0, (%rax)
	movw	$1592, BasicBlockSignatureTracker # imm = 0x638
	movw	$0, RunTimeSignatureAdjuster
.LBB1_63:                               # =>This Inner Loop Header: Depth=1
	movw	BasicBlockSignatureTracker, %ax
	movw	RunTimeSignatureAdjuster, %cx
	xorw	$112, %ax
	xorw	%cx, %ax
	cmpw	$1608, %ax              # imm = 0x648
	jne	.LBB1_221
# %bb.64:                               # %fallbackSort.split451
                                        #   in Loop: Header=BB1_63 Depth=1
	movl	(%rbx), %eax
	movw	$1608, BasicBlockSignatureTracker # imm = 0x648
	movw	$0, RunTimeSignatureAdjuster
	cmpl	$32, %eax
	jge	.LBB1_69
# %bb.65:                               #   in Loop: Header=BB1_63 Depth=1
	movw	BasicBlockSignatureTracker, %ax
	xorw	$42, %ax
	cmpw	$1634, %ax              # imm = 0x662
	jne	.LBB1_221
# %bb.66:                               # %fallbackSort.split453
                                        #   in Loop: Header=BB1_63 Depth=1
	movl	$1, %eax
	movq	-64(%rbp), %r8          # 8-byte Reload
	movl	(%r8), %ecx
	movq	%rbx, %r9
	movl	(%r9), %edx
	shll	$1, %edx
	addl	%edx, %ecx
	andl	$31, %ecx
                                        # kill: def %cl killed %ecx
	movl	$1, %edx
	shll	%cl, %edx
	movq	-56(%rbp), %r10         # 8-byte Reload
	movq	(%r10), %rcx
	movl	(%r8), %esi
	movl	(%r9), %edi
	shll	$1, %edi
	addl	%edi, %esi
	sarl	$5, %esi
	movslq	%esi, %rsi
	orl	(%rcx,%rsi,4), %edx
	movl	%edx, (%rcx,%rsi,4)
	movl	(%r8), %ecx
	movl	(%r9), %edx
	shll	$1, %edx
	addl	%edx, %ecx
	addl	$1, %ecx
	andl	$31, %ecx
                                        # kill: def %cl killed %ecx
	shll	%cl, %eax
	xorl	$-1, %eax
	movq	(%r10), %rcx
	movl	(%r8), %edx
	movl	(%r9), %esi
	shll	$1, %esi
	addl	%esi, %edx
	addl	$1, %edx
	sarl	$5, %edx
	movslq	%edx, %rdx
	andl	(%rcx,%rdx,4), %eax
	movl	%eax, (%rcx,%rdx,4)
	movw	$1634, BasicBlockSignatureTracker # imm = 0x662
	movw	$0, RunTimeSignatureAdjuster
# %bb.67:                               #   in Loop: Header=BB1_63 Depth=1
	movw	BasicBlockSignatureTracker, %ax
	xorw	$30, %ax
	cmpw	$1660, %ax              # imm = 0x67C
	jne	.LBB1_221
# %bb.68:                               # %fallbackSort.split457
                                        #   in Loop: Header=BB1_63 Depth=1
	movq	%rbx, %rcx
	movl	(%rcx), %eax
	addl	$1, %eax
	movl	%eax, (%rcx)
	movw	$1660, BasicBlockSignatureTracker # imm = 0x67C
	movw	$68, RunTimeSignatureAdjuster
	jmp	.LBB1_63
.LBB1_69:
	movw	BasicBlockSignatureTracker, %ax
	xorw	$196, %ax
	cmpw	$1676, %ax              # imm = 0x68C
	jne	.LBB1_229
# %bb.70:                               # %fallbackSort.split455
	movq	-120(%rbp), %rax        # 8-byte Reload
	movl	$1, (%rax)
	movw	$1676, BasicBlockSignatureTracker # imm = 0x68C
	movw	$0, RunTimeSignatureAdjuster
.LBB1_71:                               # =>This Loop Header: Depth=1
                                        #     Child Loop BB1_77 Depth 2
                                        #     Child Loop BB1_93 Depth 2
                                        #       Child Loop BB1_95 Depth 3
                                        #       Child Loop BB1_107 Depth 3
                                        #       Child Loop BB1_113 Depth 3
                                        #       Child Loop BB1_125 Depth 3
                                        #       Child Loop BB1_137 Depth 3
                                        #       Child Loop BB1_143 Depth 3
                                        #       Child Loop BB1_157 Depth 3
	movw	BasicBlockSignatureTracker, %ax
	movw	RunTimeSignatureAdjuster, %cx
	xorw	$25, %ax
	xorw	%cx, %ax
	cmpw	$1685, %ax              # imm = 0x695
	jne	.LBB1_220
# %bb.72:                               # %fallbackSort.split459
                                        #   in Loop: Header=BB1_71 Depth=1
	movl	(%r15), %eax
	movw	$1685, BasicBlockSignatureTracker # imm = 0x695
	movw	$0, RunTimeSignatureAdjuster
	cmpl	$4, %eax
	jl	.LBB1_75
# %bb.73:                               #   in Loop: Header=BB1_71 Depth=1
	movw	BasicBlockSignatureTracker, %ax
	xorw	$15, %ax
	cmpw	$1690, %ax              # imm = 0x69A
	jne	.LBB1_220
# %bb.74:                               # %fallbackSort.split461
                                        #   in Loop: Header=BB1_71 Depth=1
	movabsq	$.L.str.3, %rsi
	movq	stderr, %rdi
	movq	-120(%rbp), %rax        # 8-byte Reload
	movl	(%rax), %edx
	movb	$0, %al
	callq	fprintf
	movw	$1690, BasicBlockSignatureTracker # imm = 0x69A
	movw	$15, RunTimeSignatureAdjuster
.LBB1_75:                               #   in Loop: Header=BB1_71 Depth=1
	movw	BasicBlockSignatureTracker, %ax
	movw	RunTimeSignatureAdjuster, %cx
	xorw	$60, %ax
	xorw	%cx, %ax
	cmpw	$1705, %ax              # imm = 0x6A9
	jne	.LBB1_220
# %bb.76:                               # %fallbackSort.split463
                                        #   in Loop: Header=BB1_71 Depth=1
	movl	$0, (%r12)
	movl	$0, (%rbx)
	movw	$1705, BasicBlockSignatureTracker # imm = 0x6A9
	movw	$0, RunTimeSignatureAdjuster
.LBB1_77:                               #   Parent Loop BB1_71 Depth=1
                                        # =>  This Inner Loop Header: Depth=2
	movw	BasicBlockSignatureTracker, %ax
	movw	RunTimeSignatureAdjuster, %cx
	xorw	$125, %ax
	xorw	%cx, %ax
	cmpw	$1748, %ax              # imm = 0x6D4
	jne	.LBB1_219
# %bb.78:                               # %fallbackSort.split465
                                        #   in Loop: Header=BB1_77 Depth=2
	movl	(%rbx), %eax
	movq	-64(%rbp), %rcx         # 8-byte Reload
	movl	(%rcx), %ecx
	movw	$1748, BasicBlockSignatureTracker # imm = 0x6D4
	movw	$0, RunTimeSignatureAdjuster
	cmpl	%ecx, %eax
	jge	.LBB1_91
# %bb.79:                               #   in Loop: Header=BB1_77 Depth=2
	movw	BasicBlockSignatureTracker, %ax
	xorw	$61, %ax
	cmpw	$1769, %ax              # imm = 0x6E9
	jne	.LBB1_219
# %bb.80:                               # %fallbackSort.split467
                                        #   in Loop: Header=BB1_77 Depth=2
	movl	$1, %eax
	movq	-56(%rbp), %rcx         # 8-byte Reload
	movq	(%rcx), %rcx
	movq	%rbx, %rsi
	movl	(%rsi), %edx
	sarl	$5, %edx
	movslq	%edx, %rdx
	movl	(%rcx,%rdx,4), %edx
	movl	(%rsi), %ecx
	andl	$31, %ecx
                                        # kill: def %cl killed %ecx
	shll	%cl, %eax
	andl	%eax, %edx
	movw	$1769, BasicBlockSignatureTracker # imm = 0x6E9
	movw	$0, RunTimeSignatureAdjuster
	cmpl	$0, %edx
	je	.LBB1_83
# %bb.81:                               #   in Loop: Header=BB1_77 Depth=2
	movw	BasicBlockSignatureTracker, %ax
	xorw	$18, %ax
	cmpw	$1787, %ax              # imm = 0x6FB
	jne	.LBB1_219
# %bb.82:                               # %fallbackSort.split471
                                        #   in Loop: Header=BB1_77 Depth=2
	movl	(%rbx), %eax
	movl	%eax, (%r12)
	movw	$1787, BasicBlockSignatureTracker # imm = 0x6FB
	movw	$18, RunTimeSignatureAdjuster
.LBB1_83:                               #   in Loop: Header=BB1_77 Depth=2
	movw	BasicBlockSignatureTracker, %ax
	movw	RunTimeSignatureAdjuster, %cx
	xorw	$501, %ax               # imm = 0x1F5
	xorw	%cx, %ax
	cmpw	$1820, %ax              # imm = 0x71C
	jne	.LBB1_219
# %bb.84:                               # %fallbackSort.split473
                                        #   in Loop: Header=BB1_77 Depth=2
	movq	-88(%rbp), %rax         # 8-byte Reload
	movq	(%rax), %rax
	movslq	(%rbx), %rcx
	movl	(%rax,%rcx,4), %eax
	movq	-120(%rbp), %rcx        # 8-byte Reload
	subl	(%rcx), %eax
	movq	-48(%rbp), %rcx         # 8-byte Reload
	movl	%eax, (%rcx)
	movl	(%rcx), %eax
	movw	$1820, BasicBlockSignatureTracker # imm = 0x71C
	movw	$0, RunTimeSignatureAdjuster
	cmpl	$0, %eax
	jge	.LBB1_87
# %bb.85:                               #   in Loop: Header=BB1_77 Depth=2
	movw	BasicBlockSignatureTracker, %ax
	xorw	$57, %ax
	cmpw	$1829, %ax              # imm = 0x725
	jne	.LBB1_219
# %bb.86:                               # %fallbackSort.split475
                                        #   in Loop: Header=BB1_77 Depth=2
	movq	-64(%rbp), %rax         # 8-byte Reload
	movl	(%rax), %eax
	movq	-48(%rbp), %rcx         # 8-byte Reload
	addl	(%rcx), %eax
	movl	%eax, (%rcx)
	movw	$1829, BasicBlockSignatureTracker # imm = 0x725
	movw	$57, RunTimeSignatureAdjuster
.LBB1_87:                               #   in Loop: Header=BB1_77 Depth=2
	movw	BasicBlockSignatureTracker, %ax
	movw	RunTimeSignatureAdjuster, %cx
	xorw	$59, %ax
	xorw	%cx, %ax
	cmpw	$1831, %ax              # imm = 0x727
	jne	.LBB1_219
# %bb.88:                               # %fallbackSort.split477
                                        #   in Loop: Header=BB1_77 Depth=2
	movl	(%r12), %eax
	movq	(%r13), %rcx
	movq	-48(%rbp), %rdx         # 8-byte Reload
	movslq	(%rdx), %rdx
	movl	%eax, (%rcx,%rdx,4)
	movw	$1831, BasicBlockSignatureTracker # imm = 0x727
	movw	$0, RunTimeSignatureAdjuster
# %bb.89:                               #   in Loop: Header=BB1_77 Depth=2
	movw	BasicBlockSignatureTracker, %ax
	xorw	$125, %ax
	cmpw	$1882, %ax              # imm = 0x75A
	jne	.LBB1_219
# %bb.90:                               # %fallbackSort.split479
                                        #   in Loop: Header=BB1_77 Depth=2
	movq	%rbx, %rcx
	movl	(%rcx), %eax
	addl	$1, %eax
	movl	%eax, (%rcx)
	movw	$1882, BasicBlockSignatureTracker # imm = 0x75A
	movw	$499, RunTimeSignatureAdjuster # imm = 0x1F3
	jmp	.LBB1_77
.LBB1_91:                               #   in Loop: Header=BB1_71 Depth=1
	movw	BasicBlockSignatureTracker, %ax
	xorw	$433, %ax               # imm = 0x1B1
	cmpw	$1893, %ax              # imm = 0x765
	jne	.LBB1_220
# %bb.92:                               # %fallbackSort.split469
                                        #   in Loop: Header=BB1_71 Depth=1
	movq	-104(%rbp), %rax        # 8-byte Reload
	movl	$0, (%rax)
	movq	-72(%rbp), %rax         # 8-byte Reload
	movl	$-1, (%rax)
	movw	$1893, BasicBlockSignatureTracker # imm = 0x765
	movw	$0, RunTimeSignatureAdjuster
.LBB1_93:                               #   Parent Loop BB1_71 Depth=1
                                        # =>  This Loop Header: Depth=2
                                        #       Child Loop BB1_95 Depth 3
                                        #       Child Loop BB1_107 Depth 3
                                        #       Child Loop BB1_113 Depth 3
                                        #       Child Loop BB1_125 Depth 3
                                        #       Child Loop BB1_137 Depth 3
                                        #       Child Loop BB1_143 Depth 3
                                        #       Child Loop BB1_157 Depth 3
	movw	BasicBlockSignatureTracker, %ax
	movw	RunTimeSignatureAdjuster, %cx
	xorw	$15, %ax
	xorw	%cx, %ax
	cmpw	$1898, %ax              # imm = 0x76A
	jne	.LBB1_218
# %bb.94:                               # %fallbackSort.split481
                                        #   in Loop: Header=BB1_93 Depth=2
	movq	-72(%rbp), %rax         # 8-byte Reload
	movl	(%rax), %eax
	addl	$1, %eax
	movq	-48(%rbp), %rcx         # 8-byte Reload
	movl	%eax, (%rcx)
	movw	$1898, BasicBlockSignatureTracker # imm = 0x76A
	movw	$0, RunTimeSignatureAdjuster
.LBB1_95:                               #   Parent Loop BB1_71 Depth=1
                                        #     Parent Loop BB1_93 Depth=2
                                        # =>    This Inner Loop Header: Depth=3
	movw	BasicBlockSignatureTracker, %ax
	movw	RunTimeSignatureAdjuster, %cx
	xorw	$16, %ax
	xorw	%cx, %ax
	cmpw	$1914, %ax              # imm = 0x77A
	jne	.LBB1_217
# %bb.96:                               # %fallbackSort.split483
                                        #   in Loop: Header=BB1_95 Depth=3
	xorl	%eax, %eax
	movl	$1, %edx
	movq	-56(%rbp), %rcx         # 8-byte Reload
	movq	(%rcx), %rcx
	movq	-48(%rbp), %rdi         # 8-byte Reload
	movl	(%rdi), %esi
	sarl	$5, %esi
	movslq	%esi, %rsi
	movl	(%rcx,%rsi,4), %esi
	movl	(%rdi), %ecx
	andl	$31, %ecx
                                        # kill: def %cl killed %ecx
	shll	%cl, %edx
	andl	%edx, %esi
	movw	$1914, BasicBlockSignatureTracker # imm = 0x77A
	movw	$0, RunTimeSignatureAdjuster
	cmpl	$0, %esi
	je	.LBB1_99
# %bb.97:                               #   in Loop: Header=BB1_95 Depth=3
	movw	BasicBlockSignatureTracker, %ax
	xorw	$224, %ax
	cmpw	$1946, %ax              # imm = 0x79A
	jne	.LBB1_217
# %bb.98:                               # %fallbackSort.split485
                                        #   in Loop: Header=BB1_95 Depth=3
	movq	-48(%rbp), %rax         # 8-byte Reload
	movl	(%rax), %eax
	andl	$31, %eax
	cmpl	$0, %eax
	setne	%al
	movw	$1946, BasicBlockSignatureTracker # imm = 0x79A
	movw	$224, RunTimeSignatureAdjuster
.LBB1_99:                               #   in Loop: Header=BB1_95 Depth=3
	movw	BasicBlockSignatureTracker, %cx
	movw	RunTimeSignatureAdjuster, %dx
	xorw	$179, %cx
	xorw	%dx, %cx
	cmpw	$1993, %cx              # imm = 0x7C9
	jne	.LBB1_217
# %bb.100:                              # %fallbackSort.split487
                                        #   in Loop: Header=BB1_95 Depth=3
	movw	$1993, BasicBlockSignatureTracker # imm = 0x7C9
	movw	$0, RunTimeSignatureAdjuster
	testb	$1, %al
	jne	.LBB1_101
	jmp	.LBB1_103
.LBB1_101:                              #   in Loop: Header=BB1_95 Depth=3
	movw	BasicBlockSignatureTracker, %ax
	xorw	$17, %ax
	cmpw	$2008, %ax              # imm = 0x7D8
	jne	.LBB1_217
# %bb.102:                              # %fallbackSort.split489
                                        #   in Loop: Header=BB1_95 Depth=3
	movq	-48(%rbp), %rcx         # 8-byte Reload
	movl	(%rcx), %eax
	addl	$1, %eax
	movl	%eax, (%rcx)
	movw	$2008, BasicBlockSignatureTracker # imm = 0x7D8
	movw	$178, RunTimeSignatureAdjuster
	jmp	.LBB1_95
.LBB1_103:                              #   in Loop: Header=BB1_93 Depth=2
	movw	BasicBlockSignatureTracker, %ax
	xorw	$62, %ax
	cmpw	$2039, %ax              # imm = 0x7F7
	jne	.LBB1_218
# %bb.104:                              # %fallbackSort.split491
                                        #   in Loop: Header=BB1_93 Depth=2
	movl	$1, %eax
	movq	-56(%rbp), %rcx         # 8-byte Reload
	movq	(%rcx), %rcx
	movq	-48(%rbp), %rsi         # 8-byte Reload
	movl	(%rsi), %edx
	sarl	$5, %edx
	movslq	%edx, %rdx
	movl	(%rcx,%rdx,4), %edx
	movl	(%rsi), %ecx
	andl	$31, %ecx
                                        # kill: def %cl killed %ecx
	shll	%cl, %eax
	andl	%eax, %edx
	movw	$2039, BasicBlockSignatureTracker # imm = 0x7F7
	movw	$0, RunTimeSignatureAdjuster
	cmpl	$0, %edx
	je	.LBB1_119
# %bb.105:                              #   in Loop: Header=BB1_93 Depth=2
	movw	BasicBlockSignatureTracker, %ax
	xorw	$4003, %ax              # imm = 0xFA3
	cmpw	$2132, %ax              # imm = 0x854
	jne	.LBB1_218
# %bb.106:                              # %fallbackSort.split493
                                        #   in Loop: Header=BB1_93 Depth=2
	movw	$2132, BasicBlockSignatureTracker # imm = 0x854
	movw	$0, RunTimeSignatureAdjuster
.LBB1_107:                              #   Parent Loop BB1_71 Depth=1
                                        #     Parent Loop BB1_93 Depth=2
                                        # =>    This Inner Loop Header: Depth=3
	movw	BasicBlockSignatureTracker, %ax
	movw	RunTimeSignatureAdjuster, %cx
	xorw	$54, %ax
	xorw	%cx, %ax
	cmpw	$2146, %ax              # imm = 0x862
	jne	.LBB1_216
# %bb.108:                              # %fallbackSort.split497
                                        #   in Loop: Header=BB1_107 Depth=3
	movq	-56(%rbp), %rax         # 8-byte Reload
	movq	(%rax), %rax
	movq	-48(%rbp), %rcx         # 8-byte Reload
	movl	(%rcx), %ecx
	sarl	$5, %ecx
	movslq	%ecx, %rcx
	movl	(%rax,%rcx,4), %eax
	movw	$2146, BasicBlockSignatureTracker # imm = 0x862
	movw	$0, RunTimeSignatureAdjuster
	cmpl	$-1, %eax
	jne	.LBB1_111
# %bb.109:                              #   in Loop: Header=BB1_107 Depth=3
	movw	BasicBlockSignatureTracker, %ax
	xorw	$23, %ax
	cmpw	$2165, %ax              # imm = 0x875
	jne	.LBB1_216
# %bb.110:                              # %fallbackSort.split499
                                        #   in Loop: Header=BB1_107 Depth=3
	movq	-48(%rbp), %rcx         # 8-byte Reload
	movl	(%rcx), %eax
	addl	$32, %eax
	movl	%eax, (%rcx)
	movw	$2165, BasicBlockSignatureTracker # imm = 0x875
	movw	$33, RunTimeSignatureAdjuster
	jmp	.LBB1_107
.LBB1_111:                              #   in Loop: Header=BB1_93 Depth=2
	movw	BasicBlockSignatureTracker, %ax
	xorw	$245, %ax
	cmpw	$2199, %ax              # imm = 0x897
	jne	.LBB1_218
# %bb.112:                              # %fallbackSort.split501
                                        #   in Loop: Header=BB1_93 Depth=2
	movw	$2199, BasicBlockSignatureTracker # imm = 0x897
	movw	$0, RunTimeSignatureAdjuster
.LBB1_113:                              #   Parent Loop BB1_71 Depth=1
                                        #     Parent Loop BB1_93 Depth=2
                                        # =>    This Inner Loop Header: Depth=3
	movw	BasicBlockSignatureTracker, %ax
	movw	RunTimeSignatureAdjuster, %cx
	xorw	$47, %ax
	xorw	%cx, %ax
	cmpw	$2232, %ax              # imm = 0x8B8
	jne	.LBB1_215
# %bb.114:                              # %fallbackSort.split503
                                        #   in Loop: Header=BB1_113 Depth=3
	movl	$1, %eax
	movq	-56(%rbp), %rcx         # 8-byte Reload
	movq	(%rcx), %rcx
	movq	-48(%rbp), %rsi         # 8-byte Reload
	movl	(%rsi), %edx
	sarl	$5, %edx
	movslq	%edx, %rdx
	movl	(%rcx,%rdx,4), %edx
	movl	(%rsi), %ecx
	andl	$31, %ecx
                                        # kill: def %cl killed %ecx
	shll	%cl, %eax
	andl	%eax, %edx
	movw	$2232, BasicBlockSignatureTracker # imm = 0x8B8
	movw	$0, RunTimeSignatureAdjuster
	cmpl	$0, %edx
	je	.LBB1_117
# %bb.115:                              #   in Loop: Header=BB1_113 Depth=3
	movw	BasicBlockSignatureTracker, %ax
	xorw	$112, %ax
	cmpw	$2248, %ax              # imm = 0x8C8
	jne	.LBB1_215
# %bb.116:                              # %fallbackSort.split505
                                        #   in Loop: Header=BB1_113 Depth=3
	movq	-48(%rbp), %rcx         # 8-byte Reload
	movl	(%rcx), %eax
	addl	$1, %eax
	movl	%eax, (%rcx)
	movw	$2248, BasicBlockSignatureTracker # imm = 0x8C8
	movw	$95, RunTimeSignatureAdjuster
	jmp	.LBB1_113
.LBB1_117:                              #   in Loop: Header=BB1_93 Depth=2
	movw	BasicBlockSignatureTracker, %ax
	xorw	$104, %ax
	cmpw	$2256, %ax              # imm = 0x8D0
	jne	.LBB1_218
# %bb.118:                              # %fallbackSort.split507
                                        #   in Loop: Header=BB1_93 Depth=2
	movw	$2256, BasicBlockSignatureTracker # imm = 0x8D0
	movw	$3879, RunTimeSignatureAdjuster # imm = 0xF27
.LBB1_119:                              #   in Loop: Header=BB1_93 Depth=2
	movw	BasicBlockSignatureTracker, %ax
	movw	RunTimeSignatureAdjuster, %cx
	xorw	$3877, %ax              # imm = 0xF25
	xorw	%cx, %ax
	cmpw	$2258, %ax              # imm = 0x8D2
	jne	.LBB1_218
# %bb.120:                              # %fallbackSort.split495
                                        #   in Loop: Header=BB1_93 Depth=2
	movq	-48(%rbp), %rax         # 8-byte Reload
	movl	(%rax), %eax
	subl	$1, %eax
	movq	-112(%rbp), %rcx        # 8-byte Reload
	movl	%eax, (%rcx)
	movl	(%rcx), %eax
	movq	-64(%rbp), %rcx         # 8-byte Reload
	movl	(%rcx), %ecx
	movw	$2258, BasicBlockSignatureTracker # imm = 0x8D2
	movw	$0, RunTimeSignatureAdjuster
	cmpl	%ecx, %eax
	jl	.LBB1_123
# %bb.121:                              #   in Loop: Header=BB1_71 Depth=1
	movw	BasicBlockSignatureTracker, %ax
	xorw	$7, %ax
	cmpw	$2261, %ax              # imm = 0x8D5
	jne	.LBB1_220
# %bb.122:                              # %fallbackSort.split509
                                        #   in Loop: Header=BB1_71 Depth=1
	movw	$2261, BasicBlockSignatureTracker # imm = 0x8D5
	movw	$0, RunTimeSignatureAdjuster
	jmp	.LBB1_171
.LBB1_123:                              #   in Loop: Header=BB1_93 Depth=2
	movw	BasicBlockSignatureTracker, %ax
	xorw	$62, %ax
	cmpw	$2284, %ax              # imm = 0x8EC
	jne	.LBB1_218
# %bb.124:                              # %fallbackSort.split511
                                        #   in Loop: Header=BB1_93 Depth=2
	movw	$2284, BasicBlockSignatureTracker # imm = 0x8EC
	movw	$0, RunTimeSignatureAdjuster
.LBB1_125:                              #   Parent Loop BB1_71 Depth=1
                                        #     Parent Loop BB1_93 Depth=2
                                        # =>    This Inner Loop Header: Depth=3
	movw	BasicBlockSignatureTracker, %ax
	movw	RunTimeSignatureAdjuster, %cx
	xorw	$3, %ax
	xorw	%cx, %ax
	cmpw	$2287, %ax              # imm = 0x8EF
	jne	.LBB1_214
# %bb.126:                              # %fallbackSort.split515
                                        #   in Loop: Header=BB1_125 Depth=3
	xorl	%eax, %eax
	movl	$1, %edx
	movq	-56(%rbp), %rcx         # 8-byte Reload
	movq	(%rcx), %rcx
	movq	-48(%rbp), %rdi         # 8-byte Reload
	movl	(%rdi), %esi
	sarl	$5, %esi
	movslq	%esi, %rsi
	movl	(%rcx,%rsi,4), %esi
	movl	(%rdi), %ecx
	andl	$31, %ecx
                                        # kill: def %cl killed %ecx
	shll	%cl, %edx
	andl	%edx, %esi
	movw	$2287, BasicBlockSignatureTracker # imm = 0x8EF
	movw	$0, RunTimeSignatureAdjuster
	cmpl	$0, %esi
	jne	.LBB1_129
# %bb.127:                              #   in Loop: Header=BB1_125 Depth=3
	movw	BasicBlockSignatureTracker, %ax
	xorw	$491, %ax               # imm = 0x1EB
	cmpw	$2308, %ax              # imm = 0x904
	jne	.LBB1_214
# %bb.128:                              # %fallbackSort.split519
                                        #   in Loop: Header=BB1_125 Depth=3
	movq	-48(%rbp), %rax         # 8-byte Reload
	movl	(%rax), %eax
	andl	$31, %eax
	cmpl	$0, %eax
	setne	%al
	movw	$2308, BasicBlockSignatureTracker # imm = 0x904
	movw	$491, RunTimeSignatureAdjuster # imm = 0x1EB
.LBB1_129:                              #   in Loop: Header=BB1_125 Depth=3
	movw	BasicBlockSignatureTracker, %cx
	movw	RunTimeSignatureAdjuster, %dx
	xorw	$488, %cx               # imm = 0x1E8
	xorw	%dx, %cx
	cmpw	$2311, %cx              # imm = 0x907
	jne	.LBB1_214
# %bb.130:                              # %fallbackSort.split517
                                        #   in Loop: Header=BB1_125 Depth=3
	movw	$2311, BasicBlockSignatureTracker # imm = 0x907
	movw	$0, RunTimeSignatureAdjuster
	testb	$1, %al
	jne	.LBB1_131
	jmp	.LBB1_133
.LBB1_131:                              #   in Loop: Header=BB1_125 Depth=3
	movw	BasicBlockSignatureTracker, %ax
	xorw	$24, %ax
	cmpw	$2335, %ax              # imm = 0x91F
	jne	.LBB1_214
# %bb.132:                              # %fallbackSort.split521
                                        #   in Loop: Header=BB1_125 Depth=3
	movq	-48(%rbp), %rcx         # 8-byte Reload
	movl	(%rcx), %eax
	addl	$1, %eax
	movl	%eax, (%rcx)
	movw	$2335, BasicBlockSignatureTracker # imm = 0x91F
	movw	$499, RunTimeSignatureAdjuster # imm = 0x1F3
	jmp	.LBB1_125
.LBB1_133:                              #   in Loop: Header=BB1_93 Depth=2
	movw	BasicBlockSignatureTracker, %ax
	xorw	$43, %ax
	cmpw	$2348, %ax              # imm = 0x92C
	jne	.LBB1_218
# %bb.134:                              # %fallbackSort.split523
                                        #   in Loop: Header=BB1_93 Depth=2
	movl	$1, %eax
	movq	-56(%rbp), %rcx         # 8-byte Reload
	movq	(%rcx), %rcx
	movq	-48(%rbp), %rsi         # 8-byte Reload
	movl	(%rsi), %edx
	sarl	$5, %edx
	movslq	%edx, %rdx
	movl	(%rcx,%rdx,4), %edx
	movl	(%rsi), %ecx
	andl	$31, %ecx
                                        # kill: def %cl killed %ecx
	shll	%cl, %eax
	andl	%eax, %edx
	movw	$2348, BasicBlockSignatureTracker # imm = 0x92C
	movw	$0, RunTimeSignatureAdjuster
	cmpl	$0, %edx
	jne	.LBB1_149
# %bb.135:                              #   in Loop: Header=BB1_93 Depth=2
	movw	BasicBlockSignatureTracker, %ax
	xorw	$21, %ax
	cmpw	$2361, %ax              # imm = 0x939
	jne	.LBB1_218
# %bb.136:                              # %fallbackSort.split527
                                        #   in Loop: Header=BB1_93 Depth=2
	movw	$2361, BasicBlockSignatureTracker # imm = 0x939
	movw	$0, RunTimeSignatureAdjuster
.LBB1_137:                              #   Parent Loop BB1_71 Depth=1
                                        #     Parent Loop BB1_93 Depth=2
                                        # =>    This Inner Loop Header: Depth=3
	movw	BasicBlockSignatureTracker, %ax
	movw	RunTimeSignatureAdjuster, %cx
	xorw	$115, %ax
	xorw	%cx, %ax
	cmpw	$2378, %ax              # imm = 0x94A
	jne	.LBB1_213
# %bb.138:                              # %fallbackSort.split529
                                        #   in Loop: Header=BB1_137 Depth=3
	movq	-56(%rbp), %rax         # 8-byte Reload
	movq	(%rax), %rax
	movq	-48(%rbp), %rcx         # 8-byte Reload
	movl	(%rcx), %ecx
	sarl	$5, %ecx
	movslq	%ecx, %rcx
	movl	(%rax,%rcx,4), %eax
	movw	$2378, BasicBlockSignatureTracker # imm = 0x94A
	movw	$0, RunTimeSignatureAdjuster
	cmpl	$0, %eax
	jne	.LBB1_141
# %bb.139:                              #   in Loop: Header=BB1_137 Depth=3
	movw	BasicBlockSignatureTracker, %ax
	xorw	$192, %ax
	cmpw	$2442, %ax              # imm = 0x98A
	jne	.LBB1_213
# %bb.140:                              # %fallbackSort.split531
                                        #   in Loop: Header=BB1_137 Depth=3
	movq	-48(%rbp), %rcx         # 8-byte Reload
	movl	(%rcx), %eax
	addl	$32, %eax
	movl	%eax, (%rcx)
	movw	$2442, BasicBlockSignatureTracker # imm = 0x98A
	movw	$179, RunTimeSignatureAdjuster
	jmp	.LBB1_137
.LBB1_141:                              #   in Loop: Header=BB1_93 Depth=2
	movw	BasicBlockSignatureTracker, %ax
	xorw	$223, %ax
	cmpw	$2453, %ax              # imm = 0x995
	jne	.LBB1_218
# %bb.142:                              # %fallbackSort.split533
                                        #   in Loop: Header=BB1_93 Depth=2
	movw	$2453, BasicBlockSignatureTracker # imm = 0x995
	movw	$0, RunTimeSignatureAdjuster
.LBB1_143:                              #   Parent Loop BB1_71 Depth=1
                                        #     Parent Loop BB1_93 Depth=2
                                        # =>    This Inner Loop Header: Depth=3
	movw	BasicBlockSignatureTracker, %ax
	movw	RunTimeSignatureAdjuster, %cx
	xorw	$77, %ax
	xorw	%cx, %ax
	cmpw	$2520, %ax              # imm = 0x9D8
	jne	.LBB1_212
# %bb.144:                              # %fallbackSort.split535
                                        #   in Loop: Header=BB1_143 Depth=3
	movl	$1, %eax
	movq	-56(%rbp), %rcx         # 8-byte Reload
	movq	(%rcx), %rcx
	movq	-48(%rbp), %rsi         # 8-byte Reload
	movl	(%rsi), %edx
	sarl	$5, %edx
	movslq	%edx, %rdx
	movl	(%rcx,%rdx,4), %edx
	movl	(%rsi), %ecx
	andl	$31, %ecx
                                        # kill: def %cl killed %ecx
	shll	%cl, %eax
	andl	%eax, %edx
	cmpl	$0, %edx
	setne	%al
	xorb	$-1, %al
	movw	$2520, BasicBlockSignatureTracker # imm = 0x9D8
	movw	$0, RunTimeSignatureAdjuster
	testb	$1, %al
	jne	.LBB1_145
	jmp	.LBB1_147
.LBB1_145:                              #   in Loop: Header=BB1_143 Depth=3
	movw	BasicBlockSignatureTracker, %ax
	xorw	$58, %ax
	cmpw	$2530, %ax              # imm = 0x9E2
	jne	.LBB1_212
# %bb.146:                              # %fallbackSort.split537
                                        #   in Loop: Header=BB1_143 Depth=3
	movq	-48(%rbp), %rcx         # 8-byte Reload
	movl	(%rcx), %eax
	addl	$1, %eax
	movl	%eax, (%rcx)
	movw	$2530, BasicBlockSignatureTracker # imm = 0x9E2
	movw	$119, RunTimeSignatureAdjuster
	jmp	.LBB1_143
.LBB1_147:                              #   in Loop: Header=BB1_93 Depth=2
	movw	BasicBlockSignatureTracker, %ax
	xorw	$38, %ax
	cmpw	$2558, %ax              # imm = 0x9FE
	jne	.LBB1_218
# %bb.148:                              # %fallbackSort.split539
                                        #   in Loop: Header=BB1_93 Depth=2
	movw	$2558, BasicBlockSignatureTracker # imm = 0x9FE
	movw	$210, RunTimeSignatureAdjuster
.LBB1_149:                              #   in Loop: Header=BB1_93 Depth=2
	movw	BasicBlockSignatureTracker, %ax
	movw	RunTimeSignatureAdjuster, %cx
	xorw	$799, %ax               # imm = 0x31F
	xorw	%cx, %ax
	cmpw	$2611, %ax              # imm = 0xA33
	jne	.LBB1_218
# %bb.150:                              # %fallbackSort.split525
                                        #   in Loop: Header=BB1_93 Depth=2
	movq	-48(%rbp), %rax         # 8-byte Reload
	movl	(%rax), %eax
	subl	$1, %eax
	movq	-72(%rbp), %rcx         # 8-byte Reload
	movl	%eax, (%rcx)
	movl	(%rcx), %eax
	movq	-64(%rbp), %rcx         # 8-byte Reload
	movl	(%rcx), %ecx
	movw	$2611, BasicBlockSignatureTracker # imm = 0xA33
	movw	$0, RunTimeSignatureAdjuster
	cmpl	%ecx, %eax
	jl	.LBB1_153
# %bb.151:                              #   in Loop: Header=BB1_71 Depth=1
	movw	BasicBlockSignatureTracker, %ax
	xorw	$7, %ax
	cmpw	$2612, %ax              # imm = 0xA34
	jne	.LBB1_220
# %bb.152:                              # %fallbackSort.split541
                                        #   in Loop: Header=BB1_71 Depth=1
	movw	$2612, BasicBlockSignatureTracker # imm = 0xA34
	movw	$737, RunTimeSignatureAdjuster # imm = 0x2E1
	jmp	.LBB1_171
.LBB1_153:                              #   in Loop: Header=BB1_93 Depth=2
	movw	BasicBlockSignatureTracker, %ax
	xorw	$83, %ax
	cmpw	$2656, %ax              # imm = 0xA60
	jne	.LBB1_218
# %bb.154:                              # %fallbackSort.split543
                                        #   in Loop: Header=BB1_93 Depth=2
	movq	-72(%rbp), %rax         # 8-byte Reload
	movl	(%rax), %eax
	movq	-112(%rbp), %rcx        # 8-byte Reload
	movl	(%rcx), %ecx
	movw	$2656, BasicBlockSignatureTracker # imm = 0xA60
	movw	$0, RunTimeSignatureAdjuster
	cmpl	%ecx, %eax
	jle	.LBB1_169
# %bb.155:                              #   in Loop: Header=BB1_93 Depth=2
	movw	BasicBlockSignatureTracker, %ax
	xorw	$5, %ax
	cmpw	$2661, %ax              # imm = 0xA65
	jne	.LBB1_218
# %bb.156:                              # %fallbackSort.split545
                                        #   in Loop: Header=BB1_93 Depth=2
	movq	-72(%rbp), %r8          # 8-byte Reload
	movl	(%r8), %eax
	movq	-112(%rbp), %rcx        # 8-byte Reload
	subl	(%rcx), %eax
	addl	$1, %eax
	movq	-104(%rbp), %rdx        # 8-byte Reload
	addl	(%rdx), %eax
	movl	%eax, (%rdx)
	movq	-88(%rbp), %rax         # 8-byte Reload
	movq	(%rax), %rdi
	movq	(%r13), %rsi
	movl	(%rcx), %edx
	movl	(%r8), %ecx
	movw	$2661, BasicBlockSignatureTracker # imm = 0xA65
	movw	$0, RunTimeSignatureAdjuster
	callq	fallbackQSort3
	movw	$2661, BasicBlockSignatureTracker # imm = 0xA65
	movw	$0, RunTimeSignatureAdjuster
	movq	-128(%rbp), %rax        # 8-byte Reload
	movl	$-1, (%rax)
	movq	-112(%rbp), %rax        # 8-byte Reload
	movl	(%rax), %eax
	movl	%eax, (%rbx)
	movw	$2661, BasicBlockSignatureTracker # imm = 0xA65
	movw	$0, RunTimeSignatureAdjuster
.LBB1_157:                              #   Parent Loop BB1_71 Depth=1
                                        #     Parent Loop BB1_93 Depth=2
                                        # =>    This Inner Loop Header: Depth=3
	movw	BasicBlockSignatureTracker, %ax
	movw	RunTimeSignatureAdjuster, %cx
	xorw	$241, %ax
	xorw	%cx, %ax
	cmpw	$2708, %ax              # imm = 0xA94
	jne	.LBB1_211
# %bb.158:                              # %fallbackSort.split549
                                        #   in Loop: Header=BB1_157 Depth=3
	movl	(%rbx), %eax
	movq	-72(%rbp), %rcx         # 8-byte Reload
	movl	(%rcx), %ecx
	movw	$2708, BasicBlockSignatureTracker # imm = 0xA94
	movw	$0, RunTimeSignatureAdjuster
	cmpl	%ecx, %eax
	jg	.LBB1_167
# %bb.159:                              #   in Loop: Header=BB1_157 Depth=3
	movw	BasicBlockSignatureTracker, %ax
	xorw	$8, %ax
	cmpw	$2716, %ax              # imm = 0xA9C
	jne	.LBB1_211
# %bb.160:                              # %fallbackSort.split551
                                        #   in Loop: Header=BB1_157 Depth=3
	movq	(%r13), %rax
	movq	-88(%rbp), %rcx         # 8-byte Reload
	movq	(%rcx), %rcx
	movslq	(%rbx), %rdx
	movl	(%rcx,%rdx,4), %ecx
	movl	(%rax,%rcx,4), %eax
	movq	-136(%rbp), %rcx        # 8-byte Reload
	movl	%eax, (%rcx)
	movq	-128(%rbp), %rax        # 8-byte Reload
	movl	(%rax), %eax
	movl	(%rcx), %ecx
	movw	$2716, BasicBlockSignatureTracker # imm = 0xA9C
	movw	$0, RunTimeSignatureAdjuster
	cmpl	%ecx, %eax
	je	.LBB1_163
# %bb.161:                              #   in Loop: Header=BB1_157 Depth=3
	movw	BasicBlockSignatureTracker, %ax
	xorw	$2, %ax
	cmpw	$2718, %ax              # imm = 0xA9E
	jne	.LBB1_211
# %bb.162:                              # %fallbackSort.split555
                                        #   in Loop: Header=BB1_157 Depth=3
	movl	$1, %eax
	movq	%rbx, %rdx
	movl	(%rdx), %ecx
	andl	$31, %ecx
                                        # kill: def %cl killed %ecx
	shll	%cl, %eax
	movq	-56(%rbp), %rcx         # 8-byte Reload
	movq	(%rcx), %rcx
	movl	(%rdx), %edx
	sarl	$5, %edx
	movslq	%edx, %rdx
	orl	(%rcx,%rdx,4), %eax
	movl	%eax, (%rcx,%rdx,4)
	movq	-136(%rbp), %rax        # 8-byte Reload
	movl	(%rax), %eax
	movq	-128(%rbp), %rcx        # 8-byte Reload
	movl	%eax, (%rcx)
	movw	$2718, BasicBlockSignatureTracker # imm = 0xA9E
	movw	$2, RunTimeSignatureAdjuster
.LBB1_163:                              #   in Loop: Header=BB1_157 Depth=3
	movw	BasicBlockSignatureTracker, %ax
	movw	RunTimeSignatureAdjuster, %cx
	xorw	$121, %ax
	xorw	%cx, %ax
	cmpw	$2789, %ax              # imm = 0xAE5
	jne	.LBB1_211
# %bb.164:                              # %fallbackSort.split557
                                        #   in Loop: Header=BB1_157 Depth=3
	movw	$2789, BasicBlockSignatureTracker # imm = 0xAE5
	movw	$0, RunTimeSignatureAdjuster
# %bb.165:                              #   in Loop: Header=BB1_157 Depth=3
	movw	BasicBlockSignatureTracker, %ax
	xorw	$19, %ax
	cmpw	$2806, %ax              # imm = 0xAF6
	jne	.LBB1_211
# %bb.166:                              # %fallbackSort.split559
                                        #   in Loop: Header=BB1_157 Depth=3
	movq	%rbx, %rcx
	movl	(%rcx), %eax
	addl	$1, %eax
	movl	%eax, (%rcx)
	movw	$2806, BasicBlockSignatureTracker # imm = 0xAF6
	movw	$147, RunTimeSignatureAdjuster
	jmp	.LBB1_157
.LBB1_167:                              #   in Loop: Header=BB1_93 Depth=2
	movw	BasicBlockSignatureTracker, %ax
	xorw	$108, %ax
	cmpw	$2808, %ax              # imm = 0xAF8
	jne	.LBB1_218
# %bb.168:                              # %fallbackSort.split553
                                        #   in Loop: Header=BB1_93 Depth=2
	movw	$2808, BasicBlockSignatureTracker # imm = 0xAF8
	movw	$152, RunTimeSignatureAdjuster
.LBB1_169:                              #   in Loop: Header=BB1_93 Depth=2
	movw	BasicBlockSignatureTracker, %ax
	movw	RunTimeSignatureAdjuster, %cx
	xorw	$353, %ax               # imm = 0x161
	xorw	%cx, %ax
	cmpw	$2817, %ax              # imm = 0xB01
	jne	.LBB1_218
# %bb.170:                              # %fallbackSort.split547
                                        #   in Loop: Header=BB1_93 Depth=2
	movw	$2817, BasicBlockSignatureTracker # imm = 0xB01
	movw	$3172, RunTimeSignatureAdjuster # imm = 0xC64
	jmp	.LBB1_93
.LBB1_171:                              #   in Loop: Header=BB1_71 Depth=1
	movw	BasicBlockSignatureTracker, %ax
	movw	RunTimeSignatureAdjuster, %cx
	xorw	$982, %ax               # imm = 0x3D6
	xorw	%cx, %ax
	cmpw	$2819, %ax              # imm = 0xB03
	jne	.LBB1_220
# %bb.172:                              # %fallbackSort.split513
                                        #   in Loop: Header=BB1_71 Depth=1
	movl	(%r15), %eax
	movw	$2819, BasicBlockSignatureTracker # imm = 0xB03
	movw	$0, RunTimeSignatureAdjuster
	cmpl	$4, %eax
	jl	.LBB1_175
# %bb.173:                              #   in Loop: Header=BB1_71 Depth=1
	movw	BasicBlockSignatureTracker, %ax
	xorw	$8, %ax
	cmpw	$2827, %ax              # imm = 0xB0B
	jne	.LBB1_220
# %bb.174:                              # %fallbackSort.split561
                                        #   in Loop: Header=BB1_71 Depth=1
	movabsq	$.L.str.4, %rsi
	movq	stderr, %rdi
	movq	-104(%rbp), %rax        # 8-byte Reload
	movl	(%rax), %edx
	movb	$0, %al
	callq	fprintf
	movw	$2827, BasicBlockSignatureTracker # imm = 0xB0B
	movw	$8, RunTimeSignatureAdjuster
.LBB1_175:                              #   in Loop: Header=BB1_71 Depth=1
	movw	BasicBlockSignatureTracker, %ax
	movw	RunTimeSignatureAdjuster, %cx
	xorw	$61, %ax
	xorw	%cx, %ax
	cmpw	$2878, %ax              # imm = 0xB3E
	jne	.LBB1_220
# %bb.176:                              # %fallbackSort.split563
                                        #   in Loop: Header=BB1_71 Depth=1
	movq	-120(%rbp), %rcx        # 8-byte Reload
	movl	(%rcx), %eax
	shll	$1, %eax
	movl	%eax, (%rcx)
	movl	(%rcx), %eax
	movq	-64(%rbp), %rcx         # 8-byte Reload
	movl	(%rcx), %ecx
	movw	$2878, BasicBlockSignatureTracker # imm = 0xB3E
	movw	$0, RunTimeSignatureAdjuster
	cmpl	%ecx, %eax
	jg	.LBB1_179
# %bb.177:                              #   in Loop: Header=BB1_71 Depth=1
	movw	BasicBlockSignatureTracker, %ax
	xorw	$87, %ax
	cmpw	$2921, %ax              # imm = 0xB69
	jne	.LBB1_220
# %bb.178:                              # %fallbackSort.split567
                                        #   in Loop: Header=BB1_71 Depth=1
	movq	-104(%rbp), %rax        # 8-byte Reload
	movl	(%rax), %eax
	movw	$2921, BasicBlockSignatureTracker # imm = 0xB69
	movw	$87, RunTimeSignatureAdjuster
	cmpl	$0, %eax
	jne	.LBB1_181
.LBB1_179:
	movw	BasicBlockSignatureTracker, %ax
	movw	RunTimeSignatureAdjuster, %cx
	xorw	$168, %ax
	xorw	%cx, %ax
	cmpw	$2966, %ax              # imm = 0xB96
	jne	.LBB1_229
# %bb.180:                              # %fallbackSort.split565
	movw	$2966, BasicBlockSignatureTracker # imm = 0xB96
	movw	$0, RunTimeSignatureAdjuster
	jmp	.LBB1_185
.LBB1_181:                              # %Buffer__
                                        #   in Loop: Header=BB1_71 Depth=1
	movw	BasicBlockSignatureTracker, %ax
	xorw	$11558, %ax             # imm = 0x2D26
	cmpw	$9807, %ax              # imm = 0x264F
	jne	.LBB1_220
# %bb.182:                              # %fallbackSort.split569
                                        #   in Loop: Header=BB1_71 Depth=1
	movw	$9807, BasicBlockSignatureTracker # imm = 0x264F
	movw	$11558, RunTimeSignatureAdjuster # imm = 0x2D26
# %bb.183:                              #   in Loop: Header=BB1_71 Depth=1
	movw	BasicBlockSignatureTracker, %ax
	movw	RunTimeSignatureAdjuster, %cx
	xorw	$202, %ax
	xorw	%cx, %ax
	cmpw	$2979, %ax              # imm = 0xBA3
	jne	.LBB1_220
# %bb.184:                              # %fallbackSort.split595
                                        #   in Loop: Header=BB1_71 Depth=1
	movw	$2979, BasicBlockSignatureTracker # imm = 0xBA3
	movw	$3375, RunTimeSignatureAdjuster # imm = 0xD2F
	jmp	.LBB1_71
.LBB1_185:
	movw	BasicBlockSignatureTracker, %ax
	xorw	$34, %ax
	cmpw	$2996, %ax              # imm = 0xBB4
	jne	.LBB1_229
# %bb.186:                              # %fallbackSort.split571
	movl	(%r15), %eax
	movw	$2996, BasicBlockSignatureTracker # imm = 0xBB4
	movw	$0, RunTimeSignatureAdjuster
	cmpl	$4, %eax
	jl	.LBB1_189
# %bb.187:
	movw	BasicBlockSignatureTracker, %ax
	xorw	$68, %ax
	cmpw	$3056, %ax              # imm = 0xBF0
	jne	.LBB1_229
# %bb.188:                              # %fallbackSort.split573
	movabsq	$.L.str.5, %rsi
	movq	stderr, %rdi
	movb	$0, %al
	callq	fprintf
	movw	$3056, BasicBlockSignatureTracker # imm = 0xBF0
	movw	$68, RunTimeSignatureAdjuster
.LBB1_189:
	movw	BasicBlockSignatureTracker, %ax
	movw	RunTimeSignatureAdjuster, %cx
	xorw	$67, %ax
	xorw	%cx, %ax
	cmpw	$3063, %ax              # imm = 0xBF7
	movq	%r12, %rax
	movq	%rbx, %rcx
	jne	.LBB1_229
# %bb.190:                              # %fallbackSort.split575
	movl	$0, (%rax)
	movl	$0, (%rcx)
	movw	$3063, BasicBlockSignatureTracker # imm = 0xBF7
	movw	$0, RunTimeSignatureAdjuster
.LBB1_191:                              # =>This Loop Header: Depth=1
                                        #     Child Loop BB1_195 Depth 2
	movw	BasicBlockSignatureTracker, %ax
	movw	RunTimeSignatureAdjuster, %cx
	xorw	$10, %ax
	xorw	%cx, %ax
	cmpw	$3069, %ax              # imm = 0xBFD
	jne	.LBB1_210
# %bb.192:                              # %fallbackSort.split577
                                        #   in Loop: Header=BB1_191 Depth=1
	movl	(%rbx), %eax
	movq	-64(%rbp), %rcx         # 8-byte Reload
	movl	(%rcx), %ecx
	movw	$3069, BasicBlockSignatureTracker # imm = 0xBFD
	movw	$0, RunTimeSignatureAdjuster
	cmpl	%ecx, %eax
	jge	.LBB1_203
# %bb.193:                              #   in Loop: Header=BB1_191 Depth=1
	movw	BasicBlockSignatureTracker, %ax
	xorw	$2012, %ax              # imm = 0x7DC
	cmpw	$3105, %ax              # imm = 0xC21
	jne	.LBB1_210
# %bb.194:                              # %fallbackSort.split579
                                        #   in Loop: Header=BB1_191 Depth=1
	movw	$3105, BasicBlockSignatureTracker # imm = 0xC21
	movw	$0, RunTimeSignatureAdjuster
.LBB1_195:                              #   Parent Loop BB1_191 Depth=1
                                        # =>  This Inner Loop Header: Depth=2
	movw	BasicBlockSignatureTracker, %ax
	movw	RunTimeSignatureAdjuster, %cx
	xorw	$123, %ax
	xorw	%cx, %ax
	cmpw	$3162, %ax              # imm = 0xC5A
	jne	.LBB1_209
# %bb.196:                              # %fallbackSort.split583
                                        #   in Loop: Header=BB1_195 Depth=2
	movslq	(%r12), %rax
	movq	-96(%rbp), %rcx         # 8-byte Reload
	movl	(%rcx,%rax,4), %eax
	movw	$3162, BasicBlockSignatureTracker # imm = 0xC5A
	movw	$0, RunTimeSignatureAdjuster
	cmpl	$0, %eax
	jne	.LBB1_199
# %bb.197:                              #   in Loop: Header=BB1_195 Depth=2
	movw	BasicBlockSignatureTracker, %ax
	xorw	$63, %ax
	cmpw	$3173, %ax              # imm = 0xC65
	jne	.LBB1_209
# %bb.198:                              # %fallbackSort.split585
                                        #   in Loop: Header=BB1_195 Depth=2
	movq	%r12, %rcx
	movl	(%rcx), %eax
	addl	$1, %eax
	movl	%eax, (%rcx)
	movw	$3173, BasicBlockSignatureTracker # imm = 0xC65
	movw	$68, RunTimeSignatureAdjuster
	jmp	.LBB1_195
.LBB1_199:                              #   in Loop: Header=BB1_191 Depth=1
	movw	BasicBlockSignatureTracker, %ax
	xorw	$218, %ax
	cmpw	$3200, %ax              # imm = 0xC80
	jne	.LBB1_210
# %bb.200:                              # %fallbackSort.split587
                                        #   in Loop: Header=BB1_191 Depth=1
	movq	%r12, %rsi
	movslq	(%rsi), %rax
	movq	-96(%rbp), %rdx         # 8-byte Reload
	movl	(%rdx,%rax,4), %ecx
	addl	$-1, %ecx
	movl	%ecx, (%rdx,%rax,4)
	movl	(%rsi), %eax
	movq	(%r14), %rcx
	movq	-88(%rbp), %rdx         # 8-byte Reload
	movq	(%rdx), %rdx
	movslq	(%rbx), %rsi
	movl	(%rdx,%rsi,4), %edx
	movb	%al, (%rcx,%rdx)
	movw	$3200, BasicBlockSignatureTracker # imm = 0xC80
	movw	$0, RunTimeSignatureAdjuster
# %bb.201:                              #   in Loop: Header=BB1_191 Depth=1
	movw	BasicBlockSignatureTracker, %ax
	xorw	$63, %ax
	cmpw	$3263, %ax              # imm = 0xCBF
	jne	.LBB1_210
# %bb.202:                              # %fallbackSort.split589
                                        #   in Loop: Header=BB1_191 Depth=1
	movq	%rbx, %rcx
	movl	(%rcx), %eax
	addl	$1, %eax
	movl	%eax, (%rcx)
	movw	$3263, BasicBlockSignatureTracker # imm = 0xCBF
	movw	$1864, RunTimeSignatureAdjuster # imm = 0x748
	jmp	.LBB1_191
.LBB1_203:
	movw	BasicBlockSignatureTracker, %ax
	xorw	$1840, %ax              # imm = 0x730
	cmpw	$3277, %ax              # imm = 0xCCD
	jne	.LBB1_229
# %bb.204:                              # %fallbackSort.split581
	movl	(%r12), %eax
	movw	$3277, BasicBlockSignatureTracker # imm = 0xCCD
	movw	$0, RunTimeSignatureAdjuster
	cmpl	$256, %eax              # imm = 0x100
	jl	.LBB1_207
# %bb.205:
	movw	BasicBlockSignatureTracker, %ax
	xorw	$35, %ax
	cmpw	$3310, %ax              # imm = 0xCEE
	jne	.LBB1_229
# %bb.206:                              # %fallbackSort.split593
	movw	$3310, BasicBlockSignatureTracker # imm = 0xCEE
	movw	$3753, RunTimeSignatureAdjuster # imm = 0xEA9
	movl	$1005, %edi             # imm = 0x3ED
	callq	BZ2_bz__AssertH__fail
	movw	$3310, BasicBlockSignatureTracker # imm = 0xCEE
	movw	$3753, RunTimeSignatureAdjuster # imm = 0xEA9
	movw	$3310, BasicBlockSignatureTracker # imm = 0xCEE
	movw	$35, RunTimeSignatureAdjuster
.LBB1_207:
	movw	BasicBlockSignatureTracker, %ax
	movw	RunTimeSignatureAdjuster, %cx
	xorw	$467, %ax               # imm = 0x1D3
	xorw	%cx, %ax
	cmpw	$3358, %ax              # imm = 0xD1E
	jne	.LBB1_229
# %bb.208:                              # %fallbackSort.split591
	movw	$3358, BasicBlockSignatureTracker # imm = 0xD1E
	movw	$3356, RunTimeSignatureAdjuster # imm = 0xD1C
	leaq	-40(%rbp), %rsp
	popq	%rbx
	popq	%r12
	popq	%r13
	popq	%r14
	popq	%r15
	popq	%rbp
	retq
.LBB1_209:                              # %CFerrorHandler.fallbackSort.loopexit
	jmp	.LBB1_229
.LBB1_210:                              # %CFerrorHandler.fallbackSort.loopexit1
	jmp	.LBB1_229
.LBB1_211:                              # %CFerrorHandler.fallbackSort.loopexit2
	jmp	.LBB1_229
.LBB1_212:                              # %CFerrorHandler.fallbackSort.loopexit3
	jmp	.LBB1_229
.LBB1_213:                              # %CFerrorHandler.fallbackSort.loopexit4
	jmp	.LBB1_229
.LBB1_214:                              # %CFerrorHandler.fallbackSort.loopexit5
	jmp	.LBB1_229
.LBB1_215:                              # %CFerrorHandler.fallbackSort.loopexit6
	jmp	.LBB1_229
.LBB1_216:                              # %CFerrorHandler.fallbackSort.loopexit7
	jmp	.LBB1_229
.LBB1_217:                              # %CFerrorHandler.fallbackSort.loopexit8
	jmp	.LBB1_229
.LBB1_218:                              # %CFerrorHandler.fallbackSort.loopexit9
	jmp	.LBB1_229
.LBB1_219:                              # %CFerrorHandler.fallbackSort.loopexit10
	jmp	.LBB1_229
.LBB1_220:                              # %CFerrorHandler.fallbackSort.loopexit11
	jmp	.LBB1_229
.LBB1_221:                              # %CFerrorHandler.fallbackSort.loopexit12
	jmp	.LBB1_229
.LBB1_222:                              # %CFerrorHandler.fallbackSort.loopexit13
	jmp	.LBB1_229
.LBB1_223:                              # %CFerrorHandler.fallbackSort.loopexit14
	jmp	.LBB1_229
.LBB1_224:                              # %CFerrorHandler.fallbackSort.loopexit15
	jmp	.LBB1_229
.LBB1_225:                              # %CFerrorHandler.fallbackSort.loopexit16
	jmp	.LBB1_229
.LBB1_226:                              # %CFerrorHandler.fallbackSort.loopexit17
	jmp	.LBB1_229
.LBB1_227:                              # %CFerrorHandler.fallbackSort.loopexit18
	jmp	.LBB1_229
.LBB1_228:                              # %CFerrorHandler.fallbackSort.loopexit19
	jmp	.LBB1_229
.LBB1_229:                              # %CFerrorHandler.fallbackSort
	callq	FAULT_DETECTED_CFC
.Lfunc_end1:
	.size	fallbackSort, .Lfunc_end1-fallbackSort
	.cfi_endproc
                                        # -- End function
	.p2align	4, 0x90         # -- Begin function mainSort
	.type	mainSort,@function
mainSort:                               # @mainSort
	.cfi_startproc
# %bb.0:
	pushq	%rbp
	.cfi_def_cfa_offset 16
	.cfi_offset %rbp, -16
	movq	%rsp, %rbp
	.cfi_def_cfa_register %rbp
	pushq	%r15
	pushq	%r14
	pushq	%r13
	pushq	%r12
	pushq	%rbx
	subq	$200, %rsp
	.cfi_offset %rbx, -56
	.cfi_offset %r12, -48
	.cfi_offset %r13, -40
	.cfi_offset %r14, -32
	.cfi_offset %r15, -24
	movl	%r9d, -72(%rbp)         # 4-byte Spill
	movw	BasicBlockSignatureTracker, %bx
	movw	RunTimeSignatureAdjuster, %ax
	xorw	$3462, %bx              # imm = 0xD86
	xorw	%ax, %bx
	cmpw	$3435, %bx              # imm = 0xD6B
	jne	.LBB2_260
# %bb.1:                                # %mainSort.split
	movq	%rsp, %rax
	addq	$-16, %rax
	movq	%rax, %rsp
	movq	%rsp, %r9
	addq	$-16, %r9
	movq	%r9, %rsp
	movq	%rsp, %r11
	addq	$-16, %r11
	movq	%r11, %rsp
	movq	%rsp, %r12
	addq	$-16, %r12
	movq	%r12, %rsp
	movq	%rsp, %rbx
	addq	$-16, %rbx
	movq	%rbx, %rsp
	movq	%rsp, %r15
	addq	$-16, %r15
	movq	%r15, %rsp
	movq	%rsp, %r13
	addq	$-16, %r13
	movq	%r13, %rsp
	movq	%rsp, %r10
	addq	$-16, %r10
	movq	%r10, -56(%rbp)         # 8-byte Spill
	movq	%r10, %rsp
	movq	%rsp, %r10
	addq	$-16, %r10
	movq	%r10, -48(%rbp)         # 8-byte Spill
	movq	%r10, %rsp
	movq	%rsp, %r10
	addq	$-16, %r10
	movq	%r10, -96(%rbp)         # 8-byte Spill
	movq	%r10, %rsp
	movq	%rsp, %r10
	addq	$-16, %r10
	movq	%r10, -64(%rbp)         # 8-byte Spill
	movq	%r10, %rsp
	movq	%rsp, %r10
	addq	$-16, %r10
	movq	%r10, -208(%rbp)        # 8-byte Spill
	movq	%r10, %rsp
	movq	%rsp, %r10
	addq	$-1024, %r10            # imm = 0xFC00
	movq	%r10, -120(%rbp)        # 8-byte Spill
	movq	%r10, %rsp
	movq	%rsp, %r10
	addq	$-256, %r10
	movq	%r10, -152(%rbp)        # 8-byte Spill
	movq	%r10, %rsp
	movq	%rsp, %r10
	addq	$-1024, %r10            # imm = 0xFC00
	movq	%r10, -144(%rbp)        # 8-byte Spill
	movq	%r10, %rsp
	movq	%rsp, %r10
	addq	$-1024, %r10            # imm = 0xFC00
	movq	%r10, -136(%rbp)        # 8-byte Spill
	movq	%r10, %rsp
	movq	%rsp, %r10
	addq	$-16, %r10
	movq	%r10, -168(%rbp)        # 8-byte Spill
	movq	%r10, %rsp
	movq	%rsp, %r10
	addq	$-16, %r10
	movq	%r10, -176(%rbp)        # 8-byte Spill
	movq	%r10, %rsp
	movq	%rsp, %r10
	addq	$-16, %r10
	movq	%r10, -216(%rbp)        # 8-byte Spill
	movq	%r10, %rsp
	movq	%rsp, %r10
	addq	$-16, %r10
	movq	%r10, -192(%rbp)        # 8-byte Spill
	movq	%r10, %rsp
	movq	%rsp, %r10
	addq	$-16, %r10
	movq	%r10, -112(%rbp)        # 8-byte Spill
	movq	%r10, %rsp
	movq	%rsp, %r10
	addq	$-16, %r10
	movq	%r10, %rsp
	movq	%rsp, %r14
	addq	$-16, %r14
	movq	%r14, -200(%rbp)        # 8-byte Spill
	movq	%r14, %rsp
	movq	%rsp, %r14
	addq	$-16, %r14
	movq	%r14, -240(%rbp)        # 8-byte Spill
	movq	%r14, %rsp
	movq	%rsp, %r14
	addq	$-16, %r14
	movq	%r14, -160(%rbp)        # 8-byte Spill
	movq	%r14, %rsp
	movq	%rsp, %r14
	addq	$-16, %r14
	movq	%r14, -128(%rbp)        # 8-byte Spill
	movq	%r14, %rsp
	movq	%rsp, %r14
	addq	$-16, %r14
	movq	%r14, -232(%rbp)        # 8-byte Spill
	movq	%r14, %rsp
	movq	%rsp, %r14
	addq	$-16, %r14
	movq	%r14, -224(%rbp)        # 8-byte Spill
	movq	%r14, %rsp
	movq	%r11, %r14
	movq	%rax, -104(%rbp)        # 8-byte Spill
	movq	%rdi, (%rax)
	movq	%rsi, (%r9)
	movq	%rdx, (%r14)
	movq	%rcx, (%r12)
	movl	%r8d, (%rbx)
	movl	-72(%rbp), %eax         # 4-byte Reload
	movl	%eax, (%r15)
	movq	16(%rbp), %rax
	movq	%rax, (%r13)
	movl	(%r15), %eax
	movw	$3435, BasicBlockSignatureTracker # imm = 0xD6B
	movw	$0, RunTimeSignatureAdjuster
	cmpl	$4, %eax
	jl	.LBB2_4
# %bb.2:
	movw	BasicBlockSignatureTracker, %ax
	xorw	$247, %ax
	cmpw	$3484, %ax              # imm = 0xD9C
	jne	.LBB2_260
# %bb.3:                                # %mainSort.split445
	movabsq	$.L.str.6, %rsi
	movq	stderr, %rdi
	movb	$0, %al
	movq	%r13, -184(%rbp)        # 8-byte Spill
	movq	%r15, -72(%rbp)         # 8-byte Spill
	movq	%r12, -88(%rbp)         # 8-byte Spill
	movq	%r14, -80(%rbp)         # 8-byte Spill
	movq	%r9, %r14
	movq	%r10, %r12
	callq	fprintf
	movq	%r12, %r10
	movq	%r14, %r9
	movq	-80(%rbp), %r14         # 8-byte Reload
	movq	-88(%rbp), %r12         # 8-byte Reload
	movq	-72(%rbp), %r15         # 8-byte Reload
	movq	-184(%rbp), %r13        # 8-byte Reload
	movw	$3484, BasicBlockSignatureTracker # imm = 0xD9C
	movw	$247, RunTimeSignatureAdjuster
.LBB2_4:
	movw	BasicBlockSignatureTracker, %ax
	movw	RunTimeSignatureAdjuster, %cx
	xorw	$207, %ax
	xorw	%cx, %ax
	cmpw	$3492, %ax              # imm = 0xDA4
	jne	.LBB2_260
# %bb.5:                                # %mainSort.split447
	movq	-56(%rbp), %rdx         # 8-byte Reload
	movl	$65536, (%rdx)          # imm = 0x10000
	movw	$3492, BasicBlockSignatureTracker # imm = 0xDA4
	movw	$0, RunTimeSignatureAdjuster
.LBB2_6:                                # =>This Inner Loop Header: Depth=1
	movw	BasicBlockSignatureTracker, %ax
	movw	RunTimeSignatureAdjuster, %cx
	xorw	$89, %ax
	xorw	%cx, %ax
	cmpw	$3581, %ax              # imm = 0xDFD
	jne	.LBB2_259
# %bb.7:                                # %mainSort.split449
                                        #   in Loop: Header=BB2_6 Depth=1
	movl	(%rdx), %eax
	movw	$3581, BasicBlockSignatureTracker # imm = 0xDFD
	movw	$0, RunTimeSignatureAdjuster
	cmpl	$0, %eax
	jl	.LBB2_12
# %bb.8:                                #   in Loop: Header=BB2_6 Depth=1
	movw	BasicBlockSignatureTracker, %ax
	xorw	$972, %ax               # imm = 0x3CC
	cmpw	$3633, %ax              # imm = 0xE31
	jne	.LBB2_259
# %bb.9:                                # %mainSort.split451
                                        #   in Loop: Header=BB2_6 Depth=1
	movq	(%r12), %rax
	movslq	(%rdx), %rcx
	movl	$0, (%rax,%rcx,4)
	movw	$3633, BasicBlockSignatureTracker # imm = 0xE31
	movw	$0, RunTimeSignatureAdjuster
# %bb.10:                               #   in Loop: Header=BB2_6 Depth=1
	movw	BasicBlockSignatureTracker, %ax
	xorw	$118, %ax
	cmpw	$3655, %ax              # imm = 0xE47
	jne	.LBB2_259
# %bb.11:                               # %mainSort.split455
                                        #   in Loop: Header=BB2_6 Depth=1
	movl	(%rdx), %eax
	addl	$-1, %eax
	movl	%eax, (%rdx)
	movw	$3655, BasicBlockSignatureTracker # imm = 0xE47
	movw	$995, RunTimeSignatureAdjuster # imm = 0x3E3
	jmp	.LBB2_6
.LBB2_12:
	movw	BasicBlockSignatureTracker, %ax
	xorw	$901, %ax               # imm = 0x385
	cmpw	$3704, %ax              # imm = 0xE78
	jne	.LBB2_260
# %bb.13:                               # %mainSort.split453
	movq	(%r9), %rax
	movzbl	(%rax), %eax
	shll	$8, %eax
	movq	-48(%rbp), %rcx         # 8-byte Reload
	movl	%eax, (%rcx)
	movl	(%rbx), %eax
	subl	$1, %eax
	movq	-56(%rbp), %rsi         # 8-byte Reload
	movl	%eax, (%rsi)
	movw	$3704, BasicBlockSignatureTracker # imm = 0xE78
	movw	$0, RunTimeSignatureAdjuster
.LBB2_14:                               # =>This Inner Loop Header: Depth=1
	movw	BasicBlockSignatureTracker, %ax
	movw	RunTimeSignatureAdjuster, %cx
	xorw	$3, %ax
	xorw	%cx, %ax
	cmpw	$3707, %ax              # imm = 0xE7B
	jne	.LBB2_258
# %bb.15:                               # %mainSort.split457
                                        #   in Loop: Header=BB2_14 Depth=1
	movl	(%rsi), %eax
	movw	$3707, BasicBlockSignatureTracker # imm = 0xE7B
	movw	$0, RunTimeSignatureAdjuster
	cmpl	$3, %eax
	jl	.LBB2_20
# %bb.16:                               #   in Loop: Header=BB2_14 Depth=1
	movw	BasicBlockSignatureTracker, %ax
	xorw	$229, %ax
	cmpw	$3742, %ax              # imm = 0xE9E
	jne	.LBB2_258
# %bb.17:                               # %mainSort.split459
                                        #   in Loop: Header=BB2_14 Depth=1
	movq	(%r14), %rax
	movslq	(%rsi), %rcx
	movw	$0, (%rax,%rcx,2)
	movq	-48(%rbp), %rdi         # 8-byte Reload
	movl	(%rdi), %eax
	sarl	$8, %eax
	movq	(%r9), %rcx
	movslq	(%rsi), %rdx
	movzbl	(%rcx,%rdx), %ecx
	movzwl	%cx, %ecx
	shll	$8, %ecx
	orl	%ecx, %eax
	movl	%eax, (%rdi)
	movq	(%r12), %rax
	movslq	(%rdi), %rcx
	movl	(%rax,%rcx,4), %edx
	addl	$1, %edx
	movl	%edx, (%rax,%rcx,4)
	movq	(%r14), %rax
	movl	(%rsi), %ecx
	subl	$1, %ecx
	movslq	%ecx, %rcx
	movw	$0, (%rax,%rcx,2)
	movl	(%rdi), %eax
	sarl	$8, %eax
	movq	(%r9), %rcx
	movl	(%rsi), %edx
	subl	$1, %edx
	movslq	%edx, %rdx
	movzbl	(%rcx,%rdx), %ecx
	movzwl	%cx, %ecx
	shll	$8, %ecx
	orl	%ecx, %eax
	movl	%eax, (%rdi)
	movq	(%r12), %rax
	movslq	(%rdi), %rcx
	movl	(%rax,%rcx,4), %edx
	addl	$1, %edx
	movl	%edx, (%rax,%rcx,4)
	movq	(%r14), %rax
	movl	(%rsi), %ecx
	subl	$2, %ecx
	movslq	%ecx, %rcx
	movw	$0, (%rax,%rcx,2)
	movl	(%rdi), %eax
	sarl	$8, %eax
	movq	(%r9), %rcx
	movl	(%rsi), %edx
	subl	$2, %edx
	movslq	%edx, %rdx
	movzbl	(%rcx,%rdx), %ecx
	movzwl	%cx, %ecx
	shll	$8, %ecx
	orl	%ecx, %eax
	movl	%eax, (%rdi)
	movq	(%r12), %rax
	movslq	(%rdi), %rcx
	movl	(%rax,%rcx,4), %edx
	addl	$1, %edx
	movl	%edx, (%rax,%rcx,4)
	movq	(%r14), %rax
	movl	(%rsi), %ecx
	subl	$3, %ecx
	movslq	%ecx, %rcx
	movw	$0, (%rax,%rcx,2)
	movl	(%rdi), %eax
	sarl	$8, %eax
	movq	(%r9), %rcx
	movl	(%rsi), %edx
	subl	$3, %edx
	movslq	%edx, %rdx
	movzbl	(%rcx,%rdx), %ecx
	movzwl	%cx, %ecx
	shll	$8, %ecx
	orl	%ecx, %eax
	movl	%eax, (%rdi)
	movq	(%r12), %rax
	movslq	(%rdi), %rcx
	movl	(%rax,%rcx,4), %edx
	addl	$1, %edx
	movl	%edx, (%rax,%rcx,4)
	movw	$3742, BasicBlockSignatureTracker # imm = 0xE9E
	movw	$0, RunTimeSignatureAdjuster
# %bb.18:                               #   in Loop: Header=BB2_14 Depth=1
	movw	BasicBlockSignatureTracker, %ax
	xorw	$59, %ax
	cmpw	$3749, %ax              # imm = 0xEA5
	jne	.LBB2_258
# %bb.19:                               # %mainSort.split463
                                        #   in Loop: Header=BB2_14 Depth=1
	movl	(%rsi), %eax
	subl	$4, %eax
	movl	%eax, (%rsi)
	movw	$3749, BasicBlockSignatureTracker # imm = 0xEA5
	movw	$221, RunTimeSignatureAdjuster
	jmp	.LBB2_14
.LBB2_20:
	movw	BasicBlockSignatureTracker, %ax
	xorw	$208, %ax
	cmpw	$3755, %ax              # imm = 0xEAB
	jne	.LBB2_260
# %bb.21:                               # %mainSort.split461
	movw	$3755, BasicBlockSignatureTracker # imm = 0xEAB
	movw	$0, RunTimeSignatureAdjuster
	movq	-56(%rbp), %rsi         # 8-byte Reload
.LBB2_22:                               # =>This Inner Loop Header: Depth=1
	movw	BasicBlockSignatureTracker, %ax
	movw	RunTimeSignatureAdjuster, %cx
	xorw	$97, %ax
	xorw	%cx, %ax
	cmpw	$3786, %ax              # imm = 0xECA
	jne	.LBB2_257
# %bb.23:                               # %mainSort.split465
                                        #   in Loop: Header=BB2_22 Depth=1
	movl	(%rsi), %eax
	movw	$3786, BasicBlockSignatureTracker # imm = 0xECA
	movw	$0, RunTimeSignatureAdjuster
	cmpl	$0, %eax
	jl	.LBB2_28
# %bb.24:                               #   in Loop: Header=BB2_22 Depth=1
	movw	BasicBlockSignatureTracker, %ax
	xorw	$20, %ax
	cmpw	$3806, %ax              # imm = 0xEDE
	jne	.LBB2_257
# %bb.25:                               # %mainSort.split467
                                        #   in Loop: Header=BB2_22 Depth=1
	movq	(%r14), %rax
	movslq	(%rsi), %rcx
	movw	$0, (%rax,%rcx,2)
	movq	-48(%rbp), %rdi         # 8-byte Reload
	movl	(%rdi), %eax
	sarl	$8, %eax
	movq	(%r9), %rcx
	movslq	(%rsi), %rdx
	movzbl	(%rcx,%rdx), %ecx
	movzwl	%cx, %ecx
	shll	$8, %ecx
	orl	%ecx, %eax
	movl	%eax, (%rdi)
	movq	(%r12), %rax
	movslq	(%rdi), %rcx
	movl	(%rax,%rcx,4), %edx
	addl	$1, %edx
	movl	%edx, (%rax,%rcx,4)
	movw	$3806, BasicBlockSignatureTracker # imm = 0xEDE
	movw	$0, RunTimeSignatureAdjuster
# %bb.26:                               #   in Loop: Header=BB2_22 Depth=1
	movw	BasicBlockSignatureTracker, %ax
	xorw	$60, %ax
	cmpw	$3810, %ax              # imm = 0xEE2
	jne	.LBB2_257
# %bb.27:                               # %mainSort.split471
                                        #   in Loop: Header=BB2_22 Depth=1
	movl	(%rsi), %eax
	addl	$-1, %eax
	movl	%eax, (%rsi)
	movw	$3810, BasicBlockSignatureTracker # imm = 0xEE2
	movw	$73, RunTimeSignatureAdjuster
	jmp	.LBB2_22
.LBB2_28:
	movw	BasicBlockSignatureTracker, %ax
	xorw	$41, %ax
	cmpw	$3811, %ax              # imm = 0xEE3
	jne	.LBB2_260
# %bb.29:                               # %mainSort.split469
	movq	-56(%rbp), %rsi         # 8-byte Reload
	movl	$0, (%rsi)
	movw	$3811, BasicBlockSignatureTracker # imm = 0xEE3
	movw	$0, RunTimeSignatureAdjuster
.LBB2_30:                               # =>This Inner Loop Header: Depth=1
	movw	BasicBlockSignatureTracker, %ax
	movw	RunTimeSignatureAdjuster, %cx
	xorw	$486, %ax               # imm = 0x1E6
	xorw	%cx, %ax
	cmpw	$3845, %ax              # imm = 0xF05
	jne	.LBB2_256
# %bb.31:                               # %mainSort.split473
                                        #   in Loop: Header=BB2_30 Depth=1
	movl	(%rsi), %eax
	movw	$3845, BasicBlockSignatureTracker # imm = 0xF05
	movw	$0, RunTimeSignatureAdjuster
	cmpl	$34, %eax
	jge	.LBB2_36
# %bb.32:                               #   in Loop: Header=BB2_30 Depth=1
	movw	BasicBlockSignatureTracker, %ax
	xorw	$55, %ax
	cmpw	$3890, %ax              # imm = 0xF32
	jne	.LBB2_256
# %bb.33:                               # %mainSort.split475
                                        #   in Loop: Header=BB2_30 Depth=1
	movq	%r10, -72(%rbp)         # 8-byte Spill
	movq	(%r9), %rax
	movslq	(%rsi), %rcx
	movb	(%rax,%rcx), %al
	movq	%r9, %r8
	movq	(%r9), %rcx
	movl	(%rbx), %edx
	addl	(%rsi), %edx
	movslq	%edx, %rdx
	movb	%al, (%rcx,%rdx)
	movq	%r14, %rdi
	movq	(%r14), %rax
	movq	%rbx, %rdx
	movl	(%rbx), %ecx
	addl	(%rsi), %ecx
	movslq	%ecx, %rcx
	movw	$0, (%rax,%rcx,2)
	movw	$3890, BasicBlockSignatureTracker # imm = 0xF32
	movw	$0, RunTimeSignatureAdjuster
# %bb.34:                               #   in Loop: Header=BB2_30 Depth=1
	movw	BasicBlockSignatureTracker, %ax
	xorw	$117, %ax
	cmpw	$3911, %ax              # imm = 0xF47
	movq	%rdx, %rbx
	movq	%r8, %r9
	movq	%rdi, %r14
	movq	-56(%rbp), %rsi         # 8-byte Reload
	movq	-72(%rbp), %r10         # 8-byte Reload
	jne	.LBB2_256
# %bb.35:                               # %mainSort.split479
                                        #   in Loop: Header=BB2_30 Depth=1
	movl	(%rsi), %eax
	addl	$1, %eax
	movl	%eax, (%rsi)
	movw	$3911, BasicBlockSignatureTracker # imm = 0xF47
	movw	$420, RunTimeSignatureAdjuster # imm = 0x1A4
	jmp	.LBB2_30
.LBB2_36:
	movw	BasicBlockSignatureTracker, %ax
	xorw	$91, %ax
	cmpw	$3934, %ax              # imm = 0xF5E
	jne	.LBB2_260
# %bb.37:                               # %mainSort.split477
	movq	%r10, -72(%rbp)         # 8-byte Spill
	movq	%r9, -88(%rbp)          # 8-byte Spill
	movq	%rbx, -80(%rbp)         # 8-byte Spill
	movl	(%r15), %eax
	movw	$3934, BasicBlockSignatureTracker # imm = 0xF5E
	movw	$0, RunTimeSignatureAdjuster
	cmpl	$4, %eax
	jl	.LBB2_40
# %bb.38:
	movw	BasicBlockSignatureTracker, %ax
	xorw	$40, %ax
	cmpw	$3958, %ax              # imm = 0xF76
	jne	.LBB2_260
# %bb.39:                               # %mainSort.split481
	movabsq	$.L.str.2, %rsi
	movq	stderr, %rdi
	movb	$0, %al
	callq	fprintf
	movw	$3958, BasicBlockSignatureTracker # imm = 0xF76
	movw	$40, RunTimeSignatureAdjuster
.LBB2_40:
	movw	BasicBlockSignatureTracker, %ax
	movw	RunTimeSignatureAdjuster, %cx
	xorw	$231, %ax
	xorw	%cx, %ax
	cmpw	$4025, %ax              # imm = 0xFB9
	jne	.LBB2_260
# %bb.41:                               # %mainSort.split483
	movq	-56(%rbp), %rax         # 8-byte Reload
	movl	$1, (%rax)
	movw	$4025, BasicBlockSignatureTracker # imm = 0xFB9
	movw	$0, RunTimeSignatureAdjuster
.LBB2_42:                               # =>This Inner Loop Header: Depth=1
	movw	BasicBlockSignatureTracker, %ax
	movw	RunTimeSignatureAdjuster, %cx
	xorw	$105, %ax
	xorw	%cx, %ax
	cmpw	$4048, %ax              # imm = 0xFD0
	jne	.LBB2_255
# %bb.43:                               # %mainSort.split485
                                        #   in Loop: Header=BB2_42 Depth=1
	movq	-56(%rbp), %rax         # 8-byte Reload
	movl	(%rax), %eax
	movw	$4048, BasicBlockSignatureTracker # imm = 0xFD0
	movw	$0, RunTimeSignatureAdjuster
	cmpl	$65536, %eax            # imm = 0x10000
	jg	.LBB2_48
# %bb.44:                               #   in Loop: Header=BB2_42 Depth=1
	movw	BasicBlockSignatureTracker, %ax
	xorw	$8, %ax
	cmpw	$4056, %ax              # imm = 0xFD8
	jne	.LBB2_255
# %bb.45:                               # %mainSort.split487
                                        #   in Loop: Header=BB2_42 Depth=1
	movq	%r12, %rdx
	movq	(%rdx), %rax
	movq	-56(%rbp), %rsi         # 8-byte Reload
	movl	(%rsi), %ecx
	subl	$1, %ecx
	movslq	%ecx, %rcx
	movl	(%rax,%rcx,4), %eax
	movq	(%rdx), %rcx
	movslq	(%rsi), %rdx
	addl	(%rcx,%rdx,4), %eax
	movl	%eax, (%rcx,%rdx,4)
	movw	$4056, BasicBlockSignatureTracker # imm = 0xFD8
	movw	$0, RunTimeSignatureAdjuster
# %bb.46:                               #   in Loop: Header=BB2_42 Depth=1
	movw	BasicBlockSignatureTracker, %ax
	xorw	$61, %ax
	cmpw	$4069, %ax              # imm = 0xFE5
	jne	.LBB2_255
# %bb.47:                               # %mainSort.split491
                                        #   in Loop: Header=BB2_42 Depth=1
	movq	-56(%rbp), %rcx         # 8-byte Reload
	movl	(%rcx), %eax
	addl	$1, %eax
	movl	%eax, (%rcx)
	movw	$4069, BasicBlockSignatureTracker # imm = 0xFE5
	movw	$92, RunTimeSignatureAdjuster
	jmp	.LBB2_42
.LBB2_48:
	movw	BasicBlockSignatureTracker, %ax
	xorw	$8146, %ax              # imm = 0x1FD2
	cmpw	$4098, %ax              # imm = 0x1002
	movq	-80(%rbp), %rcx         # 8-byte Reload
	movq	-88(%rbp), %rax         # 8-byte Reload
	jne	.LBB2_260
# %bb.49:                               # %mainSort.split489
	movq	(%rax), %rax
	movzbl	(%rax), %eax
	shll	$8, %eax
	movq	-216(%rbp), %rdx        # 8-byte Reload
	movw	%ax, (%rdx)
	movl	(%rcx), %eax
	subl	$1, %eax
	movq	-56(%rbp), %rcx         # 8-byte Reload
	movl	%eax, (%rcx)
	movw	$4098, BasicBlockSignatureTracker # imm = 0x1002
	movw	$0, RunTimeSignatureAdjuster
.LBB2_50:                               # =>This Inner Loop Header: Depth=1
	movw	BasicBlockSignatureTracker, %ax
	movw	RunTimeSignatureAdjuster, %cx
	xorw	$15, %ax
	xorw	%cx, %ax
	cmpw	$4109, %ax              # imm = 0x100D
	jne	.LBB2_254
# %bb.51:                               # %mainSort.split493
                                        #   in Loop: Header=BB2_50 Depth=1
	movq	-56(%rbp), %rax         # 8-byte Reload
	movl	(%rax), %eax
	movw	$4109, BasicBlockSignatureTracker # imm = 0x100D
	movw	$0, RunTimeSignatureAdjuster
	cmpl	$3, %eax
	jl	.LBB2_56
# %bb.52:                               #   in Loop: Header=BB2_50 Depth=1
	movw	BasicBlockSignatureTracker, %ax
	xorw	$28, %ax
	cmpw	$4113, %ax              # imm = 0x1011
	jne	.LBB2_254
# %bb.53:                               # %mainSort.split495
                                        #   in Loop: Header=BB2_50 Depth=1
	movq	-216(%rbp), %rsi        # 8-byte Reload
	movzwl	(%rsi), %eax
	sarl	$8, %eax
	movq	-88(%rbp), %r9          # 8-byte Reload
	movq	(%r9), %rcx
	movq	-56(%rbp), %r10         # 8-byte Reload
	movslq	(%r10), %rdx
	movzbl	(%rcx,%rdx), %ecx
	shll	$8, %ecx
	orl	%ecx, %eax
	movw	%ax, (%rsi)
	movq	%r12, %rbx
	movq	(%rbx), %rax
	movzwl	(%rsi), %ecx
	movl	(%rax,%rcx,4), %eax
	subl	$1, %eax
	movq	-48(%rbp), %rdi         # 8-byte Reload
	movl	%eax, (%rdi)
	movl	(%rdi), %eax
	movq	(%rbx), %rcx
	movzwl	(%rsi), %edx
	movl	%eax, (%rcx,%rdx,4)
	movl	(%r10), %eax
	movq	-104(%rbp), %r8         # 8-byte Reload
	movq	(%r8), %rcx
	movslq	(%rdi), %rdx
	movl	%eax, (%rcx,%rdx,4)
	movzwl	(%rsi), %eax
	sarl	$8, %eax
	movq	(%r9), %rcx
	movl	(%r10), %edx
	subl	$1, %edx
	movslq	%edx, %rdx
	movzbl	(%rcx,%rdx), %ecx
	shll	$8, %ecx
	orl	%ecx, %eax
	movw	%ax, (%rsi)
	movq	(%rbx), %rax
	movzwl	(%rsi), %ecx
	movl	(%rax,%rcx,4), %eax
	subl	$1, %eax
	movl	%eax, (%rdi)
	movl	(%rdi), %eax
	movq	(%rbx), %rcx
	movzwl	(%rsi), %edx
	movl	%eax, (%rcx,%rdx,4)
	movl	(%r10), %eax
	subl	$1, %eax
	movq	(%r8), %rcx
	movslq	(%rdi), %rdx
	movl	%eax, (%rcx,%rdx,4)
	movzwl	(%rsi), %eax
	sarl	$8, %eax
	movq	(%r9), %rcx
	movl	(%r10), %edx
	subl	$2, %edx
	movslq	%edx, %rdx
	movzbl	(%rcx,%rdx), %ecx
	shll	$8, %ecx
	orl	%ecx, %eax
	movw	%ax, (%rsi)
	movq	(%rbx), %rax
	movzwl	(%rsi), %ecx
	movl	(%rax,%rcx,4), %eax
	subl	$1, %eax
	movl	%eax, (%rdi)
	movl	(%rdi), %eax
	movq	(%rbx), %rcx
	movzwl	(%rsi), %edx
	movl	%eax, (%rcx,%rdx,4)
	movl	(%r10), %eax
	subl	$2, %eax
	movq	(%r8), %rcx
	movslq	(%rdi), %rdx
	movl	%eax, (%rcx,%rdx,4)
	movzwl	(%rsi), %eax
	sarl	$8, %eax
	movq	(%r9), %rcx
	movl	(%r10), %edx
	subl	$3, %edx
	movslq	%edx, %rdx
	movzbl	(%rcx,%rdx), %ecx
	shll	$8, %ecx
	orl	%ecx, %eax
	movw	%ax, (%rsi)
	movq	(%rbx), %rax
	movzwl	(%rsi), %ecx
	movl	(%rax,%rcx,4), %eax
	subl	$1, %eax
	movl	%eax, (%rdi)
	movl	(%rdi), %eax
	movq	(%rbx), %rcx
	movzwl	(%rsi), %edx
	movl	%eax, (%rcx,%rdx,4)
	movl	(%r10), %eax
	subl	$3, %eax
	movq	(%r8), %rcx
	movslq	(%rdi), %rdx
	movl	%eax, (%rcx,%rdx,4)
	movw	$4113, BasicBlockSignatureTracker # imm = 0x1011
	movw	$0, RunTimeSignatureAdjuster
# %bb.54:                               #   in Loop: Header=BB2_50 Depth=1
	movw	BasicBlockSignatureTracker, %ax
	xorw	$6, %ax
	cmpw	$4119, %ax              # imm = 0x1017
	jne	.LBB2_254
# %bb.55:                               # %mainSort.split499
                                        #   in Loop: Header=BB2_50 Depth=1
	movq	-56(%rbp), %rcx         # 8-byte Reload
	movl	(%rcx), %eax
	subl	$4, %eax
	movl	%eax, (%rcx)
	movw	$4119, BasicBlockSignatureTracker # imm = 0x1017
	movw	$21, RunTimeSignatureAdjuster
	jmp	.LBB2_50
.LBB2_56:
	movw	BasicBlockSignatureTracker, %ax
	xorw	$23, %ax
	cmpw	$4122, %ax              # imm = 0x101A
	jne	.LBB2_260
# %bb.57:                               # %mainSort.split497
	movw	$4122, BasicBlockSignatureTracker # imm = 0x101A
	movw	$0, RunTimeSignatureAdjuster
.LBB2_58:                               # =>This Inner Loop Header: Depth=1
	movw	BasicBlockSignatureTracker, %ax
	movw	RunTimeSignatureAdjuster, %cx
	xorw	$43, %ax
	xorw	%cx, %ax
	cmpw	$4145, %ax              # imm = 0x1031
	jne	.LBB2_253
# %bb.59:                               # %mainSort.split501
                                        #   in Loop: Header=BB2_58 Depth=1
	movq	-56(%rbp), %rax         # 8-byte Reload
	movl	(%rax), %eax
	movw	$4145, BasicBlockSignatureTracker # imm = 0x1031
	movw	$0, RunTimeSignatureAdjuster
	cmpl	$0, %eax
	jl	.LBB2_64
# %bb.60:                               #   in Loop: Header=BB2_58 Depth=1
	movw	BasicBlockSignatureTracker, %ax
	xorw	$12, %ax
	cmpw	$4157, %ax              # imm = 0x103D
	jne	.LBB2_253
# %bb.61:                               # %mainSort.split503
                                        #   in Loop: Header=BB2_58 Depth=1
	movq	-216(%rbp), %rbx        # 8-byte Reload
	movzwl	(%rbx), %eax
	sarl	$8, %eax
	movq	-88(%rbp), %rcx         # 8-byte Reload
	movq	(%rcx), %rcx
	movq	-56(%rbp), %rsi         # 8-byte Reload
	movslq	(%rsi), %rdx
	movzbl	(%rcx,%rdx), %ecx
	shll	$8, %ecx
	orl	%ecx, %eax
	movw	%ax, (%rbx)
	movq	%r12, %rdx
	movq	(%rdx), %rax
	movzwl	(%rbx), %ecx
	movl	(%rax,%rcx,4), %eax
	subl	$1, %eax
	movq	-48(%rbp), %rdi         # 8-byte Reload
	movl	%eax, (%rdi)
	movl	(%rdi), %eax
	movq	(%rdx), %rcx
	movzwl	(%rbx), %edx
	movl	%eax, (%rcx,%rdx,4)
	movl	(%rsi), %eax
	movq	-104(%rbp), %rcx        # 8-byte Reload
	movq	(%rcx), %rcx
	movslq	(%rdi), %rdx
	movl	%eax, (%rcx,%rdx,4)
	movw	$4157, BasicBlockSignatureTracker # imm = 0x103D
	movw	$0, RunTimeSignatureAdjuster
# %bb.62:                               #   in Loop: Header=BB2_58 Depth=1
	movw	BasicBlockSignatureTracker, %ax
	xorw	$108, %ax
	cmpw	$4177, %ax              # imm = 0x1051
	jne	.LBB2_253
# %bb.63:                               # %mainSort.split507
                                        #   in Loop: Header=BB2_58 Depth=1
	movq	-56(%rbp), %rcx         # 8-byte Reload
	movl	(%rcx), %eax
	addl	$-1, %eax
	movl	%eax, (%rcx)
	movw	$4177, BasicBlockSignatureTracker # imm = 0x1051
	movw	$75, RunTimeSignatureAdjuster
	jmp	.LBB2_58
.LBB2_64:
	movw	BasicBlockSignatureTracker, %ax
	xorw	$111, %ax
	cmpw	$4190, %ax              # imm = 0x105E
	jne	.LBB2_260
# %bb.65:                               # %mainSort.split505
	movq	-56(%rbp), %rax         # 8-byte Reload
	movl	$0, (%rax)
	movw	$4190, BasicBlockSignatureTracker # imm = 0x105E
	movw	$0, RunTimeSignatureAdjuster
.LBB2_66:                               # =>This Inner Loop Header: Depth=1
	movw	BasicBlockSignatureTracker, %ax
	movw	RunTimeSignatureAdjuster, %cx
	xorw	$50, %ax
	xorw	%cx, %ax
	cmpw	$4204, %ax              # imm = 0x106C
	jne	.LBB2_252
# %bb.67:                               # %mainSort.split509
                                        #   in Loop: Header=BB2_66 Depth=1
	movq	-56(%rbp), %rax         # 8-byte Reload
	movl	(%rax), %eax
	movw	$4204, BasicBlockSignatureTracker # imm = 0x106C
	movw	$0, RunTimeSignatureAdjuster
	cmpl	$255, %eax
	jg	.LBB2_72
# %bb.68:                               #   in Loop: Header=BB2_66 Depth=1
	movw	BasicBlockSignatureTracker, %ax
	xorw	$226, %ax
	cmpw	$4238, %ax              # imm = 0x108E
	jne	.LBB2_252
# %bb.69:                               # %mainSort.split511
                                        #   in Loop: Header=BB2_66 Depth=1
	movq	-56(%rbp), %rcx         # 8-byte Reload
	movslq	(%rcx), %rax
	movq	-152(%rbp), %rdx        # 8-byte Reload
	movb	$0, (%rdx,%rax)
	movl	(%rcx), %eax
	movslq	(%rcx), %rcx
	movq	-120(%rbp), %rdx        # 8-byte Reload
	movl	%eax, (%rdx,%rcx,4)
	movw	$4238, BasicBlockSignatureTracker # imm = 0x108E
	movw	$0, RunTimeSignatureAdjuster
# %bb.70:                               #   in Loop: Header=BB2_66 Depth=1
	movw	BasicBlockSignatureTracker, %ax
	xorw	$31, %ax
	cmpw	$4241, %ax              # imm = 0x1091
	jne	.LBB2_252
# %bb.71:                               # %mainSort.split515
                                        #   in Loop: Header=BB2_66 Depth=1
	movq	-56(%rbp), %rcx         # 8-byte Reload
	movl	(%rcx), %eax
	addl	$1, %eax
	movl	%eax, (%rcx)
	movw	$4241, BasicBlockSignatureTracker # imm = 0x1091
	movw	$207, RunTimeSignatureAdjuster
	jmp	.LBB2_66
.LBB2_72:
	movw	BasicBlockSignatureTracker, %ax
	xorw	$171, %ax
	cmpw	$4295, %ax              # imm = 0x10C7
	jne	.LBB2_260
# %bb.73:                               # %mainSort.split513
	movq	-112(%rbp), %rax        # 8-byte Reload
	movl	$1, (%rax)
	movw	$4295, BasicBlockSignatureTracker # imm = 0x10C7
	movw	$0, RunTimeSignatureAdjuster
.LBB2_74:                               # =>This Inner Loop Header: Depth=1
	movw	BasicBlockSignatureTracker, %ax
	movw	RunTimeSignatureAdjuster, %cx
	xorw	$11, %ax
	xorw	%cx, %ax
	cmpw	$4300, %ax              # imm = 0x10CC
	jne	.LBB2_251
# %bb.75:                               # %mainSort.split517
                                        #   in Loop: Header=BB2_74 Depth=1
	movq	-112(%rbp), %rcx        # 8-byte Reload
	imull	$3, (%rcx), %eax
	addl	$1, %eax
	movl	%eax, (%rcx)
	movw	$4300, BasicBlockSignatureTracker # imm = 0x10CC
	movw	$0, RunTimeSignatureAdjuster
# %bb.76:                               #   in Loop: Header=BB2_74 Depth=1
	movw	BasicBlockSignatureTracker, %ax
	xorw	$453, %ax               # imm = 0x1C5
	cmpw	$4361, %ax              # imm = 0x1109
	jne	.LBB2_251
# %bb.77:                               # %mainSort.split519
                                        #   in Loop: Header=BB2_74 Depth=1
	movq	-112(%rbp), %rax        # 8-byte Reload
	movl	(%rax), %eax
	movw	$4361, BasicBlockSignatureTracker # imm = 0x1109
	movw	$462, RunTimeSignatureAdjuster # imm = 0x1CE
	cmpl	$256, %eax              # imm = 0x100
	jle	.LBB2_74
# %bb.78:                               # %Buffer__
	movw	BasicBlockSignatureTracker, %ax
	xorw	$20227, %ax             # imm = 0x4F03
	cmpw	$24074, %ax             # imm = 0x5E0A
	jne	.LBB2_260
# %bb.79:                               # %mainSort.split521
	movw	$24074, BasicBlockSignatureTracker # imm = 0x5E0A
	movw	$20227, RunTimeSignatureAdjuster # imm = 0x4F03
# %bb.80:
	movw	BasicBlockSignatureTracker, %ax
	movw	RunTimeSignatureAdjuster, %cx
	xorw	$6, %ax
	xorw	%cx, %ax
	cmpw	$4367, %ax              # imm = 0x110F
	jne	.LBB2_260
# %bb.81:                               # %mainSort.split677
	movw	$4367, BasicBlockSignatureTracker # imm = 0x110F
	movw	$0, RunTimeSignatureAdjuster
.LBB2_82:                               # =>This Loop Header: Depth=1
                                        #     Child Loop BB2_84 Depth 2
                                        #       Child Loop BB2_88 Depth 3
	movw	BasicBlockSignatureTracker, %ax
	movw	RunTimeSignatureAdjuster, %cx
	xorw	$28, %ax
	xorw	%cx, %ax
	cmpw	$4371, %ax              # imm = 0x1113
	jne	.LBB2_250
# %bb.83:                               # %mainSort.split523
                                        #   in Loop: Header=BB2_82 Depth=1
	movl	$3, %ecx
	movq	-112(%rbp), %rsi        # 8-byte Reload
	movl	(%rsi), %eax
	cltd
	idivl	%ecx
	movl	%eax, (%rsi)
	movl	(%rsi), %eax
	movq	-56(%rbp), %rcx         # 8-byte Reload
	movl	%eax, (%rcx)
	movw	$4371, BasicBlockSignatureTracker # imm = 0x1113
	movw	$0, RunTimeSignatureAdjuster
.LBB2_84:                               #   Parent Loop BB2_82 Depth=1
                                        # =>  This Loop Header: Depth=2
                                        #       Child Loop BB2_88 Depth 3
	movw	BasicBlockSignatureTracker, %ax
	movw	RunTimeSignatureAdjuster, %cx
	xorw	$9, %ax
	xorw	%cx, %ax
	cmpw	$4378, %ax              # imm = 0x111A
	jne	.LBB2_249
# %bb.85:                               # %mainSort.split525
                                        #   in Loop: Header=BB2_84 Depth=2
	movq	-56(%rbp), %rax         # 8-byte Reload
	movl	(%rax), %eax
	movw	$4378, BasicBlockSignatureTracker # imm = 0x111A
	movw	$0, RunTimeSignatureAdjuster
	cmpl	$255, %eax
	jg	.LBB2_102
# %bb.86:                               #   in Loop: Header=BB2_84 Depth=2
	movw	BasicBlockSignatureTracker, %ax
	xorw	$81, %ax
	cmpw	$4427, %ax              # imm = 0x114B
	jne	.LBB2_249
# %bb.87:                               # %mainSort.split527
                                        #   in Loop: Header=BB2_84 Depth=2
	movq	-56(%rbp), %rcx         # 8-byte Reload
	movslq	(%rcx), %rax
	movq	-120(%rbp), %rdx        # 8-byte Reload
	movl	(%rdx,%rax,4), %eax
	movq	-192(%rbp), %rdx        # 8-byte Reload
	movl	%eax, (%rdx)
	movl	(%rcx), %eax
	movq	-48(%rbp), %rcx         # 8-byte Reload
	movl	%eax, (%rcx)
	movw	$4427, BasicBlockSignatureTracker # imm = 0x114B
	movw	$0, RunTimeSignatureAdjuster
.LBB2_88:                               #   Parent Loop BB2_82 Depth=1
                                        #     Parent Loop BB2_84 Depth=2
                                        # =>    This Inner Loop Header: Depth=3
	movw	BasicBlockSignatureTracker, %ax
	movw	RunTimeSignatureAdjuster, %cx
	xorw	$23, %ax
	xorw	%cx, %ax
	cmpw	$4444, %ax              # imm = 0x115C
	jne	.LBB2_248
# %bb.89:                               # %mainSort.split531
                                        #   in Loop: Header=BB2_88 Depth=3
	movq	%r12, %rsi
	movq	(%rsi), %rax
	movq	-48(%rbp), %rdx         # 8-byte Reload
	movl	(%rdx), %ecx
	movq	-112(%rbp), %rbx        # 8-byte Reload
	subl	(%rbx), %ecx
	movslq	%ecx, %rcx
	movq	-120(%rbp), %rdi        # 8-byte Reload
	movl	(%rdi,%rcx,4), %ecx
	addl	$1, %ecx
	shll	$8, %ecx
	movslq	%ecx, %rcx
	movl	(%rax,%rcx,4), %eax
	movq	(%rsi), %rcx
	movl	(%rdx), %edx
	subl	(%rbx), %edx
	movslq	%edx, %rdx
	movl	(%rdi,%rdx,4), %edx
	shll	$8, %edx
	movslq	%edx, %rdx
	subl	(%rcx,%rdx,4), %eax
	movq	(%rsi), %rcx
	movq	-192(%rbp), %rdi        # 8-byte Reload
	movl	(%rdi), %edx
	addl	$1, %edx
	shll	$8, %edx
	movslq	%edx, %rdx
	movl	(%rcx,%rdx,4), %ecx
	movq	(%rsi), %rdx
	movl	(%rdi), %esi
	shll	$8, %esi
	movslq	%esi, %rsi
	subl	(%rdx,%rsi,4), %ecx
	movw	$4444, BasicBlockSignatureTracker # imm = 0x115C
	movw	$0, RunTimeSignatureAdjuster
	cmpl	%ecx, %eax
	jbe	.LBB2_96
# %bb.90:                               #   in Loop: Header=BB2_88 Depth=3
	movw	BasicBlockSignatureTracker, %ax
	xorw	$58, %ax
	cmpw	$4454, %ax              # imm = 0x1166
	jne	.LBB2_248
# %bb.91:                               # %mainSort.split533
                                        #   in Loop: Header=BB2_88 Depth=3
	movq	-48(%rbp), %rdx         # 8-byte Reload
	movl	(%rdx), %eax
	movq	-112(%rbp), %rdi        # 8-byte Reload
	subl	(%rdi), %eax
	cltq
	movq	-120(%rbp), %rsi        # 8-byte Reload
	movl	(%rsi,%rax,4), %eax
	movslq	(%rdx), %rcx
	movl	%eax, (%rsi,%rcx,4)
	movl	(%rdx), %eax
	subl	(%rdi), %eax
	movl	%eax, (%rdx)
	movl	(%rdx), %eax
	movl	(%rdi), %ecx
	subl	$1, %ecx
	movw	$4454, BasicBlockSignatureTracker # imm = 0x1166
	movw	$0, RunTimeSignatureAdjuster
	cmpl	%ecx, %eax
	jg	.LBB2_94
# %bb.92:                               #   in Loop: Header=BB2_84 Depth=2
	movw	BasicBlockSignatureTracker, %ax
	xorw	$229, %ax
	cmpw	$4483, %ax              # imm = 0x1183
	jne	.LBB2_249
# %bb.93:                               # %mainSort.split537
                                        #   in Loop: Header=BB2_84 Depth=2
	movw	$4483, BasicBlockSignatureTracker # imm = 0x1183
	movw	$0, RunTimeSignatureAdjuster
	jmp	.LBB2_98
.LBB2_94:                               #   in Loop: Header=BB2_88 Depth=3
	movw	BasicBlockSignatureTracker, %ax
	xorw	$245, %ax
	cmpw	$4499, %ax              # imm = 0x1193
	jne	.LBB2_248
# %bb.95:                               # %mainSort.split539
                                        #   in Loop: Header=BB2_88 Depth=3
	movw	$4499, BasicBlockSignatureTracker # imm = 0x1193
	movw	$216, RunTimeSignatureAdjuster
	jmp	.LBB2_88
.LBB2_96:                               #   in Loop: Header=BB2_84 Depth=2
	movw	BasicBlockSignatureTracker, %ax
	xorw	$244, %ax
	cmpw	$4520, %ax              # imm = 0x11A8
	jne	.LBB2_249
# %bb.97:                               # %mainSort.split535
                                        #   in Loop: Header=BB2_84 Depth=2
	movw	$4520, BasicBlockSignatureTracker # imm = 0x11A8
	movw	$43, RunTimeSignatureAdjuster
.LBB2_98:                               #   in Loop: Header=BB2_84 Depth=2
	movw	BasicBlockSignatureTracker, %ax
	movw	RunTimeSignatureAdjuster, %cx
	xorw	$49, %ax
	xorw	%cx, %ax
	cmpw	$4530, %ax              # imm = 0x11B2
	jne	.LBB2_249
# %bb.99:                               # %mainSort.split541
                                        #   in Loop: Header=BB2_84 Depth=2
	movq	-192(%rbp), %rax        # 8-byte Reload
	movl	(%rax), %eax
	movq	-48(%rbp), %rcx         # 8-byte Reload
	movslq	(%rcx), %rcx
	movq	-120(%rbp), %rdx        # 8-byte Reload
	movl	%eax, (%rdx,%rcx,4)
	movw	$4530, BasicBlockSignatureTracker # imm = 0x11B2
	movw	$0, RunTimeSignatureAdjuster
# %bb.100:                              #   in Loop: Header=BB2_84 Depth=2
	movw	BasicBlockSignatureTracker, %ax
	xorw	$113, %ax
	cmpw	$4547, %ax              # imm = 0x11C3
	jne	.LBB2_249
# %bb.101:                              # %mainSort.split543
                                        #   in Loop: Header=BB2_84 Depth=2
	movq	-56(%rbp), %rcx         # 8-byte Reload
	movl	(%rcx), %eax
	addl	$1, %eax
	movl	%eax, (%rcx)
	movw	$4547, BasicBlockSignatureTracker # imm = 0x11C3
	movw	$208, RunTimeSignatureAdjuster
	jmp	.LBB2_84
.LBB2_102:                              #   in Loop: Header=BB2_82 Depth=1
	movw	BasicBlockSignatureTracker, %ax
	xorw	$232, %ax
	cmpw	$4594, %ax              # imm = 0x11F2
	jne	.LBB2_250
# %bb.103:                              # %mainSort.split529
                                        #   in Loop: Header=BB2_82 Depth=1
	movw	$4594, BasicBlockSignatureTracker # imm = 0x11F2
	movw	$0, RunTimeSignatureAdjuster
# %bb.104:                              #   in Loop: Header=BB2_82 Depth=1
	movw	BasicBlockSignatureTracker, %ax
	xorw	$1020, %ax              # imm = 0x3FC
	cmpw	$4622, %ax              # imm = 0x120E
	jne	.LBB2_250
# %bb.105:                              # %mainSort.split545
                                        #   in Loop: Header=BB2_82 Depth=1
	movq	-112(%rbp), %rax        # 8-byte Reload
	movl	(%rax), %eax
	movw	$4622, BasicBlockSignatureTracker # imm = 0x120E
	movw	$769, RunTimeSignatureAdjuster # imm = 0x301
	cmpl	$1, %eax
	jne	.LBB2_82
# %bb.106:                              # %Buffer__1
	movw	BasicBlockSignatureTracker, %ax
	xorw	$1640, %ax              # imm = 0x668
	cmpw	$5222, %ax              # imm = 0x1466
	jne	.LBB2_260
# %bb.107:                              # %mainSort.split547
	movw	$5222, BasicBlockSignatureTracker # imm = 0x1466
	movw	$1640, RunTimeSignatureAdjuster # imm = 0x668
# %bb.108:
	movw	BasicBlockSignatureTracker, %ax
	movw	RunTimeSignatureAdjuster, %cx
	xorw	$1, %ax
	xorw	%cx, %ax
	cmpw	$4623, %ax              # imm = 0x120F
	jne	.LBB2_260
# %bb.109:                              # %mainSort.split679
	movq	-176(%rbp), %rax        # 8-byte Reload
	movl	$0, (%rax)
	movq	-56(%rbp), %rax         # 8-byte Reload
	movl	$0, (%rax)
	movw	$4623, BasicBlockSignatureTracker # imm = 0x120F
	movw	$0, RunTimeSignatureAdjuster
.LBB2_110:                              # =>This Loop Header: Depth=1
                                        #     Child Loop BB2_114 Depth 2
                                        #     Child Loop BB2_146 Depth 2
                                        #     Child Loop BB2_154 Depth 2
                                        #     Child Loop BB2_170 Depth 2
                                        #     Child Loop BB2_196 Depth 2
                                        #     Child Loop BB2_206 Depth 2
                                        #     Child Loop BB2_212 Depth 2
	movw	BasicBlockSignatureTracker, %ax
	movw	RunTimeSignatureAdjuster, %cx
	xorw	$16, %ax
	xorw	%cx, %ax
	cmpw	$4639, %ax              # imm = 0x121F
	jne	.LBB2_247
# %bb.111:                              # %mainSort.split549
                                        #   in Loop: Header=BB2_110 Depth=1
	movq	-56(%rbp), %rax         # 8-byte Reload
	movl	(%rax), %eax
	movw	$4639, BasicBlockSignatureTracker # imm = 0x121F
	movw	$0, RunTimeSignatureAdjuster
	cmpl	$255, %eax
	jg	.LBB2_232
# %bb.112:                              #   in Loop: Header=BB2_110 Depth=1
	movw	BasicBlockSignatureTracker, %ax
	xorw	$125, %ax
	cmpw	$4706, %ax              # imm = 0x1262
	jne	.LBB2_247
# %bb.113:                              # %mainSort.split551
                                        #   in Loop: Header=BB2_110 Depth=1
	movq	-56(%rbp), %rax         # 8-byte Reload
	movslq	(%rax), %rax
	movq	-120(%rbp), %rcx        # 8-byte Reload
	movl	(%rcx,%rax,4), %eax
	movq	-64(%rbp), %rcx         # 8-byte Reload
	movl	%eax, (%rcx)
	movq	-48(%rbp), %rax         # 8-byte Reload
	movl	$0, (%rax)
	movw	$4706, BasicBlockSignatureTracker # imm = 0x1262
	movw	$0, RunTimeSignatureAdjuster
.LBB2_114:                              #   Parent Loop BB2_110 Depth=1
                                        # =>  This Inner Loop Header: Depth=2
	movw	BasicBlockSignatureTracker, %ax
	movw	RunTimeSignatureAdjuster, %cx
	xorw	$29, %ax
	xorw	%cx, %ax
	cmpw	$4735, %ax              # imm = 0x127F
	jne	.LBB2_246
# %bb.115:                              # %mainSort.split555
                                        #   in Loop: Header=BB2_114 Depth=2
	movq	-48(%rbp), %rax         # 8-byte Reload
	movl	(%rax), %eax
	movw	$4735, BasicBlockSignatureTracker # imm = 0x127F
	movw	$0, RunTimeSignatureAdjuster
	cmpl	$255, %eax
	jg	.LBB2_140
# %bb.116:                              #   in Loop: Header=BB2_114 Depth=2
	movw	BasicBlockSignatureTracker, %ax
	xorw	$247, %ax
	cmpw	$4744, %ax              # imm = 0x1288
	jne	.LBB2_246
# %bb.117:                              # %mainSort.split557
                                        #   in Loop: Header=BB2_114 Depth=2
	movq	-48(%rbp), %rax         # 8-byte Reload
	movl	(%rax), %eax
	movq	-64(%rbp), %rcx         # 8-byte Reload
	movl	(%rcx), %ecx
	movw	$4744, BasicBlockSignatureTracker # imm = 0x1288
	movw	$0, RunTimeSignatureAdjuster
	cmpl	%ecx, %eax
	je	.LBB2_136
# %bb.118:                              #   in Loop: Header=BB2_114 Depth=2
	movw	BasicBlockSignatureTracker, %ax
	xorw	$16, %ax
	cmpw	$4760, %ax              # imm = 0x1298
	jne	.LBB2_246
# %bb.119:                              # %mainSort.split561
                                        #   in Loop: Header=BB2_114 Depth=2
	movq	-64(%rbp), %rax         # 8-byte Reload
	movl	(%rax), %eax
	shll	$8, %eax
	movq	-48(%rbp), %rcx         # 8-byte Reload
	addl	(%rcx), %eax
	movq	-208(%rbp), %rcx        # 8-byte Reload
	movl	%eax, (%rcx)
	movq	(%r12), %rax
	movslq	(%rcx), %rcx
	movl	(%rax,%rcx,4), %eax
	andl	$2097152, %eax          # imm = 0x200000
	movw	$4760, BasicBlockSignatureTracker # imm = 0x1298
	movw	$0, RunTimeSignatureAdjuster
	cmpl	$0, %eax
	jne	.LBB2_134
# %bb.120:                              #   in Loop: Header=BB2_114 Depth=2
	movw	BasicBlockSignatureTracker, %ax
	xorw	$57, %ax
	cmpw	$4769, %ax              # imm = 0x12A1
	jne	.LBB2_246
# %bb.121:                              # %mainSort.split567
                                        #   in Loop: Header=BB2_114 Depth=2
	movq	%r12, %rdx
	movq	(%rdx), %rax
	movq	-208(%rbp), %rsi        # 8-byte Reload
	movslq	(%rsi), %rcx
	movl	(%rax,%rcx,4), %eax
	andl	$-2097153, %eax         # imm = 0xFFDFFFFF
	movq	-72(%rbp), %rdi         # 8-byte Reload
	movl	%eax, (%rdi)
	movq	(%rdx), %rax
	movl	(%rsi), %ecx
	addl	$1, %ecx
	movslq	%ecx, %rcx
	movl	(%rax,%rcx,4), %eax
	andl	$-2097153, %eax         # imm = 0xFFDFFFFF
	subl	$1, %eax
	movq	-200(%rbp), %rcx        # 8-byte Reload
	movl	%eax, (%rcx)
	movl	(%rcx), %eax
	movl	(%rdi), %ecx
	movw	$4769, BasicBlockSignatureTracker # imm = 0x12A1
	movw	$0, RunTimeSignatureAdjuster
	cmpl	%ecx, %eax
	jle	.LBB2_132
# %bb.122:                              #   in Loop: Header=BB2_114 Depth=2
	movw	BasicBlockSignatureTracker, %ax
	xorw	$5, %ax
	cmpw	$4772, %ax              # imm = 0x12A4
	jne	.LBB2_246
# %bb.123:                              # %mainSort.split569
                                        #   in Loop: Header=BB2_114 Depth=2
	movl	(%r15), %eax
	movw	$4772, BasicBlockSignatureTracker # imm = 0x12A4
	movw	$0, RunTimeSignatureAdjuster
	cmpl	$4, %eax
	jl	.LBB2_126
# %bb.124:                              #   in Loop: Header=BB2_114 Depth=2
	movw	BasicBlockSignatureTracker, %ax
	xorw	$23, %ax
	cmpw	$4787, %ax              # imm = 0x12B3
	jne	.LBB2_246
# %bb.125:                              # %mainSort.split573
                                        #   in Loop: Header=BB2_114 Depth=2
	movabsq	$.L.str.7, %rsi
	movq	stderr, %rdi
	movq	-64(%rbp), %rax         # 8-byte Reload
	movl	(%rax), %edx
	movq	-48(%rbp), %rax         # 8-byte Reload
	movl	(%rax), %ecx
	movq	-176(%rbp), %rax        # 8-byte Reload
	movl	(%rax), %r8d
	movq	-200(%rbp), %rax        # 8-byte Reload
	movl	(%rax), %r9d
	movq	-72(%rbp), %rax         # 8-byte Reload
	subl	(%rax), %r9d
	addl	$1, %r9d
	movb	$0, %al
	callq	fprintf
	movw	$4787, BasicBlockSignatureTracker # imm = 0x12B3
	movw	$23, RunTimeSignatureAdjuster
.LBB2_126:                              #   in Loop: Header=BB2_114 Depth=2
	movw	BasicBlockSignatureTracker, %ax
	movw	RunTimeSignatureAdjuster, %cx
	xorw	$28, %ax
	xorw	%cx, %ax
	cmpw	$4792, %ax              # imm = 0x12B8
	jne	.LBB2_246
# %bb.127:                              # %mainSort.split575
                                        #   in Loop: Header=BB2_114 Depth=2
	movl	$2, %eax
	movq	-104(%rbp), %rax        # 8-byte Reload
	movq	(%rax), %rdi
	movq	-88(%rbp), %rax         # 8-byte Reload
	movq	(%rax), %rsi
	movq	(%r14), %rdx
	movq	-80(%rbp), %rax         # 8-byte Reload
	movl	(%rax), %ecx
	movq	-72(%rbp), %rax         # 8-byte Reload
	movl	(%rax), %r8d
	movq	-200(%rbp), %rbx        # 8-byte Reload
	movl	(%rbx), %r9d
	movq	%r13, %rax
	movq	%rax, -184(%rbp)        # 8-byte Spill
	movq	(%rax), %r10
	movw	$4792, BasicBlockSignatureTracker # imm = 0x12B8
	movw	$0, RunTimeSignatureAdjuster
	subq	$16, %rsp
	movl	$2, (%rsp)
	movq	%r10, 8(%rsp)
	callq	mainQSort3
	addq	$16, %rsp
	movw	$4792, BasicBlockSignatureTracker # imm = 0x12B8
	movw	$0, RunTimeSignatureAdjuster
	movl	(%rbx), %eax
	movq	-72(%rbp), %rcx         # 8-byte Reload
	subl	(%rcx), %eax
	addl	$1, %eax
	movq	-176(%rbp), %rcx        # 8-byte Reload
	addl	(%rcx), %eax
	movl	%eax, (%rcx)
	movq	-184(%rbp), %rax        # 8-byte Reload
	movq	(%rax), %rax
	movl	(%rax), %eax
	movw	$4792, BasicBlockSignatureTracker # imm = 0x12B8
	movw	$0, RunTimeSignatureAdjuster
	cmpl	$0, %eax
	jge	.LBB2_130
# %bb.128:
	movw	BasicBlockSignatureTracker, %ax
	xorw	$5, %ax
	cmpw	$4797, %ax              # imm = 0x12BD
	jne	.LBB2_260
# %bb.129:                              # %mainSort.split577
	movw	$4797, BasicBlockSignatureTracker # imm = 0x12BD
	movw	$0, RunTimeSignatureAdjuster
	jmp	.LBB2_238
.LBB2_130:                              #   in Loop: Header=BB2_114 Depth=2
	movw	BasicBlockSignatureTracker, %ax
	xorw	$401, %ax               # imm = 0x191
	cmpw	$4905, %ax              # imm = 0x1329
	jne	.LBB2_246
# %bb.131:                              # %mainSort.split579
                                        #   in Loop: Header=BB2_114 Depth=2
	movw	$4905, BasicBlockSignatureTracker # imm = 0x1329
	movw	$392, RunTimeSignatureAdjuster # imm = 0x188
.LBB2_132:                              #   in Loop: Header=BB2_114 Depth=2
	movw	BasicBlockSignatureTracker, %ax
	movw	RunTimeSignatureAdjuster, %cx
	xorw	$402, %ax               # imm = 0x192
	xorw	%cx, %ax
	cmpw	$4915, %ax              # imm = 0x1333
	jne	.LBB2_246
# %bb.133:                              # %mainSort.split571
                                        #   in Loop: Header=BB2_114 Depth=2
	movw	$4915, BasicBlockSignatureTracker # imm = 0x1333
	movw	$427, RunTimeSignatureAdjuster # imm = 0x1AB
.LBB2_134:                              #   in Loop: Header=BB2_114 Depth=2
	movw	BasicBlockSignatureTracker, %ax
	movw	RunTimeSignatureAdjuster, %cx
	xorw	$422, %ax               # imm = 0x1A6
	xorw	%cx, %ax
	cmpw	$4926, %ax              # imm = 0x133E
	jne	.LBB2_246
# %bb.135:                              # %mainSort.split565
                                        #   in Loop: Header=BB2_114 Depth=2
	movq	(%r12), %rax
	movq	-208(%rbp), %rcx        # 8-byte Reload
	movslq	(%rcx), %rcx
	movl	(%rax,%rcx,4), %edx
	orl	$2097152, %edx          # imm = 0x200000
	movl	%edx, (%rax,%rcx,4)
	movw	$4926, BasicBlockSignatureTracker # imm = 0x133E
	movw	$438, RunTimeSignatureAdjuster # imm = 0x1B6
.LBB2_136:                              #   in Loop: Header=BB2_114 Depth=2
	movw	BasicBlockSignatureTracker, %ax
	movw	RunTimeSignatureAdjuster, %cx
	xorw	$457, %ax               # imm = 0x1C9
	xorw	%cx, %ax
	cmpw	$4929, %ax              # imm = 0x1341
	jne	.LBB2_246
# %bb.137:                              # %mainSort.split563
                                        #   in Loop: Header=BB2_114 Depth=2
	movw	$4929, BasicBlockSignatureTracker # imm = 0x1341
	movw	$0, RunTimeSignatureAdjuster
# %bb.138:                              #   in Loop: Header=BB2_114 Depth=2
	movw	BasicBlockSignatureTracker, %ax
	xorw	$9, %ax
	cmpw	$4936, %ax              # imm = 0x1348
	jne	.LBB2_246
# %bb.139:                              # %mainSort.split583
                                        #   in Loop: Header=BB2_114 Depth=2
	movq	-48(%rbp), %rcx         # 8-byte Reload
	movl	(%rcx), %eax
	addl	$1, %eax
	movl	%eax, (%rcx)
	movw	$4936, BasicBlockSignatureTracker # imm = 0x1348
	movw	$298, RunTimeSignatureAdjuster # imm = 0x12A
	jmp	.LBB2_114
.LBB2_140:                              #   in Loop: Header=BB2_110 Depth=1
	movw	BasicBlockSignatureTracker, %ax
	xorw	$307, %ax               # imm = 0x133
	cmpw	$4940, %ax              # imm = 0x134C
	jne	.LBB2_247
# %bb.141:                              # %mainSort.split559
                                        #   in Loop: Header=BB2_110 Depth=1
	movq	-64(%rbp), %rax         # 8-byte Reload
	movslq	(%rax), %rax
	movq	-152(%rbp), %rcx        # 8-byte Reload
	movb	(%rcx,%rax), %al
	movw	$4940, BasicBlockSignatureTracker # imm = 0x134C
	movw	$0, RunTimeSignatureAdjuster
	cmpb	$0, %al
	je	.LBB2_144
# %bb.142:                              #   in Loop: Header=BB2_110 Depth=1
	movw	BasicBlockSignatureTracker, %ax
	xorw	$53, %ax
	cmpw	$4985, %ax              # imm = 0x1379
	jne	.LBB2_247
# %bb.143:                              # %mainSort.split585
                                        #   in Loop: Header=BB2_110 Depth=1
	movw	$4985, BasicBlockSignatureTracker # imm = 0x1379
	movw	$4414, RunTimeSignatureAdjuster # imm = 0x113E
	movl	$1006, %edi             # imm = 0x3EE
	callq	BZ2_bz__AssertH__fail
	movw	$4985, BasicBlockSignatureTracker # imm = 0x1379
	movw	$4414, RunTimeSignatureAdjuster # imm = 0x113E
	movw	$4985, BasicBlockSignatureTracker # imm = 0x1379
	movw	$53, RunTimeSignatureAdjuster
.LBB2_144:                              #   in Loop: Header=BB2_110 Depth=1
	movw	BasicBlockSignatureTracker, %ax
	movw	RunTimeSignatureAdjuster, %cx
	xorw	$220, %ax
	xorw	%cx, %ax
	cmpw	$5008, %ax              # imm = 0x1390
	jne	.LBB2_247
# %bb.145:                              # %mainSort.split587
                                        #   in Loop: Header=BB2_110 Depth=1
	movq	-48(%rbp), %rax         # 8-byte Reload
	movl	$0, (%rax)
	movw	$5008, BasicBlockSignatureTracker # imm = 0x1390
	movw	$0, RunTimeSignatureAdjuster
.LBB2_146:                              #   Parent Loop BB2_110 Depth=1
                                        # =>  This Inner Loop Header: Depth=2
	movw	BasicBlockSignatureTracker, %ax
	movw	RunTimeSignatureAdjuster, %cx
	xorw	$81, %ax
	xorw	%cx, %ax
	cmpw	$5057, %ax              # imm = 0x13C1
	jne	.LBB2_245
# %bb.147:                              # %mainSort.split589
                                        #   in Loop: Header=BB2_146 Depth=2
	movq	-48(%rbp), %rax         # 8-byte Reload
	movl	(%rax), %eax
	movw	$5057, BasicBlockSignatureTracker # imm = 0x13C1
	movw	$0, RunTimeSignatureAdjuster
	cmpl	$255, %eax
	jg	.LBB2_152
# %bb.148:                              #   in Loop: Header=BB2_146 Depth=2
	movw	BasicBlockSignatureTracker, %ax
	xorw	$9, %ax
	cmpw	$5064, %ax              # imm = 0x13C8
	jne	.LBB2_245
# %bb.149:                              # %mainSort.split591
                                        #   in Loop: Header=BB2_146 Depth=2
	movq	%r12, %rdx
	movq	(%rdx), %rax
	movq	-48(%rbp), %rsi         # 8-byte Reload
	movl	(%rsi), %ecx
	shll	$8, %ecx
	movq	-64(%rbp), %rdi         # 8-byte Reload
	addl	(%rdi), %ecx
	movslq	%ecx, %rcx
	movl	(%rax,%rcx,4), %eax
	andl	$-2097153, %eax         # imm = 0xFFDFFFFF
	movslq	(%rsi), %rcx
	movq	-144(%rbp), %rbx        # 8-byte Reload
	movl	%eax, (%rbx,%rcx,4)
	movq	(%rdx), %rax
	movl	(%rsi), %ecx
	shll	$8, %ecx
	addl	(%rdi), %ecx
	addl	$1, %ecx
	movslq	%ecx, %rcx
	movl	(%rax,%rcx,4), %eax
	andl	$-2097153, %eax         # imm = 0xFFDFFFFF
	subl	$1, %eax
	movslq	(%rsi), %rcx
	movq	-136(%rbp), %rdx        # 8-byte Reload
	movl	%eax, (%rdx,%rcx,4)
	movw	$5064, BasicBlockSignatureTracker # imm = 0x13C8
	movw	$0, RunTimeSignatureAdjuster
# %bb.150:                              #   in Loop: Header=BB2_146 Depth=2
	movw	BasicBlockSignatureTracker, %ax
	xorw	$1993, %ax              # imm = 0x7C9
	cmpw	$5121, %ax              # imm = 0x1401
	jne	.LBB2_245
# %bb.151:                              # %mainSort.split595
                                        #   in Loop: Header=BB2_146 Depth=2
	movq	-48(%rbp), %rcx         # 8-byte Reload
	movl	(%rcx), %eax
	addl	$1, %eax
	movl	%eax, (%rcx)
	movw	$5121, BasicBlockSignatureTracker # imm = 0x1401
	movw	$1937, RunTimeSignatureAdjuster # imm = 0x791
	jmp	.LBB2_146
.LBB2_152:                              #   in Loop: Header=BB2_110 Depth=1
	movw	BasicBlockSignatureTracker, %ax
	xorw	$2004, %ax              # imm = 0x7D4
	cmpw	$5141, %ax              # imm = 0x1415
	jne	.LBB2_247
# %bb.153:                              # %mainSort.split593
                                        #   in Loop: Header=BB2_110 Depth=1
	movq	(%r12), %rax
	movq	-64(%rbp), %rcx         # 8-byte Reload
	movl	(%rcx), %ecx
	shll	$8, %ecx
	movslq	%ecx, %rcx
	movl	(%rax,%rcx,4), %eax
	andl	$-2097153, %eax         # imm = 0xFFDFFFFF
	movq	-48(%rbp), %rcx         # 8-byte Reload
	movl	%eax, (%rcx)
	movw	$5141, BasicBlockSignatureTracker # imm = 0x1415
	movw	$0, RunTimeSignatureAdjuster
.LBB2_154:                              #   Parent Loop BB2_110 Depth=1
                                        # =>  This Inner Loop Header: Depth=2
	movw	BasicBlockSignatureTracker, %ax
	movw	RunTimeSignatureAdjuster, %cx
	xorw	$52, %ax
	xorw	%cx, %ax
	cmpw	$5153, %ax              # imm = 0x1421
	jne	.LBB2_244
# %bb.155:                              # %mainSort.split597
                                        #   in Loop: Header=BB2_154 Depth=2
	movq	-48(%rbp), %rax         # 8-byte Reload
	movl	(%rax), %eax
	movq	-64(%rbp), %rcx         # 8-byte Reload
	movslq	(%rcx), %rcx
	movq	-144(%rbp), %rdx        # 8-byte Reload
	movl	(%rdx,%rcx,4), %ecx
	movw	$5153, BasicBlockSignatureTracker # imm = 0x1421
	movw	$0, RunTimeSignatureAdjuster
	cmpl	%ecx, %eax
	jge	.LBB2_168
# %bb.156:                              #   in Loop: Header=BB2_154 Depth=2
	movw	BasicBlockSignatureTracker, %ax
	xorw	$118, %ax
	cmpw	$5207, %ax              # imm = 0x1457
	jne	.LBB2_244
# %bb.157:                              # %mainSort.split599
                                        #   in Loop: Header=BB2_154 Depth=2
	movq	-104(%rbp), %rax        # 8-byte Reload
	movq	(%rax), %rax
	movq	-48(%rbp), %rcx         # 8-byte Reload
	movslq	(%rcx), %rcx
	movl	(%rax,%rcx,4), %eax
	subl	$1, %eax
	movq	-96(%rbp), %rcx         # 8-byte Reload
	movl	%eax, (%rcx)
	movl	(%rcx), %eax
	movw	$5207, BasicBlockSignatureTracker # imm = 0x1457
	movw	$0, RunTimeSignatureAdjuster
	cmpl	$0, %eax
	jge	.LBB2_160
# %bb.158:                              #   in Loop: Header=BB2_154 Depth=2
	movw	BasicBlockSignatureTracker, %ax
	xorw	$11, %ax
	cmpw	$5212, %ax              # imm = 0x145C
	jne	.LBB2_244
# %bb.159:                              # %mainSort.split603
                                        #   in Loop: Header=BB2_154 Depth=2
	movq	-80(%rbp), %rax         # 8-byte Reload
	movl	(%rax), %eax
	movq	-96(%rbp), %rcx         # 8-byte Reload
	addl	(%rcx), %eax
	movl	%eax, (%rcx)
	movw	$5212, BasicBlockSignatureTracker # imm = 0x145C
	movw	$11, RunTimeSignatureAdjuster
.LBB2_160:                              #   in Loop: Header=BB2_154 Depth=2
	movw	BasicBlockSignatureTracker, %ax
	movw	RunTimeSignatureAdjuster, %cx
	xorw	$52, %ax
	xorw	%cx, %ax
	cmpw	$5219, %ax              # imm = 0x1463
	jne	.LBB2_244
# %bb.161:                              # %mainSort.split605
                                        #   in Loop: Header=BB2_154 Depth=2
	movq	-88(%rbp), %rax         # 8-byte Reload
	movq	(%rax), %rax
	movq	-96(%rbp), %rcx         # 8-byte Reload
	movslq	(%rcx), %rcx
	movb	(%rax,%rcx), %al
	movq	-168(%rbp), %rcx        # 8-byte Reload
	movb	%al, (%rcx)
	movzbl	(%rcx), %eax
	movq	-152(%rbp), %rcx        # 8-byte Reload
	movb	(%rcx,%rax), %al
	movw	$5219, BasicBlockSignatureTracker # imm = 0x1463
	movw	$0, RunTimeSignatureAdjuster
	cmpb	$0, %al
	jne	.LBB2_164
# %bb.162:                              #   in Loop: Header=BB2_154 Depth=2
	movw	BasicBlockSignatureTracker, %ax
	xorw	$226, %ax
	cmpw	$5249, %ax              # imm = 0x1481
	jne	.LBB2_244
# %bb.163:                              # %mainSort.split609
                                        #   in Loop: Header=BB2_154 Depth=2
	movq	-96(%rbp), %rax         # 8-byte Reload
	movl	(%rax), %eax
	movq	-104(%rbp), %rcx        # 8-byte Reload
	movq	(%rcx), %rcx
	movq	-168(%rbp), %rdx        # 8-byte Reload
	movzbl	(%rdx), %edx
	movq	-144(%rbp), %rbx        # 8-byte Reload
	movl	(%rbx,%rdx,4), %esi
	movl	%esi, %edi
	addl	$1, %edi
	movl	%edi, (%rbx,%rdx,4)
	movslq	%esi, %rdx
	movl	%eax, (%rcx,%rdx,4)
	movw	$5249, BasicBlockSignatureTracker # imm = 0x1481
	movw	$226, RunTimeSignatureAdjuster
.LBB2_164:                              #   in Loop: Header=BB2_154 Depth=2
	movw	BasicBlockSignatureTracker, %ax
	movw	RunTimeSignatureAdjuster, %cx
	xorw	$225, %ax
	xorw	%cx, %ax
	cmpw	$5250, %ax              # imm = 0x1482
	jne	.LBB2_244
# %bb.165:                              # %mainSort.split607
                                        #   in Loop: Header=BB2_154 Depth=2
	movw	$5250, BasicBlockSignatureTracker # imm = 0x1482
	movw	$0, RunTimeSignatureAdjuster
# %bb.166:                              #   in Loop: Header=BB2_154 Depth=2
	movw	BasicBlockSignatureTracker, %ax
	xorw	$55, %ax
	cmpw	$5301, %ax              # imm = 0x14B5
	jne	.LBB2_244
# %bb.167:                              # %mainSort.split611
                                        #   in Loop: Header=BB2_154 Depth=2
	movq	-48(%rbp), %rcx         # 8-byte Reload
	movl	(%rcx), %eax
	addl	$1, %eax
	movl	%eax, (%rcx)
	movw	$5301, BasicBlockSignatureTracker # imm = 0x14B5
	movw	$160, RunTimeSignatureAdjuster
	jmp	.LBB2_154
.LBB2_168:                              #   in Loop: Header=BB2_110 Depth=1
	movw	BasicBlockSignatureTracker, %ax
	xorw	$214, %ax
	cmpw	$5367, %ax              # imm = 0x14F7
	jne	.LBB2_247
# %bb.169:                              # %mainSort.split601
                                        #   in Loop: Header=BB2_110 Depth=1
	movq	(%r12), %rax
	movq	-64(%rbp), %rcx         # 8-byte Reload
	movl	(%rcx), %ecx
	addl	$1, %ecx
	shll	$8, %ecx
	movslq	%ecx, %rcx
	movl	(%rax,%rcx,4), %eax
	andl	$-2097153, %eax         # imm = 0xFFDFFFFF
	subl	$1, %eax
	movq	-48(%rbp), %rcx         # 8-byte Reload
	movl	%eax, (%rcx)
	movw	$5367, BasicBlockSignatureTracker # imm = 0x14F7
	movw	$0, RunTimeSignatureAdjuster
.LBB2_170:                              #   Parent Loop BB2_110 Depth=1
                                        # =>  This Inner Loop Header: Depth=2
	movw	BasicBlockSignatureTracker, %ax
	movw	RunTimeSignatureAdjuster, %cx
	xorw	$15, %ax
	xorw	%cx, %ax
	cmpw	$5368, %ax              # imm = 0x14F8
	jne	.LBB2_243
# %bb.171:                              # %mainSort.split613
                                        #   in Loop: Header=BB2_170 Depth=2
	movq	-48(%rbp), %rax         # 8-byte Reload
	movl	(%rax), %eax
	movq	-64(%rbp), %rcx         # 8-byte Reload
	movslq	(%rcx), %rcx
	movq	-136(%rbp), %rdx        # 8-byte Reload
	movl	(%rdx,%rcx,4), %ecx
	movw	$5368, BasicBlockSignatureTracker # imm = 0x14F8
	movw	$0, RunTimeSignatureAdjuster
	cmpl	%ecx, %eax
	jle	.LBB2_184
# %bb.172:                              #   in Loop: Header=BB2_170 Depth=2
	movw	BasicBlockSignatureTracker, %ax
	xorw	$4, %ax
	cmpw	$5372, %ax              # imm = 0x14FC
	jne	.LBB2_243
# %bb.173:                              # %mainSort.split615
                                        #   in Loop: Header=BB2_170 Depth=2
	movq	-104(%rbp), %rax        # 8-byte Reload
	movq	(%rax), %rax
	movq	-48(%rbp), %rcx         # 8-byte Reload
	movslq	(%rcx), %rcx
	movl	(%rax,%rcx,4), %eax
	subl	$1, %eax
	movq	-96(%rbp), %rcx         # 8-byte Reload
	movl	%eax, (%rcx)
	movl	(%rcx), %eax
	movw	$5372, BasicBlockSignatureTracker # imm = 0x14FC
	movw	$0, RunTimeSignatureAdjuster
	cmpl	$0, %eax
	jge	.LBB2_176
# %bb.174:                              #   in Loop: Header=BB2_170 Depth=2
	movw	BasicBlockSignatureTracker, %ax
	xorw	$2, %ax
	cmpw	$5374, %ax              # imm = 0x14FE
	jne	.LBB2_243
# %bb.175:                              # %mainSort.split619
                                        #   in Loop: Header=BB2_170 Depth=2
	movq	-80(%rbp), %rax         # 8-byte Reload
	movl	(%rax), %eax
	movq	-96(%rbp), %rcx         # 8-byte Reload
	addl	(%rcx), %eax
	movl	%eax, (%rcx)
	movw	$5374, BasicBlockSignatureTracker # imm = 0x14FE
	movw	$2, RunTimeSignatureAdjuster
.LBB2_176:                              #   in Loop: Header=BB2_170 Depth=2
	movw	BasicBlockSignatureTracker, %ax
	movw	RunTimeSignatureAdjuster, %cx
	xorw	$510, %ax               # imm = 0x1FE
	xorw	%cx, %ax
	cmpw	$5378, %ax              # imm = 0x1502
	jne	.LBB2_243
# %bb.177:                              # %mainSort.split621
                                        #   in Loop: Header=BB2_170 Depth=2
	movq	-88(%rbp), %rax         # 8-byte Reload
	movq	(%rax), %rax
	movq	-96(%rbp), %rcx         # 8-byte Reload
	movslq	(%rcx), %rcx
	movb	(%rax,%rcx), %al
	movq	-168(%rbp), %rcx        # 8-byte Reload
	movb	%al, (%rcx)
	movzbl	(%rcx), %eax
	movq	-152(%rbp), %rcx        # 8-byte Reload
	movb	(%rcx,%rax), %al
	movw	$5378, BasicBlockSignatureTracker # imm = 0x1502
	movw	$0, RunTimeSignatureAdjuster
	cmpb	$0, %al
	jne	.LBB2_180
# %bb.178:                              #   in Loop: Header=BB2_170 Depth=2
	movw	BasicBlockSignatureTracker, %ax
	xorw	$7, %ax
	cmpw	$5381, %ax              # imm = 0x1505
	jne	.LBB2_243
# %bb.179:                              # %mainSort.split625
                                        #   in Loop: Header=BB2_170 Depth=2
	movq	-96(%rbp), %rax         # 8-byte Reload
	movl	(%rax), %eax
	movq	-104(%rbp), %rcx        # 8-byte Reload
	movq	(%rcx), %rcx
	movq	-168(%rbp), %rdx        # 8-byte Reload
	movzbl	(%rdx), %edx
	movq	-136(%rbp), %rbx        # 8-byte Reload
	movl	(%rbx,%rdx,4), %esi
	movl	%esi, %edi
	addl	$-1, %edi
	movl	%edi, (%rbx,%rdx,4)
	movslq	%esi, %rdx
	movl	%eax, (%rcx,%rdx,4)
	movw	$5381, BasicBlockSignatureTracker # imm = 0x1505
	movw	$7, RunTimeSignatureAdjuster
.LBB2_180:                              #   in Loop: Header=BB2_170 Depth=2
	movw	BasicBlockSignatureTracker, %ax
	movw	RunTimeSignatureAdjuster, %cx
	xorw	$36, %ax
	xorw	%cx, %ax
	cmpw	$5414, %ax              # imm = 0x1526
	jne	.LBB2_243
# %bb.181:                              # %mainSort.split623
                                        #   in Loop: Header=BB2_170 Depth=2
	movw	$5414, BasicBlockSignatureTracker # imm = 0x1526
	movw	$0, RunTimeSignatureAdjuster
# %bb.182:                              #   in Loop: Header=BB2_170 Depth=2
	movw	BasicBlockSignatureTracker, %ax
	xorw	$117, %ax
	cmpw	$5459, %ax              # imm = 0x1553
	jne	.LBB2_243
# %bb.183:                              # %mainSort.split627
                                        #   in Loop: Header=BB2_170 Depth=2
	movq	-48(%rbp), %rcx         # 8-byte Reload
	movl	(%rcx), %eax
	addl	$-1, %eax
	movl	%eax, (%rcx)
	movw	$5459, BasicBlockSignatureTracker # imm = 0x1553
	movw	$420, RunTimeSignatureAdjuster # imm = 0x1A4
	jmp	.LBB2_170
.LBB2_184:                              #   in Loop: Header=BB2_110 Depth=1
	movw	BasicBlockSignatureTracker, %ax
	xorw	$361, %ax               # imm = 0x169
	cmpw	$5521, %ax              # imm = 0x1591
	jne	.LBB2_247
# %bb.185:                              # %mainSort.split617
                                        #   in Loop: Header=BB2_110 Depth=1
	movq	-64(%rbp), %rcx         # 8-byte Reload
	movslq	(%rcx), %rax
	movq	-144(%rbp), %rdx        # 8-byte Reload
	movl	(%rdx,%rax,4), %eax
	subl	$1, %eax
	movslq	(%rcx), %rcx
	movq	-136(%rbp), %rdx        # 8-byte Reload
	movl	(%rdx,%rcx,4), %ecx
	movw	$5521, BasicBlockSignatureTracker # imm = 0x1591
	movw	$0, RunTimeSignatureAdjuster
	cmpl	%ecx, %eax
	je	.LBB2_194
# %bb.186:                              #   in Loop: Header=BB2_110 Depth=1
	movw	BasicBlockSignatureTracker, %ax
	xorw	$61, %ax
	cmpw	$5548, %ax              # imm = 0x15AC
	jne	.LBB2_247
# %bb.187:                              # %mainSort.split631
                                        #   in Loop: Header=BB2_110 Depth=1
	movq	-64(%rbp), %rax         # 8-byte Reload
	movslq	(%rax), %rax
	movq	-144(%rbp), %rcx        # 8-byte Reload
	movl	(%rcx,%rax,4), %eax
	movw	$5548, BasicBlockSignatureTracker # imm = 0x15AC
	movw	$0, RunTimeSignatureAdjuster
	cmpl	$0, %eax
	jne	.LBB2_190
# %bb.188:                              #   in Loop: Header=BB2_110 Depth=1
	movw	BasicBlockSignatureTracker, %ax
	xorw	$18, %ax
	cmpw	$5566, %ax              # imm = 0x15BE
	jne	.LBB2_247
# %bb.189:                              # %mainSort.split633
                                        #   in Loop: Header=BB2_110 Depth=1
	movq	-64(%rbp), %rax         # 8-byte Reload
	movslq	(%rax), %rax
	movq	-136(%rbp), %rcx        # 8-byte Reload
	movl	(%rcx,%rax,4), %eax
	movq	-80(%rbp), %rcx         # 8-byte Reload
	movl	(%rcx), %ecx
	subl	$1, %ecx
	movw	$5566, BasicBlockSignatureTracker # imm = 0x15BE
	movw	$18, RunTimeSignatureAdjuster
	cmpl	%ecx, %eax
	je	.LBB2_192
.LBB2_190:                              #   in Loop: Header=BB2_110 Depth=1
	movw	BasicBlockSignatureTracker, %ax
	movw	RunTimeSignatureAdjuster, %cx
	xorw	$114, %ax
	xorw	%cx, %ax
	cmpw	$5598, %ax              # imm = 0x15DE
	jne	.LBB2_247
# %bb.191:                              # %mainSort.split635
                                        #   in Loop: Header=BB2_110 Depth=1
	movw	$5598, BasicBlockSignatureTracker # imm = 0x15DE
	movw	$6041, RunTimeSignatureAdjuster # imm = 0x1799
	movl	$1007, %edi             # imm = 0x3EF
	callq	BZ2_bz__AssertH__fail
	movw	$5598, BasicBlockSignatureTracker # imm = 0x15DE
	movw	$6041, RunTimeSignatureAdjuster # imm = 0x1799
	movw	$5598, BasicBlockSignatureTracker # imm = 0x15DE
	movw	$79, RunTimeSignatureAdjuster
	jmp	.LBB2_194
.LBB2_192:                              # %Buffer__2
                                        #   in Loop: Header=BB2_110 Depth=1
	movw	BasicBlockSignatureTracker, %ax
	xorw	$-27905, %ax            # imm = 0x92FF
	cmpw	$-30911, %ax            # imm = 0x8741
	jne	.LBB2_247
# %bb.193:                              # %mainSort.split637
                                        #   in Loop: Header=BB2_110 Depth=1
	movw	$-30911, BasicBlockSignatureTracker # imm = 0x8741
	movw	$-27952, RunTimeSignatureAdjuster # imm = 0x92D0
.LBB2_194:                              #   in Loop: Header=BB2_110 Depth=1
	movw	BasicBlockSignatureTracker, %ax
	movw	RunTimeSignatureAdjuster, %cx
	xorw	$117, %ax
	xorw	%cx, %ax
	cmpw	$5604, %ax              # imm = 0x15E4
	jne	.LBB2_247
# %bb.195:                              # %mainSort.split629
                                        #   in Loop: Header=BB2_110 Depth=1
	movq	-48(%rbp), %rax         # 8-byte Reload
	movl	$0, (%rax)
	movw	$5604, BasicBlockSignatureTracker # imm = 0x15E4
	movw	$0, RunTimeSignatureAdjuster
.LBB2_196:                              #   Parent Loop BB2_110 Depth=1
                                        # =>  This Inner Loop Header: Depth=2
	movw	BasicBlockSignatureTracker, %ax
	movw	RunTimeSignatureAdjuster, %cx
	xorw	$3, %ax
	xorw	%cx, %ax
	cmpw	$5607, %ax              # imm = 0x15E7
	jne	.LBB2_242
# %bb.197:                              # %mainSort.split639
                                        #   in Loop: Header=BB2_196 Depth=2
	movq	-48(%rbp), %rax         # 8-byte Reload
	movl	(%rax), %eax
	movw	$5607, BasicBlockSignatureTracker # imm = 0x15E7
	movw	$0, RunTimeSignatureAdjuster
	cmpl	$255, %eax
	jg	.LBB2_202
# %bb.198:                              #   in Loop: Header=BB2_196 Depth=2
	movw	BasicBlockSignatureTracker, %ax
	xorw	$12, %ax
	cmpw	$5611, %ax              # imm = 0x15EB
	jne	.LBB2_242
# %bb.199:                              # %mainSort.split641
                                        #   in Loop: Header=BB2_196 Depth=2
	movq	(%r12), %rax
	movq	-48(%rbp), %rcx         # 8-byte Reload
	movl	(%rcx), %ecx
	shll	$8, %ecx
	movq	-64(%rbp), %rdx         # 8-byte Reload
	addl	(%rdx), %ecx
	movslq	%ecx, %rcx
	movl	(%rax,%rcx,4), %edx
	orl	$2097152, %edx          # imm = 0x200000
	movl	%edx, (%rax,%rcx,4)
	movw	$5611, BasicBlockSignatureTracker # imm = 0x15EB
	movw	$0, RunTimeSignatureAdjuster
# %bb.200:                              #   in Loop: Header=BB2_196 Depth=2
	movw	BasicBlockSignatureTracker, %ax
	xorw	$6, %ax
	cmpw	$5613, %ax              # imm = 0x15ED
	jne	.LBB2_242
# %bb.201:                              # %mainSort.split645
                                        #   in Loop: Header=BB2_196 Depth=2
	movq	-48(%rbp), %rcx         # 8-byte Reload
	movl	(%rcx), %eax
	addl	$1, %eax
	movl	%eax, (%rcx)
	movw	$5613, BasicBlockSignatureTracker # imm = 0x15ED
	movw	$9, RunTimeSignatureAdjuster
	jmp	.LBB2_196
.LBB2_202:                              #   in Loop: Header=BB2_110 Depth=1
	movw	BasicBlockSignatureTracker, %ax
	xorw	$995, %ax               # imm = 0x3E3
	cmpw	$5636, %ax              # imm = 0x1604
	jne	.LBB2_247
# %bb.203:                              # %mainSort.split643
                                        #   in Loop: Header=BB2_110 Depth=1
	movq	-64(%rbp), %rax         # 8-byte Reload
	movslq	(%rax), %rax
	movq	-152(%rbp), %rcx        # 8-byte Reload
	movb	$1, (%rcx,%rax)
	movq	-56(%rbp), %rax         # 8-byte Reload
	movl	(%rax), %eax
	movw	$5636, BasicBlockSignatureTracker # imm = 0x1604
	movw	$0, RunTimeSignatureAdjuster
	cmpl	$255, %eax
	jge	.LBB2_228
# %bb.204:                              #   in Loop: Header=BB2_110 Depth=1
	movw	BasicBlockSignatureTracker, %ax
	xorw	$9, %ax
	cmpw	$5645, %ax              # imm = 0x160D
	jne	.LBB2_247
# %bb.205:                              # %mainSort.split647
                                        #   in Loop: Header=BB2_110 Depth=1
	movq	%r12, %rdx
	movq	(%rdx), %rax
	movq	-64(%rbp), %rsi         # 8-byte Reload
	movl	(%rsi), %ecx
	shll	$8, %ecx
	movslq	%ecx, %rcx
	movl	(%rax,%rcx,4), %eax
	andl	$-2097153, %eax         # imm = 0xFFDFFFFF
	movq	-240(%rbp), %rdi        # 8-byte Reload
	movl	%eax, (%rdi)
	movq	(%rdx), %rax
	movl	(%rsi), %ecx
	addl	$1, %ecx
	shll	$8, %ecx
	movslq	%ecx, %rcx
	movl	(%rax,%rcx,4), %eax
	andl	$-2097153, %eax         # imm = 0xFFDFFFFF
	subl	(%rdi), %eax
	movq	-160(%rbp), %rcx        # 8-byte Reload
	movl	%eax, (%rcx)
	movq	-128(%rbp), %rax        # 8-byte Reload
	movl	$0, (%rax)
	movw	$5645, BasicBlockSignatureTracker # imm = 0x160D
	movw	$0, RunTimeSignatureAdjuster
.LBB2_206:                              #   Parent Loop BB2_110 Depth=1
                                        # =>  This Inner Loop Header: Depth=2
	movw	BasicBlockSignatureTracker, %ax
	movw	RunTimeSignatureAdjuster, %cx
	xorw	$30, %ax
	xorw	%cx, %ax
	cmpw	$5651, %ax              # imm = 0x1613
	jne	.LBB2_241
# %bb.207:                              # %mainSort.split651
                                        #   in Loop: Header=BB2_206 Depth=2
	movq	-160(%rbp), %rax        # 8-byte Reload
	movl	(%rax), %eax
	movq	-128(%rbp), %rcx        # 8-byte Reload
	movl	(%rcx), %ecx
                                        # kill: def %cl killed %ecx
	sarl	%cl, %eax
	movw	$5651, BasicBlockSignatureTracker # imm = 0x1613
	movw	$0, RunTimeSignatureAdjuster
	cmpl	$65534, %eax            # imm = 0xFFFE
	jle	.LBB2_210
# %bb.208:                              #   in Loop: Header=BB2_206 Depth=2
	movw	BasicBlockSignatureTracker, %ax
	xorw	$11, %ax
	cmpw	$5656, %ax              # imm = 0x1618
	jne	.LBB2_241
# %bb.209:                              # %mainSort.split653
                                        #   in Loop: Header=BB2_206 Depth=2
	movq	-128(%rbp), %rcx        # 8-byte Reload
	movl	(%rcx), %eax
	addl	$1, %eax
	movl	%eax, (%rcx)
	movw	$5656, BasicBlockSignatureTracker # imm = 0x1618
	movw	$21, RunTimeSignatureAdjuster
	jmp	.LBB2_206
.LBB2_210:                              #   in Loop: Header=BB2_110 Depth=1
	movw	BasicBlockSignatureTracker, %ax
	xorw	$113, %ax
	cmpw	$5730, %ax              # imm = 0x1662
	jne	.LBB2_247
# %bb.211:                              # %mainSort.split655
                                        #   in Loop: Header=BB2_110 Depth=1
	movq	-160(%rbp), %rax        # 8-byte Reload
	movl	(%rax), %eax
	subl	$1, %eax
	movq	-48(%rbp), %rcx         # 8-byte Reload
	movl	%eax, (%rcx)
	movw	$5730, BasicBlockSignatureTracker # imm = 0x1662
	movw	$0, RunTimeSignatureAdjuster
.LBB2_212:                              #   Parent Loop BB2_110 Depth=1
                                        # =>  This Inner Loop Header: Depth=2
	movw	BasicBlockSignatureTracker, %ax
	movw	RunTimeSignatureAdjuster, %cx
	xorw	$20, %ax
	xorw	%cx, %ax
	cmpw	$5750, %ax              # imm = 0x1676
	jne	.LBB2_240
# %bb.213:                              # %mainSort.split657
                                        #   in Loop: Header=BB2_212 Depth=2
	movq	-48(%rbp), %rax         # 8-byte Reload
	movl	(%rax), %eax
	movw	$5750, BasicBlockSignatureTracker # imm = 0x1676
	movw	$0, RunTimeSignatureAdjuster
	cmpl	$0, %eax
	jl	.LBB2_222
# %bb.214:                              #   in Loop: Header=BB2_212 Depth=2
	movw	BasicBlockSignatureTracker, %ax
	xorw	$248, %ax
	cmpw	$5774, %ax              # imm = 0x168E
	jne	.LBB2_240
# %bb.215:                              # %mainSort.split659
                                        #   in Loop: Header=BB2_212 Depth=2
	movq	-104(%rbp), %rax        # 8-byte Reload
	movq	(%rax), %rax
	movq	-240(%rbp), %rcx        # 8-byte Reload
	movl	(%rcx), %ecx
	movq	-48(%rbp), %rdx         # 8-byte Reload
	addl	(%rdx), %ecx
	movslq	%ecx, %rcx
	movl	(%rax,%rcx,4), %eax
	movq	-232(%rbp), %rsi        # 8-byte Reload
	movl	%eax, (%rsi)
	movl	(%rdx), %eax
	movq	-128(%rbp), %rcx        # 8-byte Reload
	movl	(%rcx), %ecx
                                        # kill: def %cl killed %ecx
	sarl	%cl, %eax
	movq	-224(%rbp), %rcx        # 8-byte Reload
	movw	%ax, (%rcx)
	movw	(%rcx), %ax
	movq	(%r14), %rcx
	movslq	(%rsi), %rdx
	movw	%ax, (%rcx,%rdx,2)
	movl	(%rsi), %eax
	movw	$5774, BasicBlockSignatureTracker # imm = 0x168E
	movw	$0, RunTimeSignatureAdjuster
	cmpl	$34, %eax
	jge	.LBB2_218
# %bb.216:                              #   in Loop: Header=BB2_212 Depth=2
	movw	BasicBlockSignatureTracker, %ax
	xorw	$30, %ax
	cmpw	$5776, %ax              # imm = 0x1690
	jne	.LBB2_240
# %bb.217:                              # %mainSort.split663
                                        #   in Loop: Header=BB2_212 Depth=2
	movq	-224(%rbp), %rax        # 8-byte Reload
	movw	(%rax), %ax
	movq	(%r14), %rcx
	movq	-232(%rbp), %rdx        # 8-byte Reload
	movl	(%rdx), %edx
	movq	-80(%rbp), %rsi         # 8-byte Reload
	addl	(%rsi), %edx
	movslq	%edx, %rdx
	movw	%ax, (%rcx,%rdx,2)
	movw	$5776, BasicBlockSignatureTracker # imm = 0x1690
	movw	$30, RunTimeSignatureAdjuster
.LBB2_218:                              #   in Loop: Header=BB2_212 Depth=2
	movw	BasicBlockSignatureTracker, %ax
	movw	RunTimeSignatureAdjuster, %cx
	xorw	$24, %ax
	xorw	%cx, %ax
	cmpw	$5782, %ax              # imm = 0x1696
	jne	.LBB2_240
# %bb.219:                              # %mainSort.split665
                                        #   in Loop: Header=BB2_212 Depth=2
	movw	$5782, BasicBlockSignatureTracker # imm = 0x1696
	movw	$0, RunTimeSignatureAdjuster
# %bb.220:                              #   in Loop: Header=BB2_212 Depth=2
	movw	BasicBlockSignatureTracker, %ax
	xorw	$84, %ax
	cmpw	$5826, %ax              # imm = 0x16C2
	jne	.LBB2_240
# %bb.221:                              # %mainSort.split667
                                        #   in Loop: Header=BB2_212 Depth=2
	movq	-48(%rbp), %rcx         # 8-byte Reload
	movl	(%rcx), %eax
	addl	$-1, %eax
	movl	%eax, (%rcx)
	movw	$5826, BasicBlockSignatureTracker # imm = 0x16C2
	movw	$160, RunTimeSignatureAdjuster
	jmp	.LBB2_212
.LBB2_222:                              #   in Loop: Header=BB2_110 Depth=1
	movw	BasicBlockSignatureTracker, %ax
	xorw	$178, %ax
	cmpw	$5828, %ax              # imm = 0x16C4
	jne	.LBB2_247
# %bb.223:                              # %mainSort.split661
                                        #   in Loop: Header=BB2_110 Depth=1
	movq	-160(%rbp), %rax        # 8-byte Reload
	movl	(%rax), %eax
	subl	$1, %eax
	movq	-128(%rbp), %rcx        # 8-byte Reload
	movl	(%rcx), %ecx
                                        # kill: def %cl killed %ecx
	sarl	%cl, %eax
	movw	$5828, BasicBlockSignatureTracker # imm = 0x16C4
	movw	$0, RunTimeSignatureAdjuster
	cmpl	$65535, %eax            # imm = 0xFFFF
	jle	.LBB2_226
# %bb.224:                              #   in Loop: Header=BB2_110 Depth=1
	movw	BasicBlockSignatureTracker, %ax
	xorw	$27, %ax
	cmpw	$5855, %ax              # imm = 0x16DF
	jne	.LBB2_247
# %bb.225:                              # %mainSort.split671
                                        #   in Loop: Header=BB2_110 Depth=1
	movw	$5855, BasicBlockSignatureTracker # imm = 0x16DF
	movw	$5272, RunTimeSignatureAdjuster # imm = 0x1498
	movl	$1002, %edi             # imm = 0x3EA
	callq	BZ2_bz__AssertH__fail
	movw	$5855, BasicBlockSignatureTracker # imm = 0x16DF
	movw	$5272, RunTimeSignatureAdjuster # imm = 0x1498
	movw	$5855, BasicBlockSignatureTracker # imm = 0x16DF
	movw	$27, RunTimeSignatureAdjuster
.LBB2_226:                              #   in Loop: Header=BB2_110 Depth=1
	movw	BasicBlockSignatureTracker, %ax
	movw	RunTimeSignatureAdjuster, %cx
	xorw	$39, %ax
	xorw	%cx, %ax
	cmpw	$5859, %ax              # imm = 0x16E3
	jne	.LBB2_247
# %bb.227:                              # %mainSort.split669
                                        #   in Loop: Header=BB2_110 Depth=1
	movw	$5859, BasicBlockSignatureTracker # imm = 0x16E3
	movw	$231, RunTimeSignatureAdjuster
.LBB2_228:                              #   in Loop: Header=BB2_110 Depth=1
	movw	BasicBlockSignatureTracker, %ax
	movw	RunTimeSignatureAdjuster, %cx
	xorw	$250, %ax
	xorw	%cx, %ax
	cmpw	$5886, %ax              # imm = 0x16FE
	jne	.LBB2_247
# %bb.229:                              # %mainSort.split649
                                        #   in Loop: Header=BB2_110 Depth=1
	movw	$5886, BasicBlockSignatureTracker # imm = 0x16FE
	movw	$0, RunTimeSignatureAdjuster
# %bb.230:                              #   in Loop: Header=BB2_110 Depth=1
	movw	BasicBlockSignatureTracker, %ax
	xorw	$498, %ax               # imm = 0x1F2
	cmpw	$5900, %ax              # imm = 0x170C
	jne	.LBB2_247
# %bb.231:                              # %mainSort.split673
                                        #   in Loop: Header=BB2_110 Depth=1
	movq	-56(%rbp), %rcx         # 8-byte Reload
	movl	(%rcx), %eax
	addl	$1, %eax
	movl	%eax, (%rcx)
	movw	$5900, BasicBlockSignatureTracker # imm = 0x170C
	movw	$1283, RunTimeSignatureAdjuster # imm = 0x503
	jmp	.LBB2_110
.LBB2_232:
	movw	BasicBlockSignatureTracker, %ax
	xorw	$1333, %ax              # imm = 0x535
	cmpw	$5930, %ax              # imm = 0x172A
	jne	.LBB2_260
# %bb.233:                              # %mainSort.split553
	movl	(%r15), %eax
	movw	$5930, BasicBlockSignatureTracker # imm = 0x172A
	movw	$1431, RunTimeSignatureAdjuster # imm = 0x597
	cmpl	$4, %eax
	jl	.LBB2_238
# %bb.234:                              # %Buffer__3
	movw	BasicBlockSignatureTracker, %ax
	xorw	$-26675, %ax            # imm = 0x97CD
	cmpw	$-32537, %ax            # imm = 0x80E7
	jne	.LBB2_260
# %bb.235:                              # %mainSort.split675
	movw	$-32537, BasicBlockSignatureTracker # imm = 0x80E7
	movw	$-26675, RunTimeSignatureAdjuster # imm = 0x97CD
# %bb.236:
	movw	BasicBlockSignatureTracker, %ax
	movw	RunTimeSignatureAdjuster, %cx
	xorw	$5, %ax
	xorw	%cx, %ax
	cmpw	$5935, %ax              # imm = 0x172F
	movq	-80(%rbp), %rax         # 8-byte Reload
	jne	.LBB2_260
# %bb.237:                              # %mainSort.split681
	movabsq	$.L.str.8, %rsi
	movq	stderr, %rdi
	movl	(%rax), %edx
	movq	-176(%rbp), %rbx        # 8-byte Reload
	movl	(%rbx), %ecx
	movl	(%rax), %r8d
	subl	(%rbx), %r8d
	movb	$0, %al
	callq	fprintf
	movw	$5935, BasicBlockSignatureTracker # imm = 0x172F
	movw	$1426, RunTimeSignatureAdjuster # imm = 0x592
.LBB2_238:
	movw	BasicBlockSignatureTracker, %ax
	movw	RunTimeSignatureAdjuster, %cx
	xorw	$1412, %ax              # imm = 0x584
	xorw	%cx, %ax
	cmpw	$5945, %ax              # imm = 0x1739
	jne	.LBB2_260
# %bb.239:                              # %mainSort.split581
	movw	$5945, BasicBlockSignatureTracker # imm = 0x1739
	movw	$6141, RunTimeSignatureAdjuster # imm = 0x17FD
	leaq	-40(%rbp), %rsp
	popq	%rbx
	popq	%r12
	popq	%r13
	popq	%r14
	popq	%r15
	popq	%rbp
	retq
.LBB2_240:                              # %CFerrorHandler.mainSort.loopexit
	jmp	.LBB2_260
.LBB2_241:                              # %CFerrorHandler.mainSort.loopexit1
	jmp	.LBB2_260
.LBB2_242:                              # %CFerrorHandler.mainSort.loopexit2
	jmp	.LBB2_260
.LBB2_243:                              # %CFerrorHandler.mainSort.loopexit3
	jmp	.LBB2_260
.LBB2_244:                              # %CFerrorHandler.mainSort.loopexit4
	jmp	.LBB2_260
.LBB2_245:                              # %CFerrorHandler.mainSort.loopexit5
	jmp	.LBB2_260
.LBB2_246:                              # %CFerrorHandler.mainSort.loopexit6
	jmp	.LBB2_260
.LBB2_247:                              # %CFerrorHandler.mainSort.loopexit7
	jmp	.LBB2_260
.LBB2_248:                              # %CFerrorHandler.mainSort.loopexit8
	jmp	.LBB2_260
.LBB2_249:                              # %CFerrorHandler.mainSort.loopexit9
	jmp	.LBB2_260
.LBB2_250:                              # %CFerrorHandler.mainSort.loopexit10
	jmp	.LBB2_260
.LBB2_251:                              # %CFerrorHandler.mainSort.loopexit11
	jmp	.LBB2_260
.LBB2_252:                              # %CFerrorHandler.mainSort.loopexit12
	jmp	.LBB2_260
.LBB2_253:                              # %CFerrorHandler.mainSort.loopexit13
	jmp	.LBB2_260
.LBB2_254:                              # %CFerrorHandler.mainSort.loopexit14
	jmp	.LBB2_260
.LBB2_255:                              # %CFerrorHandler.mainSort.loopexit15
	jmp	.LBB2_260
.LBB2_256:                              # %CFerrorHandler.mainSort.loopexit16
	jmp	.LBB2_260
.LBB2_257:                              # %CFerrorHandler.mainSort.loopexit17
	jmp	.LBB2_260
.LBB2_258:                              # %CFerrorHandler.mainSort.loopexit18
	jmp	.LBB2_260
.LBB2_259:                              # %CFerrorHandler.mainSort.loopexit19
	jmp	.LBB2_260
.LBB2_260:                              # %CFerrorHandler.mainSort
	callq	FAULT_DETECTED_CFC
.Lfunc_end2:
	.size	mainSort, .Lfunc_end2-mainSort
	.cfi_endproc
                                        # -- End function
	.p2align	4, 0x90         # -- Begin function mainQSort3
	.type	mainQSort3,@function
mainQSort3:                             # @mainQSort3
	.cfi_startproc
# %bb.0:
	pushq	%rbp
	.cfi_def_cfa_offset 16
	.cfi_offset %rbp, -16
	movq	%rsp, %rbp
	.cfi_def_cfa_register %rbp
	pushq	%r15
	pushq	%r14
	pushq	%r13
	pushq	%r12
	pushq	%rbx
	subq	$264, %rsp              # imm = 0x108
	.cfi_offset %rbx, -56
	.cfi_offset %r12, -48
	.cfi_offset %r13, -40
	.cfi_offset %r14, -32
	.cfi_offset %r15, -24
	movw	BasicBlockSignatureTracker, %ax
	movw	RunTimeSignatureAdjuster, %bx
	xorw	$1523, %ax              # imm = 0x5F3
	xorw	%bx, %ax
	cmpw	$5963, %ax              # imm = 0x174B
	jne	.LBB3_114
# %bb.1:                                # %mainQSort3.split
	movq	%rsp, %r12
	addq	$-16, %r12
	movq	%r12, %rsp
	movl	%ecx, -152(%rbp)        # 4-byte Spill
	movq	%rdx, -200(%rbp)        # 8-byte Spill
	movq	%rsi, -192(%rbp)        # 8-byte Spill
	movq	%rdi, %rcx
	movq	%rsp, %r10
	addq	$-16, %r10
	movq	%r10, %rsp
	movq	%rsp, %r13
	addq	$-16, %r13
	movq	%r13, %rsp
	movq	%rsp, %r11
	addq	$-16, %r11
	movq	%r11, %rsp
	movl	%r9d, -136(%rbp)        # 4-byte Spill
	movq	%rsp, %r9
	addq	$-16, %r9
	movq	%r9, %rsp
	movq	%rsp, %rdi
	addq	$-16, %rdi
	movq	%rdi, %rsp
	movq	%rsp, %rdx
	addq	$-16, %rdx
	movq	%rdx, %rsp
	movl	%r8d, -160(%rbp)        # 4-byte Spill
	movq	%rsp, %r8
	addq	$-16, %r8
	movq	%r8, %rsp
	movq	%rsp, %rax
	addq	$-16, %rax
	movq	%rax, -48(%rbp)         # 8-byte Spill
	movq	%rax, %rsp
	movq	%rsp, %rax
	addq	$-16, %rax
	movq	%rax, -56(%rbp)         # 8-byte Spill
	movq	%rax, %rsp
	movq	%rsp, %rax
	addq	$-16, %rax
	movq	%rax, -120(%rbp)        # 8-byte Spill
	movq	%rax, %rsp
	movq	%rsp, %rax
	addq	$-16, %rax
	movq	%rax, -112(%rbp)        # 8-byte Spill
	movq	%rax, %rsp
	movq	%rsp, %rax
	addq	$-16, %rax
	movq	%rax, -128(%rbp)        # 8-byte Spill
	movq	%rax, %rsp
	movq	%rsp, %rax
	addq	$-16, %rax
	movq	%rax, -240(%rbp)        # 8-byte Spill
	movq	%rax, %rsp
	movq	%rsp, %rax
	addq	$-16, %rax
	movq	%rax, -184(%rbp)        # 8-byte Spill
	movq	%rax, %rsp
	movq	%rsp, %r14
	addq	$-16, %r14
	movq	%r14, %rsp
	movq	%rsp, %rax
	addq	$-16, %rax
	movq	%rax, -80(%rbp)         # 8-byte Spill
	movq	%rax, %rsp
	movq	%rsp, %rax
	addq	$-16, %rax
	movq	%rax, -72(%rbp)         # 8-byte Spill
	movq	%rax, %rsp
	movq	%rsp, %rax
	addq	$-16, %rax
	movq	%rax, -88(%rbp)         # 8-byte Spill
	movq	%rax, %rsp
	movq	%rsp, %rsi
	addq	$-400, %rsi             # imm = 0xFE70
	movq	%rsi, %rsp
	movq	%rsp, %rbx
	addq	$-400, %rbx             # imm = 0xFE70
	movq	%rbx, %rsp
	movq	%rsp, %r15
	addq	$-400, %r15             # imm = 0xFE70
	movq	%r15, %rsp
	movq	%rsp, %rax
	addq	$-16, %rax
	movq	%rax, -104(%rbp)        # 8-byte Spill
	movq	%rax, %rsp
	movq	%rsp, %rax
	addq	$-16, %rax
	movq	%rax, -96(%rbp)         # 8-byte Spill
	movq	%rax, %rsp
	movq	%rsp, %rax
	addq	$-16, %rax
	movq	%rax, -144(%rbp)        # 8-byte Spill
	movq	%rax, %rsp
	movq	%rsp, %rax
	addq	$-16, %rax
	movq	%rax, -304(%rbp)        # 8-byte Spill
	movq	%rax, %rsp
	movq	%rsp, %rax
	addq	$-16, %rax
	movq	%rax, -296(%rbp)        # 8-byte Spill
	movq	%rax, %rsp
	movq	%rsp, %rax
	addq	$-16, %rax
	movq	%rax, -288(%rbp)        # 8-byte Spill
	movq	%rax, %rsp
	movq	%rsp, %rax
	addq	$-16, %rax
	movq	%rax, -232(%rbp)        # 8-byte Spill
	movq	%rax, %rsp
	movq	%rsp, %rax
	addq	$-16, %rax
	movq	%rax, -224(%rbp)        # 8-byte Spill
	movq	%rax, %rsp
	movq	%rsp, %rax
	addq	$-16, %rax
	movq	%rax, -176(%rbp)        # 8-byte Spill
	movq	%rax, %rsp
	movq	%rsp, %rax
	addq	$-16, %rax
	movq	%rax, -280(%rbp)        # 8-byte Spill
	movq	%rax, %rsp
	movq	%rsp, %rax
	addq	$-16, %rax
	movq	%rax, -216(%rbp)        # 8-byte Spill
	movq	%rax, %rsp
	movq	%rsp, %rax
	addq	$-16, %rax
	movq	%rax, -208(%rbp)        # 8-byte Spill
	movq	%rax, %rsp
	movq	%rsp, %rax
	addq	$-16, %rax
	movq	%rax, -168(%rbp)        # 8-byte Spill
	movq	%rax, %rsp
	movq	%rsp, %rax
	addq	$-16, %rax
	movq	%rax, -272(%rbp)        # 8-byte Spill
	movq	%rax, %rsp
	movq	%rsp, %rax
	addq	$-16, %rax
	movq	%rax, -264(%rbp)        # 8-byte Spill
	movq	%rax, %rsp
	movq	%rsp, %rax
	addq	$-16, %rax
	movq	%rax, -256(%rbp)        # 8-byte Spill
	movq	%rax, %rsp
	movq	%rsp, %rax
	addq	$-16, %rax
	movq	%rax, -248(%rbp)        # 8-byte Spill
	movq	%rax, %rsp
	movq	%r12, -64(%rbp)         # 8-byte Spill
	movq	%rcx, (%r12)
	movq	%r10, %r12
	movq	-192(%rbp), %rax        # 8-byte Reload
	movq	%rax, (%r12)
	movq	-200(%rbp), %rax        # 8-byte Reload
	movq	%rax, (%r13)
	movq	%r11, -200(%rbp)        # 8-byte Spill
	movl	-152(%rbp), %eax        # 4-byte Reload
	movl	%eax, (%r11)
	movl	-160(%rbp), %eax        # 4-byte Reload
	movl	%eax, (%r9)
	movl	-136(%rbp), %eax        # 4-byte Reload
	movl	%eax, (%rdi)
	movl	16(%rbp), %eax
	movl	%eax, (%rdx)
	movq	%r8, -192(%rbp)         # 8-byte Spill
	movq	24(%rbp), %rax
	movq	%rax, (%r8)
	movl	$0, (%r14)
	movl	(%r9), %eax
	movslq	(%r14), %rcx
	movq	%rsi, -152(%rbp)        # 8-byte Spill
	movl	%eax, (%rsi,%rcx,4)
	movl	(%rdi), %eax
	movslq	(%r14), %rcx
	movl	%eax, (%rbx,%rcx,4)
	movl	(%rdx), %eax
	movslq	(%r14), %rcx
	movl	%eax, (%r15,%rcx,4)
	movl	(%r14), %eax
	addl	$1, %eax
	movl	%eax, (%r14)
	movw	$5963, BasicBlockSignatureTracker # imm = 0x174B
	movw	$0, RunTimeSignatureAdjuster
.LBB3_2:                                # =>This Loop Header: Depth=1
                                        #     Child Loop BB3_23 Depth 2
                                        #       Child Loop BB3_25 Depth 3
                                        #       Child Loop BB3_42 Depth 3
                                        #     Child Loop BB3_75 Depth 2
                                        #     Child Loop BB3_87 Depth 2
	movw	BasicBlockSignatureTracker, %ax
	movw	RunTimeSignatureAdjuster, %cx
	xorw	$34, %ax
	xorw	%cx, %ax
	cmpw	$5993, %ax              # imm = 0x1769
	jne	.LBB3_113
# %bb.3:                                # %mainQSort3.split190
                                        #   in Loop: Header=BB3_2 Depth=1
	movl	(%r14), %eax
	movw	$5993, BasicBlockSignatureTracker # imm = 0x1769
	movw	$0, RunTimeSignatureAdjuster
	cmpl	$0, %eax
	jle	.LBB3_105
# %bb.4:                                #   in Loop: Header=BB3_2 Depth=1
	movw	BasicBlockSignatureTracker, %ax
	xorw	$19, %ax
	cmpw	$6010, %ax              # imm = 0x177A
	jne	.LBB3_113
# %bb.5:                                # %mainQSort3.split192
                                        #   in Loop: Header=BB3_2 Depth=1
	movl	(%r14), %eax
	movw	$6010, BasicBlockSignatureTracker # imm = 0x177A
	movw	$0, RunTimeSignatureAdjuster
	cmpl	$100, %eax
	jl	.LBB3_8
# %bb.6:                                #   in Loop: Header=BB3_2 Depth=1
	movw	BasicBlockSignatureTracker, %ax
	xorw	$240, %ax
	cmpw	$6026, %ax              # imm = 0x178A
	jne	.LBB3_113
# %bb.7:                                # %mainQSort3.split198
                                        #   in Loop: Header=BB3_2 Depth=1
	movw	$6026, BasicBlockSignatureTracker # imm = 0x178A
	movw	$5581, RunTimeSignatureAdjuster # imm = 0x15CD
	movl	$1001, %edi             # imm = 0x3E9
	callq	BZ2_bz__AssertH__fail
	movw	$6026, BasicBlockSignatureTracker # imm = 0x178A
	movw	$5581, RunTimeSignatureAdjuster # imm = 0x15CD
	movw	$6026, BasicBlockSignatureTracker # imm = 0x178A
	movw	$240, RunTimeSignatureAdjuster
.LBB3_8:                                #   in Loop: Header=BB3_2 Depth=1
	movw	BasicBlockSignatureTracker, %ax
	movw	RunTimeSignatureAdjuster, %cx
	xorw	$211, %ax
	xorw	%cx, %ax
	cmpw	$6057, %ax              # imm = 0x17A9
	jne	.LBB3_113
# %bb.9:                                # %mainQSort3.split196
                                        #   in Loop: Header=BB3_2 Depth=1
	movl	(%r14), %eax
	addl	$-1, %eax
	movl	%eax, (%r14)
	movslq	(%r14), %rax
	movq	-152(%rbp), %rcx        # 8-byte Reload
	movl	(%rcx,%rax,4), %eax
	movq	-80(%rbp), %rcx         # 8-byte Reload
	movl	%eax, (%rcx)
	movslq	(%r14), %rax
	movl	(%rbx,%rax,4), %eax
	movq	-72(%rbp), %rdx         # 8-byte Reload
	movl	%eax, (%rdx)
	movslq	(%r14), %rax
	movl	(%r15,%rax,4), %eax
	movq	-88(%rbp), %rsi         # 8-byte Reload
	movl	%eax, (%rsi)
	movl	(%rdx), %eax
	subl	(%rcx), %eax
	movw	$6057, BasicBlockSignatureTracker # imm = 0x17A9
	movw	$0, RunTimeSignatureAdjuster
	cmpl	$20, %eax
	jl	.LBB3_12
# %bb.10:                               #   in Loop: Header=BB3_2 Depth=1
	movw	BasicBlockSignatureTracker, %ax
	xorw	$5, %ax
	cmpw	$6060, %ax              # imm = 0x17AC
	jne	.LBB3_113
# %bb.11:                               # %mainQSort3.split202
                                        #   in Loop: Header=BB3_2 Depth=1
	movq	-88(%rbp), %rax         # 8-byte Reload
	movl	(%rax), %eax
	movw	$6060, BasicBlockSignatureTracker # imm = 0x17AC
	movw	$5, RunTimeSignatureAdjuster
	cmpl	$14, %eax
	jle	.LBB3_19
.LBB3_12:                               #   in Loop: Header=BB3_2 Depth=1
	movw	BasicBlockSignatureTracker, %ax
	movw	RunTimeSignatureAdjuster, %cx
	xorw	$102, %ax
	xorw	%cx, %ax
	cmpw	$6095, %ax              # imm = 0x17CF
	jne	.LBB3_113
# %bb.13:                               # %mainQSort3.split200
                                        #   in Loop: Header=BB3_2 Depth=1
	movq	%r15, -136(%rbp)        # 8-byte Spill
	movq	%rbx, %r15
	movq	-64(%rbp), %rax         # 8-byte Reload
	movq	(%rax), %rdi
	movq	(%r12), %rsi
	movq	(%r13), %rdx
	movq	-200(%rbp), %rax        # 8-byte Reload
	movl	(%rax), %ecx
	movq	-80(%rbp), %rax         # 8-byte Reload
	movl	(%rax), %r8d
	movq	-72(%rbp), %rax         # 8-byte Reload
	movl	(%rax), %r9d
	movq	-88(%rbp), %rax         # 8-byte Reload
	movl	(%rax), %eax
	movq	-192(%rbp), %rbx        # 8-byte Reload
	movq	(%rbx), %r10
	movw	$6095, BasicBlockSignatureTracker # imm = 0x17CF
	movw	$0, RunTimeSignatureAdjuster
	subq	$16, %rsp
	movl	%eax, (%rsp)
	movq	%r10, 8(%rsp)
	callq	mainSimpleSort
	addq	$16, %rsp
	movw	$6095, BasicBlockSignatureTracker # imm = 0x17CF
	movw	$0, RunTimeSignatureAdjuster
	movq	(%rbx), %rax
	movl	(%rax), %eax
	movw	$6095, BasicBlockSignatureTracker # imm = 0x17CF
	movw	$0, RunTimeSignatureAdjuster
	cmpl	$0, %eax
	jge	.LBB3_16
# %bb.14:
	movw	BasicBlockSignatureTracker, %ax
	xorw	$46, %ax
	cmpw	$6113, %ax              # imm = 0x17E1
	jne	.LBB3_114
# %bb.15:                               # %mainQSort3.split206
	movw	$6113, BasicBlockSignatureTracker # imm = 0x17E1
	movw	$136, RunTimeSignatureAdjuster
	jmp	.LBB3_106
.LBB3_16:                               #   in Loop: Header=BB3_2 Depth=1
	movw	BasicBlockSignatureTracker, %ax
	xorw	$4035, %ax              # imm = 0xFC3
	cmpw	$6156, %ax              # imm = 0x180C
	movq	%r15, %rbx
	movq	-136(%rbp), %r15        # 8-byte Reload
	jne	.LBB3_113
# %bb.17:                               # %mainQSort3.split208
                                        #   in Loop: Header=BB3_2 Depth=1
	movw	$6156, BasicBlockSignatureTracker # imm = 0x180C
	movw	$3911, RunTimeSignatureAdjuster # imm = 0xF47
.LBB3_18:                               # %.backedge7
                                        #   in Loop: Header=BB3_2 Depth=1
	jmp	.LBB3_2
.LBB3_19:                               # %Buffer__
                                        #   in Loop: Header=BB3_2 Depth=1
	movw	BasicBlockSignatureTracker, %ax
	xorw	$27522, %ax             # imm = 0x6B82
	cmpw	$31790, %ax             # imm = 0x7C2E
	jne	.LBB3_113
# %bb.20:                               # %mainQSort3.split204
                                        #   in Loop: Header=BB3_2 Depth=1
	movw	$31790, BasicBlockSignatureTracker # imm = 0x7C2E
	movw	$27522, RunTimeSignatureAdjuster # imm = 0x6B82
# %bb.21:                               #   in Loop: Header=BB3_2 Depth=1
	movw	BasicBlockSignatureTracker, %ax
	movw	RunTimeSignatureAdjuster, %cx
	xorw	$4021, %ax              # imm = 0xFB5
	xorw	%cx, %ax
	cmpw	$6169, %ax              # imm = 0x1819
	jne	.LBB3_113
# %bb.22:                               # %mainQSort3.split290
                                        #   in Loop: Header=BB3_2 Depth=1
	movq	%r15, -136(%rbp)        # 8-byte Spill
	movq	%rbx, -160(%rbp)        # 8-byte Spill
	movq	(%r12), %rsi
	movq	-64(%rbp), %rdi         # 8-byte Reload
	movq	(%rdi), %rcx
	movq	-80(%rbp), %r15         # 8-byte Reload
	movslq	(%r15), %rdx
	movl	(%rcx,%rdx,4), %ecx
	movq	-88(%rbp), %rax         # 8-byte Reload
	addl	(%rax), %ecx
	movl	%ecx, %ecx
	movb	(%rsi,%rcx), %r8b
	movq	(%r12), %rcx
	movq	(%rdi), %rdx
	movq	-72(%rbp), %rbx         # 8-byte Reload
	movslq	(%rbx), %rsi
	movl	(%rdx,%rsi,4), %edx
	addl	(%rax), %edx
	movl	%edx, %edx
	movb	(%rcx,%rdx), %cl
	movq	(%r12), %rdx
	movq	(%rdi), %rsi
	movl	(%r15), %edi
	addl	(%rbx), %edi
	sarl	$1, %edi
	movslq	%edi, %rdi
	movl	(%rsi,%rdi,4), %esi
	addl	(%rax), %esi
	movl	%esi, %esi
	movb	(%rdx,%rsi), %dl
	movw	$6169, BasicBlockSignatureTracker # imm = 0x1819
	movw	$0, RunTimeSignatureAdjuster
	movzbl	%r8b, %edi
	movzbl	%cl, %esi
	movzbl	%dl, %edx
	callq	mmed3
	movw	$6169, BasicBlockSignatureTracker # imm = 0x1819
	movw	$0, RunTimeSignatureAdjuster
	movzbl	%al, %eax
	movq	-184(%rbp), %rcx        # 8-byte Reload
	movl	%eax, (%rcx)
	movl	(%r15), %eax
	movq	-120(%rbp), %rcx        # 8-byte Reload
	movl	%eax, (%rcx)
	movq	-48(%rbp), %rcx         # 8-byte Reload
	movl	%eax, (%rcx)
	movl	(%rbx), %eax
	movq	-112(%rbp), %rcx        # 8-byte Reload
	movl	%eax, (%rcx)
	movq	-56(%rbp), %rcx         # 8-byte Reload
	movl	%eax, (%rcx)
	movw	$6169, BasicBlockSignatureTracker # imm = 0x1819
	movw	$0, RunTimeSignatureAdjuster
.LBB3_23:                               #   Parent Loop BB3_2 Depth=1
                                        # =>  This Loop Header: Depth=2
                                        #       Child Loop BB3_25 Depth 3
                                        #       Child Loop BB3_42 Depth 3
	movw	BasicBlockSignatureTracker, %ax
	movw	RunTimeSignatureAdjuster, %cx
	xorw	$130, %ax
	xorw	%cx, %ax
	cmpw	$6299, %ax              # imm = 0x189B
	jne	.LBB3_112
# %bb.24:                               # %mainQSort3.split210
                                        #   in Loop: Header=BB3_23 Depth=2
	movw	$6299, BasicBlockSignatureTracker # imm = 0x189B
	movw	$0, RunTimeSignatureAdjuster
.LBB3_25:                               #   Parent Loop BB3_2 Depth=1
                                        #     Parent Loop BB3_23 Depth=2
                                        # =>    This Inner Loop Header: Depth=3
	movw	BasicBlockSignatureTracker, %ax
	movw	RunTimeSignatureAdjuster, %cx
	xorw	$38, %ax
	xorw	%cx, %ax
	cmpw	$6333, %ax              # imm = 0x18BD
	jne	.LBB3_109
# %bb.26:                               # %mainQSort3.split212
                                        #   in Loop: Header=BB3_25 Depth=3
	movq	-48(%rbp), %rax         # 8-byte Reload
	movl	(%rax), %eax
	movq	-56(%rbp), %rcx         # 8-byte Reload
	movl	(%rcx), %ecx
	movw	$6333, BasicBlockSignatureTracker # imm = 0x18BD
	movw	$0, RunTimeSignatureAdjuster
	cmpl	%ecx, %eax
	jle	.LBB3_29
# %bb.27:                               #   in Loop: Header=BB3_23 Depth=2
	movw	BasicBlockSignatureTracker, %ax
	xorw	$102, %ax
	cmpw	$6363, %ax              # imm = 0x18DB
	jne	.LBB3_112
# %bb.28:                               # %mainQSort3.split214
                                        #   in Loop: Header=BB3_23 Depth=2
	movq	%r12, %r8
	movw	$6363, BasicBlockSignatureTracker # imm = 0x18DB
	movw	$0, RunTimeSignatureAdjuster
	jmp	.LBB3_40
.LBB3_29:                               #   in Loop: Header=BB3_25 Depth=3
	movw	BasicBlockSignatureTracker, %ax
	xorw	$69, %ax
	cmpw	$6392, %ax              # imm = 0x18F8
	jne	.LBB3_109
# %bb.30:                               # %mainQSort3.split216
                                        #   in Loop: Header=BB3_25 Depth=3
	movq	%r12, %r8
	movq	(%r12), %rax
	movq	-64(%rbp), %rcx         # 8-byte Reload
	movq	(%rcx), %rcx
	movq	-48(%rbp), %rdx         # 8-byte Reload
	movslq	(%rdx), %rdx
	movl	(%rcx,%rdx,4), %ecx
	movq	-88(%rbp), %rdx         # 8-byte Reload
	addl	(%rdx), %ecx
	movl	%ecx, %ecx
	movzbl	(%rax,%rcx), %eax
	movq	-184(%rbp), %rcx        # 8-byte Reload
	subl	(%rcx), %eax
	movq	-128(%rbp), %rcx        # 8-byte Reload
	movl	%eax, (%rcx)
	movl	(%rcx), %eax
	movw	$6392, BasicBlockSignatureTracker # imm = 0x18F8
	movw	$0, RunTimeSignatureAdjuster
	cmpl	$0, %eax
	jne	.LBB3_34
# %bb.31:                               #   in Loop: Header=BB3_25 Depth=3
	movw	BasicBlockSignatureTracker, %ax
	xorw	$495, %ax               # imm = 0x1EF
	cmpw	$6423, %ax              # imm = 0x1917
	jne	.LBB3_109
# %bb.32:                               # %mainQSort3.split220
                                        #   in Loop: Header=BB3_25 Depth=3
	movq	-64(%rbp), %rsi         # 8-byte Reload
	movq	(%rsi), %rax
	movq	-48(%rbp), %rbx         # 8-byte Reload
	movslq	(%rbx), %rcx
	movl	(%rax,%rcx,4), %eax
	movq	-304(%rbp), %r9         # 8-byte Reload
	movl	%eax, (%r9)
	movq	(%rsi), %rax
	movq	-120(%rbp), %rdi        # 8-byte Reload
	movslq	(%rdi), %rcx
	movl	(%rax,%rcx,4), %eax
	movq	(%rsi), %rcx
	movslq	(%rbx), %rdx
	movl	%eax, (%rcx,%rdx,4)
	movl	(%r9), %eax
	movq	(%rsi), %rcx
	movslq	(%rdi), %rdx
	movl	%eax, (%rcx,%rdx,4)
	movl	(%rdi), %eax
	addl	$1, %eax
	movl	%eax, (%rdi)
	movl	(%rbx), %eax
	addl	$1, %eax
	movl	%eax, (%rbx)
	movw	$6423, BasicBlockSignatureTracker # imm = 0x1917
	movw	$396, RunTimeSignatureAdjuster # imm = 0x18C
.LBB3_33:                               # %.backedge2
                                        #   in Loop: Header=BB3_25 Depth=3
	movq	%r8, %r12
	jmp	.LBB3_25
.LBB3_34:                               #   in Loop: Header=BB3_25 Depth=3
	movw	BasicBlockSignatureTracker, %ax
	xorw	$486, %ax               # imm = 0x1E6
	cmpw	$6430, %ax              # imm = 0x191E
	jne	.LBB3_109
# %bb.35:                               # %mainQSort3.split222
                                        #   in Loop: Header=BB3_25 Depth=3
	movq	-128(%rbp), %rax        # 8-byte Reload
	movl	(%rax), %eax
	movw	$6430, BasicBlockSignatureTracker # imm = 0x191E
	movw	$0, RunTimeSignatureAdjuster
	cmpl	$0, %eax
	jle	.LBB3_38
# %bb.36:                               #   in Loop: Header=BB3_23 Depth=2
	movw	BasicBlockSignatureTracker, %ax
	xorw	$73, %ax
	cmpw	$6487, %ax              # imm = 0x1957
	jne	.LBB3_112
# %bb.37:                               # %mainQSort3.split224
                                        #   in Loop: Header=BB3_23 Depth=2
	movw	$6487, BasicBlockSignatureTracker # imm = 0x1957
	movw	$396, RunTimeSignatureAdjuster # imm = 0x18C
	jmp	.LBB3_40
.LBB3_38:                               #   in Loop: Header=BB3_25 Depth=3
	movw	BasicBlockSignatureTracker, %ax
	xorw	$116, %ax
	cmpw	$6506, %ax              # imm = 0x196A
	jne	.LBB3_109
# %bb.39:                               # %mainQSort3.split226
                                        #   in Loop: Header=BB3_25 Depth=3
	movq	-48(%rbp), %rcx         # 8-byte Reload
	movl	(%rcx), %eax
	addl	$1, %eax
	movl	%eax, (%rcx)
	movw	$6506, BasicBlockSignatureTracker # imm = 0x196A
	movw	$497, RunTimeSignatureAdjuster # imm = 0x1F1
	jmp	.LBB3_33
.LBB3_40:                               #   in Loop: Header=BB3_23 Depth=2
	movw	BasicBlockSignatureTracker, %ax
	movw	RunTimeSignatureAdjuster, %cx
	xorw	$350, %ax               # imm = 0x15E
	xorw	%cx, %ax
	cmpw	$6533, %ax              # imm = 0x1985
	movq	%r8, %rdi
	jne	.LBB3_112
# %bb.41:                               # %mainQSort3.split218
                                        #   in Loop: Header=BB3_23 Depth=2
	movw	$6533, BasicBlockSignatureTracker # imm = 0x1985
	movw	$0, RunTimeSignatureAdjuster
.LBB3_42:                               #   Parent Loop BB3_2 Depth=1
                                        #     Parent Loop BB3_23 Depth=2
                                        # =>    This Inner Loop Header: Depth=3
	movw	BasicBlockSignatureTracker, %ax
	movw	RunTimeSignatureAdjuster, %cx
	xorw	$77, %ax
	xorw	%cx, %ax
	cmpw	$6600, %ax              # imm = 0x19C8
	jne	.LBB3_108
# %bb.43:                               # %mainQSort3.split228
                                        #   in Loop: Header=BB3_42 Depth=3
	movq	-48(%rbp), %rax         # 8-byte Reload
	movl	(%rax), %eax
	movq	-56(%rbp), %rcx         # 8-byte Reload
	movl	(%rcx), %ecx
	movw	$6600, BasicBlockSignatureTracker # imm = 0x19C8
	movw	$0, RunTimeSignatureAdjuster
	cmpl	%ecx, %eax
	jle	.LBB3_46
# %bb.44:                               #   in Loop: Header=BB3_23 Depth=2
	movw	BasicBlockSignatureTracker, %ax
	xorw	$45, %ax
	cmpw	$6629, %ax              # imm = 0x19E5
	jne	.LBB3_112
# %bb.45:                               # %mainQSort3.split230
                                        #   in Loop: Header=BB3_23 Depth=2
	movw	$6629, BasicBlockSignatureTracker # imm = 0x19E5
	movw	$0, RunTimeSignatureAdjuster
	jmp	.LBB3_57
.LBB3_46:                               #   in Loop: Header=BB3_42 Depth=3
	movw	BasicBlockSignatureTracker, %ax
	xorw	$1004, %ax              # imm = 0x3EC
	cmpw	$6692, %ax              # imm = 0x1A24
	jne	.LBB3_108
# %bb.47:                               # %mainQSort3.split232
                                        #   in Loop: Header=BB3_42 Depth=3
	movq	(%rdi), %rax
	movq	-64(%rbp), %rcx         # 8-byte Reload
	movq	(%rcx), %rcx
	movq	-56(%rbp), %rdx         # 8-byte Reload
	movslq	(%rdx), %rdx
	movl	(%rcx,%rdx,4), %ecx
	movq	-88(%rbp), %rdx         # 8-byte Reload
	addl	(%rdx), %ecx
	movl	%ecx, %ecx
	movzbl	(%rax,%rcx), %eax
	movq	-184(%rbp), %rcx        # 8-byte Reload
	subl	(%rcx), %eax
	movq	-128(%rbp), %rcx        # 8-byte Reload
	movl	%eax, (%rcx)
	movl	(%rcx), %eax
	movw	$6692, BasicBlockSignatureTracker # imm = 0x1A24
	movw	$0, RunTimeSignatureAdjuster
	cmpl	$0, %eax
	jne	.LBB3_51
# %bb.48:                               #   in Loop: Header=BB3_42 Depth=3
	movw	BasicBlockSignatureTracker, %ax
	xorw	$13, %ax
	cmpw	$6697, %ax              # imm = 0x1A29
	jne	.LBB3_108
# %bb.49:                               # %mainQSort3.split236
                                        #   in Loop: Header=BB3_42 Depth=3
	movq	-64(%rbp), %rsi         # 8-byte Reload
	movq	(%rsi), %rax
	movq	-56(%rbp), %r8          # 8-byte Reload
	movslq	(%r8), %rcx
	movl	(%rax,%rcx,4), %eax
	movq	-296(%rbp), %r10        # 8-byte Reload
	movl	%eax, (%r10)
	movq	(%rsi), %rax
	movq	-112(%rbp), %rbx        # 8-byte Reload
	movslq	(%rbx), %rcx
	movl	(%rax,%rcx,4), %eax
	movq	(%rsi), %rcx
	movslq	(%r8), %rdx
	movl	%eax, (%rcx,%rdx,4)
	movl	(%r10), %eax
	movq	(%rsi), %rcx
	movslq	(%rbx), %rdx
	movl	%eax, (%rcx,%rdx,4)
	movl	(%rbx), %eax
	addl	$-1, %eax
	movl	%eax, (%rbx)
	movl	(%r8), %eax
	addl	$-1, %eax
	movl	%eax, (%r8)
	movw	$6697, BasicBlockSignatureTracker # imm = 0x1A29
	movw	$940, RunTimeSignatureAdjuster # imm = 0x3AC
.LBB3_50:                               # %.backedge
                                        #   in Loop: Header=BB3_42 Depth=3
	jmp	.LBB3_42
.LBB3_51:                               #   in Loop: Header=BB3_42 Depth=3
	movw	BasicBlockSignatureTracker, %ax
	xorw	$15, %ax
	cmpw	$6699, %ax              # imm = 0x1A2B
	jne	.LBB3_108
# %bb.52:                               # %mainQSort3.split238
                                        #   in Loop: Header=BB3_42 Depth=3
	movq	-128(%rbp), %rax        # 8-byte Reload
	movl	(%rax), %eax
	movw	$6699, BasicBlockSignatureTracker # imm = 0x1A2B
	movw	$0, RunTimeSignatureAdjuster
	cmpl	$0, %eax
	jge	.LBB3_55
# %bb.53:                               #   in Loop: Header=BB3_23 Depth=2
	movw	BasicBlockSignatureTracker, %ax
	xorw	$31, %ax
	cmpw	$6708, %ax              # imm = 0x1A34
	jne	.LBB3_112
# %bb.54:                               # %mainQSort3.split240
                                        #   in Loop: Header=BB3_23 Depth=2
	movw	$6708, BasicBlockSignatureTracker # imm = 0x1A34
	movw	$977, RunTimeSignatureAdjuster # imm = 0x3D1
	jmp	.LBB3_57
.LBB3_55:                               #   in Loop: Header=BB3_42 Depth=3
	movw	BasicBlockSignatureTracker, %ax
	xorw	$107, %ax
	cmpw	$6720, %ax              # imm = 0x1A40
	jne	.LBB3_108
# %bb.56:                               # %mainQSort3.split242
                                        #   in Loop: Header=BB3_42 Depth=3
	movq	-56(%rbp), %rcx         # 8-byte Reload
	movl	(%rcx), %eax
	addl	$-1, %eax
	movl	%eax, (%rcx)
	movw	$6720, BasicBlockSignatureTracker # imm = 0x1A40
	movw	$965, RunTimeSignatureAdjuster # imm = 0x3C5
	jmp	.LBB3_50
.LBB3_57:                               #   in Loop: Header=BB3_23 Depth=2
	movw	BasicBlockSignatureTracker, %ax
	movw	RunTimeSignatureAdjuster, %cx
	xorw	$953, %ax               # imm = 0x3B9
	xorw	%cx, %ax
	cmpw	$6748, %ax              # imm = 0x1A5C
	jne	.LBB3_112
# %bb.58:                               # %mainQSort3.split234
                                        #   in Loop: Header=BB3_23 Depth=2
	movq	-48(%rbp), %rax         # 8-byte Reload
	movl	(%rax), %eax
	movq	-56(%rbp), %rcx         # 8-byte Reload
	movl	(%rcx), %ecx
	movw	$6748, BasicBlockSignatureTracker # imm = 0x1A5C
	movw	$0, RunTimeSignatureAdjuster
	cmpl	%ecx, %eax
	jle	.LBB3_61
# %bb.59:                               #   in Loop: Header=BB3_2 Depth=1
	movw	BasicBlockSignatureTracker, %ax
	xorw	$44, %ax
	cmpw	$6768, %ax              # imm = 0x1A70
	jne	.LBB3_113
# %bb.60:                               # %mainQSort3.split244
                                        #   in Loop: Header=BB3_2 Depth=1
	movw	$6768, BasicBlockSignatureTracker # imm = 0x1A70
	movw	$0, RunTimeSignatureAdjuster
	jmp	.LBB3_63
.LBB3_61:                               #   in Loop: Header=BB3_23 Depth=2
	movw	BasicBlockSignatureTracker, %ax
	xorw	$221, %ax
	cmpw	$6785, %ax              # imm = 0x1A81
	movq	%rdi, %r12
	jne	.LBB3_112
# %bb.62:                               # %mainQSort3.split246
                                        #   in Loop: Header=BB3_23 Depth=2
	movq	-64(%rbp), %rsi         # 8-byte Reload
	movq	(%rsi), %rax
	movq	-48(%rbp), %rdi         # 8-byte Reload
	movslq	(%rdi), %rcx
	movl	(%rax,%rcx,4), %eax
	movq	-288(%rbp), %r8         # 8-byte Reload
	movl	%eax, (%r8)
	movq	(%rsi), %rax
	movq	-56(%rbp), %rbx         # 8-byte Reload
	movslq	(%rbx), %rcx
	movl	(%rax,%rcx,4), %eax
	movq	(%rsi), %rcx
	movslq	(%rdi), %rdx
	movl	%eax, (%rcx,%rdx,4)
	movl	(%r8), %eax
	movq	(%rsi), %rcx
	movslq	(%rbx), %rdx
	movl	%eax, (%rcx,%rdx,4)
	movl	(%rdi), %eax
	addl	$1, %eax
	movl	%eax, (%rdi)
	movl	(%rbx), %eax
	addl	$-1, %eax
	movl	%eax, (%rbx)
	movw	$6785, BasicBlockSignatureTracker # imm = 0x1A81
	movw	$664, RunTimeSignatureAdjuster # imm = 0x298
	jmp	.LBB3_23
.LBB3_63:                               #   in Loop: Header=BB3_2 Depth=1
	movw	BasicBlockSignatureTracker, %ax
	xorw	$235, %ax
	cmpw	$6811, %ax              # imm = 0x1A9B
	jne	.LBB3_113
# %bb.64:                               # %mainQSort3.split248
                                        #   in Loop: Header=BB3_2 Depth=1
	movq	-112(%rbp), %rax        # 8-byte Reload
	movl	(%rax), %eax
	movq	-120(%rbp), %rcx        # 8-byte Reload
	movl	(%rcx), %ecx
	movw	$6811, BasicBlockSignatureTracker # imm = 0x1A9B
	movw	$0, RunTimeSignatureAdjuster
	cmpl	%ecx, %eax
	jge	.LBB3_67
# %bb.65:                               #   in Loop: Header=BB3_2 Depth=1
	movw	BasicBlockSignatureTracker, %ax
	xorw	$68, %ax
	cmpw	$6879, %ax              # imm = 0x1ADF
	movq	%rdi, %r12
	movq	-160(%rbp), %rbx        # 8-byte Reload
	movq	-136(%rbp), %r15        # 8-byte Reload
	jne	.LBB3_113
# %bb.66:                               # %mainQSort3.split250
                                        #   in Loop: Header=BB3_2 Depth=1
	movq	-80(%rbp), %rax         # 8-byte Reload
	movl	(%rax), %eax
	movslq	(%r14), %rcx
	movq	-152(%rbp), %rdx        # 8-byte Reload
	movl	%eax, (%rdx,%rcx,4)
	movq	-72(%rbp), %rax         # 8-byte Reload
	movl	(%rax), %eax
	movslq	(%r14), %rcx
	movl	%eax, (%rbx,%rcx,4)
	movq	-88(%rbp), %rax         # 8-byte Reload
	movl	(%rax), %eax
	addl	$1, %eax
	movslq	(%r14), %rcx
	movl	%eax, (%r15,%rcx,4)
	movl	(%r14), %eax
	addl	$1, %eax
	movl	%eax, (%r14)
	movw	$6879, BasicBlockSignatureTracker # imm = 0x1ADF
	movw	$3476, RunTimeSignatureAdjuster # imm = 0xD94
	jmp	.LBB3_18
.LBB3_67:                               #   in Loop: Header=BB3_2 Depth=1
	movw	BasicBlockSignatureTracker, %ax
	xorw	$117, %ax
	cmpw	$6894, %ax              # imm = 0x1AEE
	jne	.LBB3_113
# %bb.68:                               # %mainQSort3.split252
                                        #   in Loop: Header=BB3_2 Depth=1
	movq	-120(%rbp), %rdx        # 8-byte Reload
	movl	(%rdx), %eax
	movq	-80(%rbp), %rcx         # 8-byte Reload
	subl	(%rcx), %eax
	movq	-48(%rbp), %rcx         # 8-byte Reload
	movl	(%rcx), %ecx
	subl	(%rdx), %ecx
	movw	$6894, BasicBlockSignatureTracker # imm = 0x1AEE
	movw	$0, RunTimeSignatureAdjuster
	cmpl	%ecx, %eax
	jge	.LBB3_71
# %bb.69:                               #   in Loop: Header=BB3_2 Depth=1
	movw	BasicBlockSignatureTracker, %ax
	xorw	$491, %ax               # imm = 0x1EB
	cmpw	$6917, %ax              # imm = 0x1B05
	jne	.LBB3_113
# %bb.70:                               # %mainQSort3.split254
                                        #   in Loop: Header=BB3_2 Depth=1
	movq	-120(%rbp), %rax        # 8-byte Reload
	movl	(%rax), %eax
	movq	-80(%rbp), %rcx         # 8-byte Reload
	subl	(%rcx), %eax
	movw	$6917, BasicBlockSignatureTracker # imm = 0x1B05
	movw	$0, RunTimeSignatureAdjuster
	jmp	.LBB3_73
.LBB3_71:                               #   in Loop: Header=BB3_2 Depth=1
	movw	BasicBlockSignatureTracker, %ax
	xorw	$502, %ax               # imm = 0x1F6
	cmpw	$6936, %ax              # imm = 0x1B18
	jne	.LBB3_113
# %bb.72:                               # %mainQSort3.split256
                                        #   in Loop: Header=BB3_2 Depth=1
	movq	-48(%rbp), %rax         # 8-byte Reload
	movl	(%rax), %eax
	movq	-120(%rbp), %rcx        # 8-byte Reload
	subl	(%rcx), %eax
	movw	$6936, BasicBlockSignatureTracker # imm = 0x1B18
	movw	$29, RunTimeSignatureAdjuster
.LBB3_73:                               #   in Loop: Header=BB3_2 Depth=1
	movw	BasicBlockSignatureTracker, %cx
	movw	RunTimeSignatureAdjuster, %dx
	xorw	$59, %cx
	xorw	%dx, %cx
	cmpw	$6974, %cx              # imm = 0x1B3E
	jne	.LBB3_113
# %bb.74:                               # %mainQSort3.split258
                                        #   in Loop: Header=BB3_2 Depth=1
	movq	-128(%rbp), %rcx        # 8-byte Reload
	movl	%eax, (%rcx)
	movq	-80(%rbp), %rax         # 8-byte Reload
	movl	(%rax), %eax
	movq	-232(%rbp), %rdx        # 8-byte Reload
	movl	%eax, (%rdx)
	movq	-48(%rbp), %rax         # 8-byte Reload
	movl	(%rax), %eax
	subl	(%rcx), %eax
	movq	-224(%rbp), %rdx        # 8-byte Reload
	movl	%eax, (%rdx)
	movl	(%rcx), %eax
	movq	-176(%rbp), %rcx        # 8-byte Reload
	movl	%eax, (%rcx)
	movw	$6974, BasicBlockSignatureTracker # imm = 0x1B3E
	movw	$0, RunTimeSignatureAdjuster
.LBB3_75:                               #   Parent Loop BB3_2 Depth=1
                                        # =>  This Inner Loop Header: Depth=2
	movw	BasicBlockSignatureTracker, %ax
	movw	RunTimeSignatureAdjuster, %cx
	xorw	$112, %ax
	xorw	%cx, %ax
	cmpw	$6990, %ax              # imm = 0x1B4E
	jne	.LBB3_111
# %bb.76:                               # %mainQSort3.split260
                                        #   in Loop: Header=BB3_75 Depth=2
	movq	-176(%rbp), %rax        # 8-byte Reload
	movl	(%rax), %eax
	movw	$6990, BasicBlockSignatureTracker # imm = 0x1B4E
	movw	$0, RunTimeSignatureAdjuster
	cmpl	$0, %eax
	jle	.LBB3_79
# %bb.77:                               #   in Loop: Header=BB3_75 Depth=2
	movw	BasicBlockSignatureTracker, %ax
	xorw	$31, %ax
	cmpw	$6993, %ax              # imm = 0x1B51
	jne	.LBB3_111
# %bb.78:                               # %mainQSort3.split262
                                        #   in Loop: Header=BB3_75 Depth=2
	movq	-64(%rbp), %rsi         # 8-byte Reload
	movq	(%rsi), %rax
	movq	-232(%rbp), %rbx        # 8-byte Reload
	movslq	(%rbx), %rcx
	movl	(%rax,%rcx,4), %eax
	movq	-280(%rbp), %r10        # 8-byte Reload
	movl	%eax, (%r10)
	movq	(%rsi), %rax
	movq	-224(%rbp), %r8         # 8-byte Reload
	movslq	(%r8), %rcx
	movl	(%rax,%rcx,4), %eax
	movq	(%rsi), %rcx
	movslq	(%rbx), %rdx
	movl	%eax, (%rcx,%rdx,4)
	movl	(%r10), %eax
	movq	(%rsi), %rcx
	movslq	(%r8), %rdx
	movl	%eax, (%rcx,%rdx,4)
	movl	(%rbx), %eax
	addl	$1, %eax
	movl	%eax, (%rbx)
	movl	(%r8), %eax
	addl	$1, %eax
	movl	%eax, (%r8)
	movq	-176(%rbp), %rcx        # 8-byte Reload
	movl	(%rcx), %eax
	addl	$-1, %eax
	movl	%eax, (%rcx)
	movw	$6993, BasicBlockSignatureTracker # imm = 0x1B51
	movw	$111, RunTimeSignatureAdjuster
	jmp	.LBB3_75
.LBB3_79:                               #   in Loop: Header=BB3_2 Depth=1
	movw	BasicBlockSignatureTracker, %ax
	xorw	$46, %ax
	cmpw	$7008, %ax              # imm = 0x1B60
	jne	.LBB3_113
# %bb.80:                               # %mainQSort3.split264
                                        #   in Loop: Header=BB3_2 Depth=1
	movq	-72(%rbp), %rax         # 8-byte Reload
	movl	(%rax), %eax
	movq	-112(%rbp), %rcx        # 8-byte Reload
	subl	(%rcx), %eax
	movl	(%rcx), %ecx
	movq	-56(%rbp), %rdx         # 8-byte Reload
	subl	(%rdx), %ecx
	movw	$7008, BasicBlockSignatureTracker # imm = 0x1B60
	movw	$0, RunTimeSignatureAdjuster
	cmpl	%ecx, %eax
	jge	.LBB3_83
# %bb.81:                               #   in Loop: Header=BB3_2 Depth=1
	movw	BasicBlockSignatureTracker, %ax
	xorw	$9, %ax
	cmpw	$7017, %ax              # imm = 0x1B69
	jne	.LBB3_113
# %bb.82:                               # %mainQSort3.split266
                                        #   in Loop: Header=BB3_2 Depth=1
	movq	-72(%rbp), %rax         # 8-byte Reload
	movl	(%rax), %eax
	movq	-112(%rbp), %rcx        # 8-byte Reload
	subl	(%rcx), %eax
	movw	$7017, BasicBlockSignatureTracker # imm = 0x1B69
	movw	$0, RunTimeSignatureAdjuster
	jmp	.LBB3_85
.LBB3_83:                               #   in Loop: Header=BB3_2 Depth=1
	movw	BasicBlockSignatureTracker, %ax
	xorw	$29, %ax
	cmpw	$7037, %ax              # imm = 0x1B7D
	jne	.LBB3_113
# %bb.84:                               # %mainQSort3.split268
                                        #   in Loop: Header=BB3_2 Depth=1
	movq	-112(%rbp), %rax        # 8-byte Reload
	movl	(%rax), %eax
	movq	-56(%rbp), %rcx         # 8-byte Reload
	subl	(%rcx), %eax
	movw	$7037, BasicBlockSignatureTracker # imm = 0x1B7D
	movw	$20, RunTimeSignatureAdjuster
.LBB3_85:                               #   in Loop: Header=BB3_2 Depth=1
	movw	BasicBlockSignatureTracker, %cx
	movw	RunTimeSignatureAdjuster, %dx
	xorw	$237, %cx
	xorw	%dx, %cx
	cmpw	$7044, %cx              # imm = 0x1B84
	jne	.LBB3_113
# %bb.86:                               # %mainQSort3.split270
                                        #   in Loop: Header=BB3_2 Depth=1
	movq	-240(%rbp), %rcx        # 8-byte Reload
	movl	%eax, (%rcx)
	movq	-48(%rbp), %rax         # 8-byte Reload
	movl	(%rax), %eax
	movq	-216(%rbp), %rdx        # 8-byte Reload
	movl	%eax, (%rdx)
	movq	-72(%rbp), %rax         # 8-byte Reload
	movl	(%rax), %eax
	subl	(%rcx), %eax
	addl	$1, %eax
	movq	-208(%rbp), %rdx        # 8-byte Reload
	movl	%eax, (%rdx)
	movl	(%rcx), %eax
	movq	-168(%rbp), %rcx        # 8-byte Reload
	movl	%eax, (%rcx)
	movw	$7044, BasicBlockSignatureTracker # imm = 0x1B84
	movw	$0, RunTimeSignatureAdjuster
.LBB3_87:                               #   Parent Loop BB3_2 Depth=1
                                        # =>  This Inner Loop Header: Depth=2
	movw	BasicBlockSignatureTracker, %ax
	movw	RunTimeSignatureAdjuster, %cx
	xorw	$12, %ax
	xorw	%cx, %ax
	cmpw	$7048, %ax              # imm = 0x1B88
	jne	.LBB3_110
# %bb.88:                               # %mainQSort3.split272
                                        #   in Loop: Header=BB3_87 Depth=2
	movq	-168(%rbp), %rax        # 8-byte Reload
	movl	(%rax), %eax
	movw	$7048, BasicBlockSignatureTracker # imm = 0x1B88
	movw	$0, RunTimeSignatureAdjuster
	cmpl	$0, %eax
	jle	.LBB3_91
# %bb.89:                               #   in Loop: Header=BB3_87 Depth=2
	movw	BasicBlockSignatureTracker, %ax
	xorw	$5, %ax
	cmpw	$7053, %ax              # imm = 0x1B8D
	jne	.LBB3_110
# %bb.90:                               # %mainQSort3.split274
                                        #   in Loop: Header=BB3_87 Depth=2
	movq	-64(%rbp), %rsi         # 8-byte Reload
	movq	(%rsi), %rax
	movq	-216(%rbp), %rbx        # 8-byte Reload
	movslq	(%rbx), %rcx
	movl	(%rax,%rcx,4), %eax
	movq	-272(%rbp), %r10        # 8-byte Reload
	movl	%eax, (%r10)
	movq	(%rsi), %rax
	movq	-208(%rbp), %r8         # 8-byte Reload
	movslq	(%r8), %rcx
	movl	(%rax,%rcx,4), %eax
	movq	(%rsi), %rcx
	movslq	(%rbx), %rdx
	movl	%eax, (%rcx,%rdx,4)
	movl	(%r10), %eax
	movq	(%rsi), %rcx
	movslq	(%r8), %rdx
	movl	%eax, (%rcx,%rdx,4)
	movl	(%rbx), %eax
	addl	$1, %eax
	movl	%eax, (%rbx)
	movl	(%r8), %eax
	addl	$1, %eax
	movl	%eax, (%r8)
	movq	-168(%rbp), %rcx        # 8-byte Reload
	movl	(%rcx), %eax
	addl	$-1, %eax
	movl	%eax, (%rcx)
	movw	$7053, BasicBlockSignatureTracker # imm = 0x1B8D
	movw	$9, RunTimeSignatureAdjuster
	jmp	.LBB3_87
.LBB3_91:                               #   in Loop: Header=BB3_2 Depth=1
	movw	BasicBlockSignatureTracker, %ax
	xorw	$18, %ax
	cmpw	$7066, %ax              # imm = 0x1B9A
	jne	.LBB3_113
# %bb.92:                               # %mainQSort3.split276
                                        #   in Loop: Header=BB3_2 Depth=1
	movq	-80(%rbp), %rbx         # 8-byte Reload
	movl	(%rbx), %eax
	movq	-48(%rbp), %rcx         # 8-byte Reload
	addl	(%rcx), %eax
	movq	-120(%rbp), %rcx        # 8-byte Reload
	subl	(%rcx), %eax
	subl	$1, %eax
	movq	-128(%rbp), %r10        # 8-byte Reload
	movl	%eax, (%r10)
	movq	-72(%rbp), %r8          # 8-byte Reload
	movl	(%r8), %eax
	movq	-112(%rbp), %rcx        # 8-byte Reload
	movl	(%rcx), %ecx
	movq	-56(%rbp), %rdx         # 8-byte Reload
	subl	(%rdx), %ecx
	subl	%ecx, %eax
	addl	$1, %eax
	movq	-240(%rbp), %rcx        # 8-byte Reload
	movl	%eax, (%rcx)
	movl	(%rbx), %eax
	movq	-104(%rbp), %rbx        # 8-byte Reload
	movl	%eax, (%rbx)
	movl	(%r10), %eax
	movq	-96(%rbp), %rsi         # 8-byte Reload
	movl	%eax, (%rsi)
	movq	-88(%rbp), %rdx         # 8-byte Reload
	movl	(%rdx), %eax
	movq	-144(%rbp), %r11        # 8-byte Reload
	movl	%eax, (%r11)
	movl	(%rcx), %eax
	movl	%eax, 4(%rbx)
	movl	(%r8), %eax
	movl	%eax, 4(%rsi)
	movl	(%rdx), %eax
	movl	%eax, 4(%r11)
	movl	(%r10), %eax
	addl	$1, %eax
	movl	%eax, 8(%rbx)
	movl	(%rcx), %eax
	subl	$1, %eax
	movl	%eax, 8(%rsi)
	movl	(%rdx), %eax
	addl	$1, %eax
	movl	%eax, 8(%r11)
	movl	(%rsi), %eax
	subl	(%rbx), %eax
	movl	4(%rsi), %ecx
	subl	4(%rbx), %ecx
	movw	$7066, BasicBlockSignatureTracker # imm = 0x1B9A
	movw	$0, RunTimeSignatureAdjuster
	cmpl	%ecx, %eax
	jge	.LBB3_95
# %bb.93:                               #   in Loop: Header=BB3_2 Depth=1
	movw	BasicBlockSignatureTracker, %ax
	xorw	$63, %ax
	cmpw	$7077, %ax              # imm = 0x1BA5
	jne	.LBB3_113
# %bb.94:                               # %mainQSort3.split278
                                        #   in Loop: Header=BB3_2 Depth=1
	movq	-104(%rbp), %rcx        # 8-byte Reload
	movl	(%rcx), %eax
	movq	-264(%rbp), %rdx        # 8-byte Reload
	movl	%eax, (%rdx)
	movl	4(%rcx), %eax
	movl	%eax, (%rcx)
	movl	(%rdx), %eax
	movl	%eax, 4(%rcx)
	movq	-96(%rbp), %rcx         # 8-byte Reload
	movl	(%rcx), %eax
	movl	%eax, (%rdx)
	movl	4(%rcx), %eax
	movl	%eax, (%rcx)
	movl	(%rdx), %eax
	movl	%eax, 4(%rcx)
	movq	-144(%rbp), %rcx        # 8-byte Reload
	movl	(%rcx), %eax
	movl	%eax, (%rdx)
	movl	4(%rcx), %eax
	movl	%eax, (%rcx)
	movl	(%rdx), %eax
	movl	%eax, 4(%rcx)
	movw	$7077, BasicBlockSignatureTracker # imm = 0x1BA5
	movw	$63, RunTimeSignatureAdjuster
.LBB3_95:                               #   in Loop: Header=BB3_2 Depth=1
	movw	BasicBlockSignatureTracker, %ax
	movw	RunTimeSignatureAdjuster, %cx
	xorw	$40, %ax
	xorw	%cx, %ax
	cmpw	$7090, %ax              # imm = 0x1BB2
	jne	.LBB3_113
# %bb.96:                               # %mainQSort3.split280
                                        #   in Loop: Header=BB3_2 Depth=1
	movq	-96(%rbp), %rcx         # 8-byte Reload
	movl	4(%rcx), %eax
	movq	-104(%rbp), %rdx        # 8-byte Reload
	subl	4(%rdx), %eax
	movl	8(%rcx), %ecx
	subl	8(%rdx), %ecx
	movw	$7090, BasicBlockSignatureTracker # imm = 0x1BB2
	movw	$0, RunTimeSignatureAdjuster
	cmpl	%ecx, %eax
	jge	.LBB3_99
# %bb.97:                               #   in Loop: Header=BB3_2 Depth=1
	movw	BasicBlockSignatureTracker, %ax
	xorw	$4, %ax
	cmpw	$7094, %ax              # imm = 0x1BB6
	jne	.LBB3_113
# %bb.98:                               # %mainQSort3.split282
                                        #   in Loop: Header=BB3_2 Depth=1
	movq	-104(%rbp), %rcx        # 8-byte Reload
	movl	4(%rcx), %eax
	movq	-256(%rbp), %rdx        # 8-byte Reload
	movl	%eax, (%rdx)
	movl	8(%rcx), %eax
	movl	%eax, 4(%rcx)
	movl	(%rdx), %eax
	movl	%eax, 8(%rcx)
	movq	-96(%rbp), %rcx         # 8-byte Reload
	movl	4(%rcx), %eax
	movl	%eax, (%rdx)
	movl	8(%rcx), %eax
	movl	%eax, 4(%rcx)
	movl	(%rdx), %eax
	movl	%eax, 8(%rcx)
	movq	-144(%rbp), %rcx        # 8-byte Reload
	movl	4(%rcx), %eax
	movl	%eax, (%rdx)
	movl	8(%rcx), %eax
	movl	%eax, 4(%rcx)
	movl	(%rdx), %eax
	movl	%eax, 8(%rcx)
	movw	$7094, BasicBlockSignatureTracker # imm = 0x1BB6
	movw	$4, RunTimeSignatureAdjuster
.LBB3_99:                               #   in Loop: Header=BB3_2 Depth=1
	movw	BasicBlockSignatureTracker, %ax
	movw	RunTimeSignatureAdjuster, %cx
	xorw	$77, %ax
	xorw	%cx, %ax
	cmpw	$7167, %ax              # imm = 0x1BFF
	jne	.LBB3_113
# %bb.100:                              # %mainQSort3.split284
                                        #   in Loop: Header=BB3_2 Depth=1
	movq	-96(%rbp), %rcx         # 8-byte Reload
	movl	(%rcx), %eax
	movq	-104(%rbp), %rdx        # 8-byte Reload
	subl	(%rdx), %eax
	movl	4(%rcx), %ecx
	subl	4(%rdx), %ecx
	movw	$7167, BasicBlockSignatureTracker # imm = 0x1BFF
	movw	$0, RunTimeSignatureAdjuster
	cmpl	%ecx, %eax
	jge	.LBB3_103
# %bb.101:                              #   in Loop: Header=BB3_2 Depth=1
	movw	BasicBlockSignatureTracker, %ax
	xorw	$2020, %ax              # imm = 0x7E4
	cmpw	$7195, %ax              # imm = 0x1C1B
	jne	.LBB3_113
# %bb.102:                              # %mainQSort3.split286
                                        #   in Loop: Header=BB3_2 Depth=1
	movq	-104(%rbp), %rcx        # 8-byte Reload
	movl	(%rcx), %eax
	movq	-248(%rbp), %rdx        # 8-byte Reload
	movl	%eax, (%rdx)
	movl	4(%rcx), %eax
	movl	%eax, (%rcx)
	movl	(%rdx), %eax
	movl	%eax, 4(%rcx)
	movq	-96(%rbp), %rcx         # 8-byte Reload
	movl	(%rcx), %eax
	movl	%eax, (%rdx)
	movl	4(%rcx), %eax
	movl	%eax, (%rcx)
	movl	(%rdx), %eax
	movl	%eax, 4(%rcx)
	movq	-144(%rbp), %rcx        # 8-byte Reload
	movl	(%rcx), %eax
	movl	%eax, (%rdx)
	movl	4(%rcx), %eax
	movl	%eax, (%rcx)
	movl	(%rdx), %eax
	movl	%eax, 4(%rcx)
	movw	$7195, BasicBlockSignatureTracker # imm = 0x1C1B
	movw	$2020, RunTimeSignatureAdjuster # imm = 0x7E4
.LBB3_103:                              #   in Loop: Header=BB3_2 Depth=1
	movw	BasicBlockSignatureTracker, %ax
	movw	RunTimeSignatureAdjuster, %cx
	xorw	$2016, %ax              # imm = 0x7E0
	xorw	%cx, %ax
	cmpw	$7199, %ax              # imm = 0x1C1F
	movq	%rdi, %r12
	movq	-160(%rbp), %rbx        # 8-byte Reload
	movq	-136(%rbp), %r15        # 8-byte Reload
	jne	.LBB3_113
# %bb.104:                              # %mainQSort3.split288
                                        #   in Loop: Header=BB3_2 Depth=1
	movq	-104(%rbp), %rsi        # 8-byte Reload
	movl	(%rsi), %eax
	movslq	(%r14), %rcx
	movq	-152(%rbp), %rdx        # 8-byte Reload
	movl	%eax, (%rdx,%rcx,4)
	movq	-96(%rbp), %rdi         # 8-byte Reload
	movl	(%rdi), %eax
	movslq	(%r14), %rcx
	movl	%eax, (%rbx,%rcx,4)
	movq	-144(%rbp), %r8         # 8-byte Reload
	movl	(%r8), %eax
	movslq	(%r14), %rcx
	movl	%eax, (%r15,%rcx,4)
	movl	(%r14), %eax
	addl	$1, %eax
	movl	%eax, (%r14)
	movl	4(%rsi), %eax
	movslq	(%r14), %rcx
	movl	%eax, (%rdx,%rcx,4)
	movl	4(%rdi), %eax
	movslq	(%r14), %rcx
	movl	%eax, (%rbx,%rcx,4)
	movl	4(%r8), %eax
	movslq	(%r14), %rcx
	movl	%eax, (%r15,%rcx,4)
	movl	(%r14), %eax
	addl	$1, %eax
	movl	%eax, (%r14)
	movl	8(%rsi), %eax
	movslq	(%r14), %rcx
	movl	%eax, (%rdx,%rcx,4)
	movl	8(%rdi), %eax
	movslq	(%r14), %rcx
	movl	%eax, (%rbx,%rcx,4)
	movl	8(%r8), %eax
	movslq	(%r14), %rcx
	movl	%eax, (%r15,%rcx,4)
	movl	(%r14), %eax
	addl	$1, %eax
	movl	%eax, (%r14)
	movw	$7199, BasicBlockSignatureTracker # imm = 0x1C1F
	movw	$2900, RunTimeSignatureAdjuster # imm = 0xB54
	jmp	.LBB3_18
.LBB3_105:                              # %.loopexit
	jmp	.LBB3_106
.LBB3_106:
	movw	BasicBlockSignatureTracker, %ax
	movw	RunTimeSignatureAdjuster, %cx
	xorw	$2884, %ax              # imm = 0xB44
	xorw	%cx, %ax
	cmpw	$7213, %ax              # imm = 0x1C2D
	jne	.LBB3_114
# %bb.107:                              # %mainQSort3.split194
	movw	$7213, BasicBlockSignatureTracker # imm = 0x1C2D
	movw	$3721, RunTimeSignatureAdjuster # imm = 0xE89
	leaq	-40(%rbp), %rsp
	popq	%rbx
	popq	%r12
	popq	%r13
	popq	%r14
	popq	%r15
	popq	%rbp
	retq
.LBB3_108:                              # %CFerrorHandler.mainQSort3.loopexit
	jmp	.LBB3_114
.LBB3_109:                              # %CFerrorHandler.mainQSort3.loopexit1
	jmp	.LBB3_114
.LBB3_110:                              # %CFerrorHandler.mainQSort3.loopexit3
	jmp	.LBB3_114
.LBB3_111:                              # %CFerrorHandler.mainQSort3.loopexit4
	jmp	.LBB3_114
.LBB3_112:                              # %CFerrorHandler.mainQSort3.loopexit5
	jmp	.LBB3_114
.LBB3_113:                              # %CFerrorHandler.mainQSort3.loopexit6
	jmp	.LBB3_114
.LBB3_114:                              # %CFerrorHandler.mainQSort3
	callq	FAULT_DETECTED_CFC
.Lfunc_end3:
	.size	mainQSort3, .Lfunc_end3-mainQSort3
	.cfi_endproc
                                        # -- End function
	.p2align	4, 0x90         # -- Begin function mainSimpleSort
	.type	mainSimpleSort,@function
mainSimpleSort:                         # @mainSimpleSort
	.cfi_startproc
# %bb.0:
	pushq	%rbp
	.cfi_def_cfa_offset 16
	.cfi_offset %rbp, -16
	movq	%rsp, %rbp
	.cfi_def_cfa_register %rbp
	pushq	%r15
	pushq	%r14
	pushq	%r13
	pushq	%r12
	pushq	%rbx
	subq	$88, %rsp
	.cfi_offset %rbx, -56
	.cfi_offset %r12, -48
	.cfi_offset %r13, -40
	.cfi_offset %r14, -32
	.cfi_offset %r15, -24
	movw	BasicBlockSignatureTracker, %ax
	movw	RunTimeSignatureAdjuster, %bx
	xorw	$2946, %ax              # imm = 0xB82
	xorw	%bx, %ax
	cmpw	$7245, %ax              # imm = 0x1C4D
	jne	.LBB4_82
# %bb.1:                                # %mainSimpleSort.split
	movq	%rdi, -112(%rbp)        # 8-byte Spill
	movq	%rsp, %rdi
	addq	$-16, %rdi
	movq	%rdi, %rsp
	movq	%rsp, %r11
	addq	$-16, %r11
	movq	%r11, %rsp
	movq	%rdx, -104(%rbp)        # 8-byte Spill
	movq	%rsi, -96(%rbp)         # 8-byte Spill
	movq	%rsp, %r10
	addq	$-16, %r10
	movq	%r10, %rsp
	movq	%rsp, %r12
	addq	$-16, %r12
	movq	%r12, %rsp
	movq	%rsp, %rsi
	addq	$-16, %rsi
	movq	%rsi, %rsp
	movq	%rsp, %r14
	addq	$-16, %r14
	movq	%r14, %rsp
	movq	%rsp, %r15
	addq	$-16, %r15
	movq	%r15, %rsp
	movq	%rsp, %rbx
	addq	$-16, %rbx
	movq	%rbx, %rsp
	movq	%rsp, %rax
	addq	$-16, %rax
	movq	%rax, -64(%rbp)         # 8-byte Spill
	movq	%rax, %rsp
	movq	%rsp, %rax
	addq	$-16, %rax
	movq	%rax, -48(%rbp)         # 8-byte Spill
	movq	%rax, %rsp
	movq	%rsp, %rax
	addq	$-16, %rax
	movq	%rax, -80(%rbp)         # 8-byte Spill
	movq	%rax, %rsp
	movq	%rsp, %rdx
	addq	$-16, %rdx
	movq	%rdx, %rsp
	movl	%r9d, %r13d
	movq	%rsp, %r9
	addq	$-16, %r9
	movq	%r9, -88(%rbp)          # 8-byte Spill
	movq	%r9, %rsp
	movq	%rsp, %rax
	addq	$-16, %rax
	movq	%rax, -56(%rbp)         # 8-byte Spill
	movq	%rax, %rsp
	movq	-112(%rbp), %r9         # 8-byte Reload
	movq	%r9, (%rdi)
	movq	%r11, -112(%rbp)        # 8-byte Spill
	movq	-96(%rbp), %rax         # 8-byte Reload
	movq	%rax, (%r11)
	movq	%r10, -96(%rbp)         # 8-byte Spill
	movq	-104(%rbp), %rax        # 8-byte Reload
	movq	%rax, (%r10)
	movq	%r12, -104(%rbp)        # 8-byte Spill
	movl	%ecx, (%r12)
	movl	%r8d, (%rsi)
	movl	%r13d, (%r14)
	movq	%r15, -120(%rbp)        # 8-byte Spill
	movl	16(%rbp), %eax
	movl	%eax, (%r15)
	movq	%rbx, %r12
	movq	24(%rbp), %rax
	movq	%rax, (%rbx)
	movl	(%r14), %ecx
	subl	(%rsi), %ecx
	addl	$1, %ecx
	movl	%ecx, (%rdx)
	movl	(%rdx), %ecx
	movw	$7245, BasicBlockSignatureTracker # imm = 0x1C4D
	movw	$0, RunTimeSignatureAdjuster
	cmpl	$2, %ecx
	jge	.LBB4_4
# %bb.2:
	movw	BasicBlockSignatureTracker, %ax
	xorw	$49, %ax
	cmpw	$7292, %ax              # imm = 0x1C7C
	jne	.LBB4_82
# %bb.3:                                # %mainSimpleSort.split132
	movw	$7292, BasicBlockSignatureTracker # imm = 0x1C7C
	movw	$0, RunTimeSignatureAdjuster
	jmp	.LBB4_74
.LBB4_4:
	movw	BasicBlockSignatureTracker, %cx
	xorw	$239, %cx
	cmpw	$7330, %cx              # imm = 0x1CA2
	jne	.LBB4_82
# %bb.5:                                # %mainSimpleSort.split134
	movq	-88(%rbp), %rbx         # 8-byte Reload
	movl	$0, (%rbx)
	movw	$7330, BasicBlockSignatureTracker # imm = 0x1CA2
	movw	$0, RunTimeSignatureAdjuster
.LBB4_6:                                # =>This Inner Loop Header: Depth=1
	movw	BasicBlockSignatureTracker, %cx
	movw	RunTimeSignatureAdjuster, %ax
	xorw	$17, %cx
	xorw	%ax, %cx
	cmpw	$7347, %cx              # imm = 0x1CB3
	jne	.LBB4_81
# %bb.7:                                # %mainSimpleSort.split138
                                        #   in Loop: Header=BB4_6 Depth=1
	movslq	(%rbx), %rcx
	movl	incs(,%rcx,4), %ecx
	movl	(%rdx), %eax
	movw	$7347, BasicBlockSignatureTracker # imm = 0x1CB3
	movw	$0, RunTimeSignatureAdjuster
	cmpl	%eax, %ecx
	jge	.LBB4_10
# %bb.8:                                #   in Loop: Header=BB4_6 Depth=1
	movw	BasicBlockSignatureTracker, %cx
	xorw	$123, %cx
	cmpw	$7368, %cx              # imm = 0x1CC8
	jne	.LBB4_81
# %bb.9:                                # %mainSimpleSort.split140
                                        #   in Loop: Header=BB4_6 Depth=1
	movl	(%rbx), %ecx
	addl	$1, %ecx
	movl	%ecx, (%rbx)
	movw	$7368, BasicBlockSignatureTracker # imm = 0x1CC8
	movw	$106, RunTimeSignatureAdjuster
	jmp	.LBB4_6
.LBB4_10:
	movw	BasicBlockSignatureTracker, %ax
	xorw	$127, %ax
	cmpw	$7372, %ax              # imm = 0x1CCC
	jne	.LBB4_82
# %bb.11:                               # %mainSimpleSort.split142
	movq	-88(%rbp), %rdx         # 8-byte Reload
	movl	(%rdx), %eax
	addl	$-1, %eax
	movl	%eax, (%rdx)
	movw	$7372, BasicBlockSignatureTracker # imm = 0x1CCC
	movw	$0, RunTimeSignatureAdjuster
.LBB4_12:                               # =>This Loop Header: Depth=1
                                        #     Child Loop BB4_18 Depth 2
                                        #       Child Loop BB4_24 Depth 3
                                        #       Child Loop BB4_39 Depth 3
                                        #       Child Loop BB4_54 Depth 3
	movw	BasicBlockSignatureTracker, %ax
	movw	RunTimeSignatureAdjuster, %cx
	xorw	$384, %ax               # imm = 0x180
	xorw	%cx, %ax
	cmpw	$7500, %ax              # imm = 0x1D4C
	jne	.LBB4_80
# %bb.13:                               # %mainSimpleSort.split144
                                        #   in Loop: Header=BB4_12 Depth=1
	movl	(%rdx), %eax
	movw	$7500, BasicBlockSignatureTracker # imm = 0x1D4C
	movw	$304, RunTimeSignatureAdjuster # imm = 0x130
	cmpl	$0, %eax
	jl	.LBB4_73
# %bb.14:                               # %Buffer__
                                        #   in Loop: Header=BB4_12 Depth=1
	movw	BasicBlockSignatureTracker, %ax
	xorw	$-31760, %ax            # imm = 0x83F0
	cmpw	$-24900, %ax            # imm = 0x9EBC
	jne	.LBB4_80
# %bb.15:                               # %mainSimpleSort.split146
                                        #   in Loop: Header=BB4_12 Depth=1
	movw	$-24900, BasicBlockSignatureTracker # imm = 0x9EBC
	movw	$-31760, RunTimeSignatureAdjuster # imm = 0x83F0
# %bb.16:                               #   in Loop: Header=BB4_12 Depth=1
	movw	BasicBlockSignatureTracker, %ax
	movw	RunTimeSignatureAdjuster, %cx
	xorw	$63, %ax
	xorw	%cx, %ax
	cmpw	$7539, %ax              # imm = 0x1D73
	jne	.LBB4_80
# %bb.17:                               # %mainSimpleSort.split200
                                        #   in Loop: Header=BB4_12 Depth=1
	movslq	(%rdx), %rax
	movl	incs(,%rax,4), %eax
	movq	-80(%rbp), %rcx         # 8-byte Reload
	movl	%eax, (%rcx)
	movl	(%rsi), %eax
	addl	(%rcx), %eax
	movq	-64(%rbp), %rcx         # 8-byte Reload
	movl	%eax, (%rcx)
	movw	$7539, BasicBlockSignatureTracker # imm = 0x1D73
	movw	$0, RunTimeSignatureAdjuster
.LBB4_18:                               #   Parent Loop BB4_12 Depth=1
                                        # =>  This Loop Header: Depth=2
                                        #       Child Loop BB4_24 Depth 3
                                        #       Child Loop BB4_39 Depth 3
                                        #       Child Loop BB4_54 Depth 3
	movw	BasicBlockSignatureTracker, %ax
	movw	RunTimeSignatureAdjuster, %cx
	xorw	$241, %ax
	xorw	%cx, %ax
	cmpw	$7554, %ax              # imm = 0x1D82
	jne	.LBB4_79
# %bb.19:                               # %mainSimpleSort.split148
                                        #   in Loop: Header=BB4_18 Depth=2
	movq	-64(%rbp), %rax         # 8-byte Reload
	movl	(%rax), %eax
	movl	(%r14), %ecx
	movw	$7554, BasicBlockSignatureTracker # imm = 0x1D82
	movw	$0, RunTimeSignatureAdjuster
	cmpl	%ecx, %eax
	jle	.LBB4_22
# %bb.20:                               #   in Loop: Header=BB4_12 Depth=1
	movw	BasicBlockSignatureTracker, %ax
	xorw	$77, %ax
	cmpw	$7631, %ax              # imm = 0x1DCF
	jne	.LBB4_80
# %bb.21:                               # %mainSimpleSort.split150
                                        #   in Loop: Header=BB4_12 Depth=1
	movw	$7631, BasicBlockSignatureTracker # imm = 0x1DCF
	movw	$0, RunTimeSignatureAdjuster
	jmp	.LBB4_69
.LBB4_22:                               #   in Loop: Header=BB4_18 Depth=2
	movw	BasicBlockSignatureTracker, %ax
	xorw	$81, %ax
	cmpw	$7635, %ax              # imm = 0x1DD3
	jne	.LBB4_79
# %bb.23:                               # %mainSimpleSort.split152
                                        #   in Loop: Header=BB4_18 Depth=2
	movq	(%rdi), %rax
	movq	-64(%rbp), %rdx         # 8-byte Reload
	movslq	(%rdx), %rcx
	movl	(%rax,%rcx,4), %eax
	movq	-56(%rbp), %rcx         # 8-byte Reload
	movl	%eax, (%rcx)
	movl	(%rdx), %eax
	movq	-48(%rbp), %rcx         # 8-byte Reload
	movl	%eax, (%rcx)
	movw	$7635, BasicBlockSignatureTracker # imm = 0x1DD3
	movw	$0, RunTimeSignatureAdjuster
.LBB4_24:                               #   Parent Loop BB4_12 Depth=1
                                        #     Parent Loop BB4_18 Depth=2
                                        # =>    This Inner Loop Header: Depth=3
	movw	BasicBlockSignatureTracker, %ax
	movw	RunTimeSignatureAdjuster, %cx
	xorw	$6, %ax
	xorw	%cx, %ax
	cmpw	$7637, %ax              # imm = 0x1DD5
	jne	.LBB4_78
# %bb.25:                               # %mainSimpleSort.split156
                                        #   in Loop: Header=BB4_24 Depth=3
	movq	%rsi, -72(%rbp)         # 8-byte Spill
	movq	%rdi, %r15
	movq	(%rdi), %rax
	movq	-48(%rbp), %rcx         # 8-byte Reload
	movl	(%rcx), %ecx
	movq	-80(%rbp), %rdx         # 8-byte Reload
	subl	(%rdx), %ecx
	movslq	%ecx, %rcx
	movl	(%rax,%rcx,4), %edi
	movq	-120(%rbp), %rax        # 8-byte Reload
	addl	(%rax), %edi
	movq	-56(%rbp), %rcx         # 8-byte Reload
	movl	(%rcx), %esi
	addl	(%rax), %esi
	movq	-112(%rbp), %rax        # 8-byte Reload
	movq	(%rax), %rdx
	movq	-96(%rbp), %rax         # 8-byte Reload
	movq	(%rax), %rcx
	movq	-104(%rbp), %rax        # 8-byte Reload
	movl	(%rax), %r8d
	movq	(%r12), %r9
	movw	$7637, BasicBlockSignatureTracker # imm = 0x1DD5
	movw	$0, RunTimeSignatureAdjuster
	callq	mainGtU
	movw	$7637, BasicBlockSignatureTracker # imm = 0x1DD5
	movw	$0, RunTimeSignatureAdjuster
	movw	$7637, BasicBlockSignatureTracker # imm = 0x1DD5
	movw	$0, RunTimeSignatureAdjuster
	cmpb	$0, %al
	je	.LBB4_32
# %bb.26:                               #   in Loop: Header=BB4_24 Depth=3
	movw	BasicBlockSignatureTracker, %ax
	xorw	$13, %ax
	cmpw	$7640, %ax              # imm = 0x1DD8
	movq	%r15, %rdx
	movq	-72(%rbp), %rsi         # 8-byte Reload
	jne	.LBB4_78
# %bb.27:                               # %mainSimpleSort.split158
                                        #   in Loop: Header=BB4_24 Depth=3
	movq	(%rdx), %rax
	movq	-48(%rbp), %rdi         # 8-byte Reload
	movl	(%rdi), %ecx
	movq	-80(%rbp), %rbx         # 8-byte Reload
	subl	(%rbx), %ecx
	movslq	%ecx, %rcx
	movl	(%rax,%rcx,4), %eax
	movq	(%rdx), %rcx
	movslq	(%rdi), %rdx
	movl	%eax, (%rcx,%rdx,4)
	movl	(%rdi), %eax
	subl	(%rbx), %eax
	movl	%eax, (%rdi)
	movl	(%rdi), %eax
	movl	(%rsi), %ecx
	addl	(%rbx), %ecx
	subl	$1, %ecx
	movw	$7640, BasicBlockSignatureTracker # imm = 0x1DD8
	movw	$0, RunTimeSignatureAdjuster
	cmpl	%ecx, %eax
	jg	.LBB4_30
# %bb.28:                               #   in Loop: Header=BB4_18 Depth=2
	movw	BasicBlockSignatureTracker, %ax
	xorw	$59, %ax
	cmpw	$7651, %ax              # imm = 0x1DE3
	jne	.LBB4_79
# %bb.29:                               # %mainSimpleSort.split162
                                        #   in Loop: Header=BB4_18 Depth=2
	movw	$7651, BasicBlockSignatureTracker # imm = 0x1DE3
	movw	$54, RunTimeSignatureAdjuster
	jmp	.LBB4_33
.LBB4_30:                               #   in Loop: Header=BB4_24 Depth=3
	movw	BasicBlockSignatureTracker, %ax
	xorw	$53, %ax
	cmpw	$7661, %ax              # imm = 0x1DED
	movq	%r15, %rdi
	movq	-72(%rbp), %rsi         # 8-byte Reload
	jne	.LBB4_78
# %bb.31:                               # %mainSimpleSort.split164
                                        #   in Loop: Header=BB4_24 Depth=3
	movw	$7661, BasicBlockSignatureTracker # imm = 0x1DED
	movw	$62, RunTimeSignatureAdjuster
	jmp	.LBB4_24
.LBB4_32:                               # %.loopexit4
                                        #   in Loop: Header=BB4_18 Depth=2
	jmp	.LBB4_33
.LBB4_33:                               #   in Loop: Header=BB4_18 Depth=2
	movw	BasicBlockSignatureTracker, %ax
	movw	RunTimeSignatureAdjuster, %cx
	xorw	$36, %ax
	xorw	%cx, %ax
	cmpw	$7665, %ax              # imm = 0x1DF1
	movq	%r15, %rcx
	movq	%r14, %rsi
	movq	-56(%rbp), %rax         # 8-byte Reload
	jne	.LBB4_79
# %bb.34:                               # %mainSimpleSort.split160
                                        #   in Loop: Header=BB4_18 Depth=2
	movl	(%rax), %eax
	movq	(%rcx), %rcx
	movq	-48(%rbp), %rdx         # 8-byte Reload
	movslq	(%rdx), %rdx
	movl	%eax, (%rcx,%rdx,4)
	movq	-64(%rbp), %rcx         # 8-byte Reload
	movl	(%rcx), %eax
	addl	$1, %eax
	movl	%eax, (%rcx)
	movl	(%rcx), %eax
	movl	(%rsi), %ecx
	movw	$7665, BasicBlockSignatureTracker # imm = 0x1DF1
	movw	$0, RunTimeSignatureAdjuster
	cmpl	%ecx, %eax
	jle	.LBB4_37
# %bb.35:                               #   in Loop: Header=BB4_12 Depth=1
	movw	BasicBlockSignatureTracker, %ax
	xorw	$784, %ax               # imm = 0x310
	cmpw	$7905, %ax              # imm = 0x1EE1
	movq	%r15, %rdi
	movq	-72(%rbp), %rsi         # 8-byte Reload
	movq	-88(%rbp), %rdx         # 8-byte Reload
	jne	.LBB4_80
# %bb.36:                               # %mainSimpleSort.split166
                                        #   in Loop: Header=BB4_12 Depth=1
	movw	$7905, BasicBlockSignatureTracker # imm = 0x1EE1
	movw	$814, RunTimeSignatureAdjuster # imm = 0x32E
	jmp	.LBB4_69
.LBB4_37:                               #   in Loop: Header=BB4_18 Depth=2
	movw	BasicBlockSignatureTracker, %ax
	xorw	$778, %ax               # imm = 0x30A
	cmpw	$7931, %ax              # imm = 0x1EFB
	movq	%r15, %rax
	movq	-56(%rbp), %rsi         # 8-byte Reload
	jne	.LBB4_79
# %bb.38:                               # %mainSimpleSort.split168
                                        #   in Loop: Header=BB4_18 Depth=2
	movq	(%rax), %rax
	movq	-64(%rbp), %rdx         # 8-byte Reload
	movslq	(%rdx), %rcx
	movl	(%rax,%rcx,4), %eax
	movl	%eax, (%rsi)
	movl	(%rdx), %eax
	movq	-48(%rbp), %rcx         # 8-byte Reload
	movl	%eax, (%rcx)
	movw	$7931, BasicBlockSignatureTracker # imm = 0x1EFB
	movw	$0, RunTimeSignatureAdjuster
.LBB4_39:                               #   Parent Loop BB4_12 Depth=1
                                        #     Parent Loop BB4_18 Depth=2
                                        # =>    This Inner Loop Header: Depth=3
	movw	BasicBlockSignatureTracker, %ax
	movw	RunTimeSignatureAdjuster, %cx
	xorw	$493, %ax               # imm = 0x1ED
	xorw	%cx, %ax
	cmpw	$7958, %ax              # imm = 0x1F16
	jne	.LBB4_77
# %bb.40:                               # %mainSimpleSort.split170
                                        #   in Loop: Header=BB4_39 Depth=3
	movq	(%r15), %rax
	movq	-48(%rbp), %rcx         # 8-byte Reload
	movl	(%rcx), %ecx
	movq	-80(%rbp), %rdx         # 8-byte Reload
	subl	(%rdx), %ecx
	movslq	%ecx, %rcx
	movl	(%rax,%rcx,4), %edi
	movq	-120(%rbp), %rax        # 8-byte Reload
	addl	(%rax), %edi
	movq	-56(%rbp), %rcx         # 8-byte Reload
	movl	(%rcx), %esi
	addl	(%rax), %esi
	movq	-112(%rbp), %rax        # 8-byte Reload
	movq	(%rax), %rdx
	movq	-96(%rbp), %rax         # 8-byte Reload
	movq	(%rax), %rcx
	movq	-104(%rbp), %rax        # 8-byte Reload
	movl	(%rax), %r8d
	movq	(%r12), %r9
	movw	$7958, BasicBlockSignatureTracker # imm = 0x1F16
	movw	$707, RunTimeSignatureAdjuster # imm = 0x2C3
	callq	mainGtU
	movw	$7958, BasicBlockSignatureTracker # imm = 0x1F16
	movw	$707, RunTimeSignatureAdjuster # imm = 0x2C3
	movw	$7958, BasicBlockSignatureTracker # imm = 0x1F16
	movw	$0, RunTimeSignatureAdjuster
	cmpb	$0, %al
	je	.LBB4_47
# %bb.41:                               #   in Loop: Header=BB4_39 Depth=3
	movw	BasicBlockSignatureTracker, %ax
	xorw	$8, %ax
	cmpw	$7966, %ax              # imm = 0x1F1E
	jne	.LBB4_77
# %bb.42:                               # %mainSimpleSort.split172
                                        #   in Loop: Header=BB4_39 Depth=3
	movq	%r15, %rdx
	movq	(%rdx), %rax
	movq	-48(%rbp), %rsi         # 8-byte Reload
	movl	(%rsi), %ecx
	movq	-80(%rbp), %rdi         # 8-byte Reload
	subl	(%rdi), %ecx
	movslq	%ecx, %rcx
	movl	(%rax,%rcx,4), %eax
	movq	(%rdx), %rcx
	movslq	(%rsi), %rdx
	movl	%eax, (%rcx,%rdx,4)
	movl	(%rsi), %eax
	subl	(%rdi), %eax
	movl	%eax, (%rsi)
	movl	(%rsi), %eax
	movq	-72(%rbp), %rcx         # 8-byte Reload
	movl	(%rcx), %ecx
	addl	(%rdi), %ecx
	subl	$1, %ecx
	movw	$7966, BasicBlockSignatureTracker # imm = 0x1F1E
	movw	$0, RunTimeSignatureAdjuster
	cmpl	%ecx, %eax
	jg	.LBB4_45
# %bb.43:                               #   in Loop: Header=BB4_18 Depth=2
	movw	BasicBlockSignatureTracker, %ax
	xorw	$59, %ax
	cmpw	$7973, %ax              # imm = 0x1F25
	jne	.LBB4_79
# %bb.44:                               # %mainSimpleSort.split176
                                        #   in Loop: Header=BB4_18 Depth=2
	movw	$7973, BasicBlockSignatureTracker # imm = 0x1F25
	movw	$51, RunTimeSignatureAdjuster
	jmp	.LBB4_48
.LBB4_45:                               #   in Loop: Header=BB4_39 Depth=3
	movw	BasicBlockSignatureTracker, %ax
	xorw	$55, %ax
	cmpw	$7977, %ax              # imm = 0x1F29
	jne	.LBB4_77
# %bb.46:                               # %mainSimpleSort.split178
                                        #   in Loop: Header=BB4_39 Depth=3
	movw	$7977, BasicBlockSignatureTracker # imm = 0x1F29
	movw	$466, RunTimeSignatureAdjuster # imm = 0x1D2
	jmp	.LBB4_39
.LBB4_47:                               # %.loopexit2
                                        #   in Loop: Header=BB4_18 Depth=2
	jmp	.LBB4_48
.LBB4_48:                               #   in Loop: Header=BB4_18 Depth=2
	movw	BasicBlockSignatureTracker, %ax
	movw	RunTimeSignatureAdjuster, %cx
	xorw	$60, %ax
	xorw	%cx, %ax
	cmpw	$7978, %ax              # imm = 0x1F2A
	movq	%r15, %rcx
	movq	%r14, %rsi
	movq	-56(%rbp), %rax         # 8-byte Reload
	jne	.LBB4_79
# %bb.49:                               # %mainSimpleSort.split174
                                        #   in Loop: Header=BB4_18 Depth=2
	movl	(%rax), %eax
	movq	(%rcx), %rcx
	movq	-48(%rbp), %rdx         # 8-byte Reload
	movslq	(%rdx), %rdx
	movl	%eax, (%rcx,%rdx,4)
	movq	-64(%rbp), %rcx         # 8-byte Reload
	movl	(%rcx), %eax
	addl	$1, %eax
	movl	%eax, (%rcx)
	movl	(%rcx), %eax
	movl	(%rsi), %ecx
	movw	$7978, BasicBlockSignatureTracker # imm = 0x1F2A
	movw	$0, RunTimeSignatureAdjuster
	cmpl	%ecx, %eax
	jle	.LBB4_52
# %bb.50:                               #   in Loop: Header=BB4_12 Depth=1
	movw	BasicBlockSignatureTracker, %ax
	xorw	$102, %ax
	cmpw	$8012, %ax              # imm = 0x1F4C
	movq	%r15, %rdi
	movq	-72(%rbp), %rsi         # 8-byte Reload
	movq	-88(%rbp), %rdx         # 8-byte Reload
	jne	.LBB4_80
# %bb.51:                               # %mainSimpleSort.split180
                                        #   in Loop: Header=BB4_12 Depth=1
	movw	$8012, BasicBlockSignatureTracker # imm = 0x1F4C
	movw	$643, RunTimeSignatureAdjuster # imm = 0x283
	jmp	.LBB4_69
.LBB4_52:                               #   in Loop: Header=BB4_18 Depth=2
	movw	BasicBlockSignatureTracker, %ax
	xorw	$140, %ax
	cmpw	$8102, %ax              # imm = 0x1FA6
	movq	%r15, %rax
	movq	-56(%rbp), %rsi         # 8-byte Reload
	jne	.LBB4_79
# %bb.53:                               # %mainSimpleSort.split182
                                        #   in Loop: Header=BB4_18 Depth=2
	movq	(%rax), %rax
	movq	-64(%rbp), %rdx         # 8-byte Reload
	movslq	(%rdx), %rcx
	movl	(%rax,%rcx,4), %eax
	movl	%eax, (%rsi)
	movl	(%rdx), %eax
	movq	-48(%rbp), %rcx         # 8-byte Reload
	movl	%eax, (%rcx)
	movw	$8102, BasicBlockSignatureTracker # imm = 0x1FA6
	movw	$0, RunTimeSignatureAdjuster
.LBB4_54:                               #   Parent Loop BB4_12 Depth=1
                                        #     Parent Loop BB4_18 Depth=2
                                        # =>    This Inner Loop Header: Depth=3
	movw	BasicBlockSignatureTracker, %ax
	movw	RunTimeSignatureAdjuster, %cx
	xorw	$13, %ax
	xorw	%cx, %ax
	cmpw	$8107, %ax              # imm = 0x1FAB
	jne	.LBB4_76
# %bb.55:                               # %mainSimpleSort.split184
                                        #   in Loop: Header=BB4_54 Depth=3
	movq	(%r15), %rax
	movq	-48(%rbp), %rcx         # 8-byte Reload
	movl	(%rcx), %ecx
	movq	-80(%rbp), %rdx         # 8-byte Reload
	subl	(%rdx), %ecx
	movslq	%ecx, %rcx
	movl	(%rax,%rcx,4), %edi
	movq	-120(%rbp), %rax        # 8-byte Reload
	addl	(%rax), %edi
	movq	-56(%rbp), %rcx         # 8-byte Reload
	movl	(%rcx), %esi
	addl	(%rax), %esi
	movq	-112(%rbp), %rax        # 8-byte Reload
	movq	(%rax), %rdx
	movq	-96(%rbp), %rax         # 8-byte Reload
	movq	(%rax), %rcx
	movq	-104(%rbp), %rax        # 8-byte Reload
	movl	(%rax), %r8d
	movq	(%r12), %r9
	movw	$8107, BasicBlockSignatureTracker # imm = 0x1FAB
	movw	$638, RunTimeSignatureAdjuster # imm = 0x27E
	callq	mainGtU
	movw	$8107, BasicBlockSignatureTracker # imm = 0x1FAB
	movw	$638, RunTimeSignatureAdjuster # imm = 0x27E
	movw	$8107, BasicBlockSignatureTracker # imm = 0x1FAB
	movw	$0, RunTimeSignatureAdjuster
	cmpb	$0, %al
	je	.LBB4_62
# %bb.56:                               #   in Loop: Header=BB4_54 Depth=3
	movw	BasicBlockSignatureTracker, %ax
	xorw	$16317, %ax             # imm = 0x3FBD
	cmpw	$8214, %ax              # imm = 0x2016
	jne	.LBB4_76
# %bb.57:                               # %mainSimpleSort.split186
                                        #   in Loop: Header=BB4_54 Depth=3
	movq	%r15, %rdx
	movq	(%rdx), %rax
	movq	-48(%rbp), %rsi         # 8-byte Reload
	movl	(%rsi), %ecx
	movq	-80(%rbp), %rdi         # 8-byte Reload
	subl	(%rdi), %ecx
	movslq	%ecx, %rcx
	movl	(%rax,%rcx,4), %eax
	movq	(%rdx), %rcx
	movslq	(%rsi), %rdx
	movl	%eax, (%rcx,%rdx,4)
	movl	(%rsi), %eax
	subl	(%rdi), %eax
	movl	%eax, (%rsi)
	movl	(%rsi), %eax
	movq	-72(%rbp), %rcx         # 8-byte Reload
	movl	(%rcx), %ecx
	addl	(%rdi), %ecx
	subl	$1, %ecx
	movw	$8214, BasicBlockSignatureTracker # imm = 0x2016
	movw	$0, RunTimeSignatureAdjuster
	cmpl	%ecx, %eax
	jg	.LBB4_60
# %bb.58:                               #   in Loop: Header=BB4_18 Depth=2
	movw	BasicBlockSignatureTracker, %ax
	xorw	$35, %ax
	cmpw	$8245, %ax              # imm = 0x2035
	jne	.LBB4_79
# %bb.59:                               # %mainSimpleSort.split190
                                        #   in Loop: Header=BB4_18 Depth=2
	movw	$8245, BasicBlockSignatureTracker # imm = 0x2035
	movw	$16286, RunTimeSignatureAdjuster # imm = 0x3F9E
	jmp	.LBB4_63
.LBB4_60:                               #   in Loop: Header=BB4_54 Depth=3
	movw	BasicBlockSignatureTracker, %ax
	xorw	$71, %ax
	cmpw	$8273, %ax              # imm = 0x2051
	jne	.LBB4_76
# %bb.61:                               # %mainSimpleSort.split192
                                        #   in Loop: Header=BB4_54 Depth=3
	movw	$8273, BasicBlockSignatureTracker # imm = 0x2051
	movw	$16375, RunTimeSignatureAdjuster # imm = 0x3FF7
	jmp	.LBB4_54
.LBB4_62:                               # %.loopexit
                                        #   in Loop: Header=BB4_18 Depth=2
	jmp	.LBB4_63
.LBB4_63:                               #   in Loop: Header=BB4_18 Depth=2
	movw	BasicBlockSignatureTracker, %ax
	movw	RunTimeSignatureAdjuster, %cx
	xorw	$16327, %ax             # imm = 0x3FC7
	xorw	%cx, %ax
	cmpw	$8300, %ax              # imm = 0x206C
	movq	%r15, %rcx
	movq	-56(%rbp), %rax         # 8-byte Reload
	jne	.LBB4_79
# %bb.64:                               # %mainSimpleSort.split188
                                        #   in Loop: Header=BB4_18 Depth=2
	movl	(%rax), %eax
	movq	(%rcx), %rcx
	movq	-48(%rbp), %rdx         # 8-byte Reload
	movslq	(%rdx), %rdx
	movl	%eax, (%rcx,%rdx,4)
	movq	-64(%rbp), %rcx         # 8-byte Reload
	movl	(%rcx), %eax
	addl	$1, %eax
	movl	%eax, (%rcx)
	movq	(%r12), %rax
	movl	(%rax), %eax
	movw	$8300, BasicBlockSignatureTracker # imm = 0x206C
	movw	$0, RunTimeSignatureAdjuster
	cmpl	$0, %eax
	jge	.LBB4_67
# %bb.65:
	movw	BasicBlockSignatureTracker, %ax
	xorw	$235, %ax
	cmpw	$8327, %ax              # imm = 0x2087
	jne	.LBB4_82
# %bb.66:                               # %mainSimpleSort.split194
	movw	$8327, BasicBlockSignatureTracker # imm = 0x2087
	movw	$15611, RunTimeSignatureAdjuster # imm = 0x3CFB
	jmp	.LBB4_74
.LBB4_67:                               #   in Loop: Header=BB4_18 Depth=2
	movw	BasicBlockSignatureTracker, %ax
	xorw	$224, %ax
	cmpw	$8332, %ax              # imm = 0x208C
	movq	%r15, %rdi
	movq	-72(%rbp), %rsi         # 8-byte Reload
	movq	-88(%rbp), %rdx         # 8-byte Reload
	jne	.LBB4_79
# %bb.68:                               # %mainSimpleSort.split196
                                        #   in Loop: Header=BB4_18 Depth=2
	movw	$8332, BasicBlockSignatureTracker # imm = 0x208C
	movw	$15871, RunTimeSignatureAdjuster # imm = 0x3DFF
	jmp	.LBB4_18
.LBB4_69:                               #   in Loop: Header=BB4_12 Depth=1
	movw	BasicBlockSignatureTracker, %ax
	movw	RunTimeSignatureAdjuster, %cx
	xorw	$15743, %ax             # imm = 0x3D7F
	xorw	%cx, %ax
	cmpw	$8368, %ax              # imm = 0x20B0
	jne	.LBB4_80
# %bb.70:                               # %mainSimpleSort.split154
                                        #   in Loop: Header=BB4_12 Depth=1
	movw	$8368, BasicBlockSignatureTracker # imm = 0x20B0
	movw	$0, RunTimeSignatureAdjuster
# %bb.71:                               #   in Loop: Header=BB4_12 Depth=1
	movw	BasicBlockSignatureTracker, %ax
	xorw	$114, %ax
	cmpw	$8386, %ax              # imm = 0x20C2
	jne	.LBB4_80
# %bb.72:                               # %mainSimpleSort.split198
                                        #   in Loop: Header=BB4_12 Depth=1
	movl	(%rdx), %eax
	addl	$-1, %eax
	movl	%eax, (%rdx)
	movw	$8386, BasicBlockSignatureTracker # imm = 0x20C2
	movw	$15374, RunTimeSignatureAdjuster # imm = 0x3C0E
	jmp	.LBB4_12
.LBB4_73:                               # %.loopexit7
	jmp	.LBB4_74
.LBB4_74:
	movw	BasicBlockSignatureTracker, %ax
	movw	RunTimeSignatureAdjuster, %cx
	xorw	$15546, %ax             # imm = 0x3CBA
	xorw	%cx, %ax
	cmpw	$8390, %ax              # imm = 0x20C6
	jne	.LBB4_82
# %bb.75:                               # %mainSimpleSort.split136
	movw	$8390, BasicBlockSignatureTracker # imm = 0x20C6
	movw	$14191, RunTimeSignatureAdjuster # imm = 0x376F
	leaq	-40(%rbp), %rsp
	popq	%rbx
	popq	%r12
	popq	%r13
	popq	%r14
	popq	%r15
	popq	%rbp
	retq
.LBB4_76:                               # %CFerrorHandler.mainSimpleSort.loopexit
	jmp	.LBB4_82
.LBB4_77:                               # %CFerrorHandler.mainSimpleSort.loopexit1
	jmp	.LBB4_82
.LBB4_78:                               # %CFerrorHandler.mainSimpleSort.loopexit3
	jmp	.LBB4_82
.LBB4_79:                               # %CFerrorHandler.mainSimpleSort.loopexit5
	jmp	.LBB4_82
.LBB4_80:                               # %CFerrorHandler.mainSimpleSort.loopexit6
	jmp	.LBB4_82
.LBB4_81:                               # %CFerrorHandler.mainSimpleSort.loopexit8
	jmp	.LBB4_82
.LBB4_82:                               # %CFerrorHandler.mainSimpleSort
	callq	FAULT_DETECTED_CFC
.Lfunc_end4:
	.size	mainSimpleSort, .Lfunc_end4-mainSimpleSort
	.cfi_endproc
                                        # -- End function
	.p2align	4, 0x90         # -- Begin function mmed3
	.type	mmed3,@function
mmed3:                                  # @mmed3
	.cfi_startproc
# %bb.0:
	pushq	%rbp
	.cfi_def_cfa_offset 16
	.cfi_offset %rbp, -16
	movq	%rsp, %rbp
	.cfi_def_cfa_register %rbp
	movw	BasicBlockSignatureTracker, %ax
	movw	RunTimeSignatureAdjuster, %cx
	xorw	$14601, %ax             # imm = 0x3909
	xorw	%cx, %ax
	cmpw	$8464, %ax              # imm = 0x2110
	jne	.LBB5_14
# %bb.1:                                # %mmed3.split
	movq	%rsp, %r9
	addq	$-16, %r9
	movq	%r9, %rsp
	movq	%rsp, %r8
	addq	$-16, %r8
	movq	%r8, %rsp
	movq	%rsp, %rax
	addq	$-16, %rax
	movq	%rax, %rsp
	movq	%rsp, %rcx
	addq	$-16, %rcx
	movq	%rcx, %rsp
	movb	%dil, (%r9)
	movb	%sil, (%r8)
	movb	%dl, (%rax)
	movzbl	(%r9), %edx
	movzbl	(%r8), %esi
	movw	$8464, BasicBlockSignatureTracker # imm = 0x2110
	movw	$0, RunTimeSignatureAdjuster
	cmpl	%esi, %edx
	jle	.LBB5_4
# %bb.2:
	movw	BasicBlockSignatureTracker, %dx
	xorw	$95, %dx
	cmpw	$8527, %dx              # imm = 0x214F
	jne	.LBB5_14
# %bb.3:                                # %mmed3.split27
	movb	(%r9), %dl
	movb	%dl, (%rcx)
	movb	(%r8), %dl
	movb	%dl, (%r9)
	movb	(%rcx), %cl
	movb	%cl, (%r8)
	movw	$8527, BasicBlockSignatureTracker # imm = 0x214F
	movw	$95, RunTimeSignatureAdjuster
.LBB5_4:
	movw	BasicBlockSignatureTracker, %cx
	movw	RunTimeSignatureAdjuster, %dx
	xorw	$122, %cx
	xorw	%dx, %cx
	cmpw	$8554, %cx              # imm = 0x216A
	jne	.LBB5_14
# %bb.5:                                # %mmed3.split29
	movzbl	(%r8), %ecx
	movzbl	(%rax), %edx
	movw	$8554, BasicBlockSignatureTracker # imm = 0x216A
	movw	$0, RunTimeSignatureAdjuster
	cmpl	%edx, %ecx
	jle	.LBB5_12
# %bb.6:
	movw	BasicBlockSignatureTracker, %cx
	xorw	$251, %cx
	cmpw	$8593, %cx              # imm = 0x2191
	jne	.LBB5_14
# %bb.7:                                # %mmed3.split31
	movb	(%rax), %al
	movb	%al, (%r8)
	movzbl	(%r9), %eax
	movzbl	(%r8), %ecx
	movw	$8593, BasicBlockSignatureTracker # imm = 0x2191
	movw	$0, RunTimeSignatureAdjuster
	cmpl	%ecx, %eax
	jle	.LBB5_10
# %bb.8:
	movw	BasicBlockSignatureTracker, %ax
	xorw	$14, %ax
	cmpw	$8607, %ax              # imm = 0x219F
	jne	.LBB5_14
# %bb.9:                                # %mmed3.split35
	movb	(%r9), %al
	movb	%al, (%r8)
	movw	$8607, BasicBlockSignatureTracker # imm = 0x219F
	movw	$14, RunTimeSignatureAdjuster
.LBB5_10:
	movw	BasicBlockSignatureTracker, %ax
	movw	RunTimeSignatureAdjuster, %cx
	xorw	$36, %ax
	xorw	%cx, %ax
	cmpw	$8629, %ax              # imm = 0x21B5
	jne	.LBB5_14
# %bb.11:                               # %mmed3.split37
	movw	$8629, BasicBlockSignatureTracker # imm = 0x21B5
	movw	$223, RunTimeSignatureAdjuster
.LBB5_12:
	movw	BasicBlockSignatureTracker, %ax
	movw	RunTimeSignatureAdjuster, %cx
	xorw	$160, %ax
	xorw	%cx, %ax
	cmpw	$8650, %ax              # imm = 0x21CA
	jne	.LBB5_14
# %bb.13:                               # %mmed3.split33
	movb	(%r8), %al
	movw	$8650, BasicBlockSignatureTracker # imm = 0x21CA
	movw	$13926, RunTimeSignatureAdjuster # imm = 0x3666
	movzbl	%al, %eax
	movq	%rbp, %rsp
	popq	%rbp
	retq
.LBB5_14:                               # %CFerrorHandler.mmed3
	callq	FAULT_DETECTED_CFC
.Lfunc_end5:
	.size	mmed3, .Lfunc_end5-mmed3
	.cfi_endproc
                                        # -- End function
	.p2align	4, 0x90         # -- Begin function mainGtU
	.type	mainGtU,@function
mainGtU:                                # @mainGtU
	.cfi_startproc
# %bb.0:
	pushq	%rbp
	.cfi_def_cfa_offset 16
	.cfi_offset %rbp, -16
	movq	%rsp, %rbp
	.cfi_def_cfa_register %rbp
	pushq	%r15
	pushq	%r14
	pushq	%r13
	pushq	%r12
	pushq	%rbx
	subq	$56, %rsp
	.cfi_offset %rbx, -56
	.cfi_offset %r12, -48
	.cfi_offset %r13, -40
	.cfi_offset %r14, -32
	.cfi_offset %r15, -24
	movl	%edi, %r12d
	movw	BasicBlockSignatureTracker, %ax
	movw	RunTimeSignatureAdjuster, %bx
	xorw	$16358, %ax             # imm = 0x3FE6
	xorw	%bx, %ax
	cmpw	$8755, %ax              # imm = 0x2233
	jne	.LBB6_135
# %bb.1:                                # %mainGtU.split220
	movw	BasicBlockSignatureTracker, %ax
	movw	RunTimeSignatureAdjuster, %bx
	xorw	$16358, %ax             # imm = 0x3FE6
	xorw	%bx, %ax
	cmpw	$8755, %ax              # imm = 0x2233
	jne	.LBB6_135
# %bb.2:                                # %mainGtU.split218
	movw	BasicBlockSignatureTracker, %ax
	movw	RunTimeSignatureAdjuster, %bx
	xorw	$16358, %ax             # imm = 0x3FE6
	xorw	%bx, %ax
	cmpw	$8755, %ax              # imm = 0x2233
	jne	.LBB6_135
# %bb.3:                                # %mainGtU.split
	movq	%rsp, %rax
	addq	$-16, %rax
	movq	%rax, -48(%rbp)         # 8-byte Spill
	movq	%rax, %rsp
	movq	%rsp, %rax
	addq	$-16, %rax
	movq	%rax, -56(%rbp)         # 8-byte Spill
	movq	%rax, %rsp
	movq	%rsp, %rbx
	addq	$-16, %rbx
	movq	%rbx, %rsp
	movq	%rsp, %r14
	addq	$-16, %r14
	movq	%r14, %rsp
	movq	%rsp, %r15
	addq	$-16, %r15
	movq	%r15, %rsp
	movq	%rsp, %r11
	addq	$-16, %r11
	movq	%r11, %rsp
	movq	%rsp, %r13
	addq	$-16, %r13
	movq	%r13, %rsp
	movq	%rsp, %rax
	addq	$-16, %rax
	movq	%rax, -80(%rbp)         # 8-byte Spill
	movq	%rax, %rsp
	movq	%rsp, %rdi
	addq	$-16, %rdi
	movq	%rdi, %rsp
	movl	%esi, -84(%rbp)         # 4-byte Spill
	movq	%rsp, %rsi
	addq	$-16, %rsi
	movq	%rsi, %rsp
	movq	%rsp, %rax
	addq	$-16, %rax
	movq	%rax, -64(%rbp)         # 8-byte Spill
	movq	%rax, %rsp
	movq	%rsp, %r10
	addq	$-16, %r10
	movq	%r10, -72(%rbp)         # 8-byte Spill
	movq	%r10, %rsp
	movq	-56(%rbp), %r10         # 8-byte Reload
	movl	%r12d, (%r10)
	movl	-84(%rbp), %eax         # 4-byte Reload
	movl	%eax, (%rbx)
	movq	%rdx, (%r14)
	movq	%r15, %r12
	movq	%rcx, (%r15)
	movq	%r11, %r15
	movl	%r8d, (%r11)
	movq	%r14, %rax
	movq	%r13, %r8
	movq	%r9, (%r13)
	movq	(%rax), %rcx
	movl	(%r10), %edx
	movb	(%rcx,%rdx), %cl
	movb	%cl, (%rdi)
	movq	(%rax), %rcx
	movl	(%rbx), %edx
	movb	(%rcx,%rdx), %cl
	movb	%cl, (%rsi)
	movzbl	(%rdi), %ecx
	movzbl	(%rsi), %edx
	movw	$8755, BasicBlockSignatureTracker # imm = 0x2233
	movw	$0, RunTimeSignatureAdjuster
	cmpl	%edx, %ecx
	je	.LBB6_6
# %bb.4:
	movw	BasicBlockSignatureTracker, %ax
	xorw	$9, %ax
	cmpw	$8762, %ax              # imm = 0x223A
	jne	.LBB6_135
# %bb.5:                                # %mainGtU.split222
	movzbl	(%rdi), %eax
	movzbl	(%rsi), %ecx
	cmpl	%ecx, %eax
	setg	%al
	andb	$1, %al
	movzbl	%al, %eax
	movq	-48(%rbp), %rcx         # 8-byte Reload
	movb	%al, (%rcx)
	movw	$8762, BasicBlockSignatureTracker # imm = 0x223A
	movw	$0, RunTimeSignatureAdjuster
	jmp	.LBB6_132
.LBB6_6:
	movw	BasicBlockSignatureTracker, %cx
	xorw	$83, %cx
	cmpw	$8800, %cx              # imm = 0x2260
	jne	.LBB6_135
# %bb.7:                                # %mainGtU.split224
	movl	(%r10), %ecx
	addl	$1, %ecx
	movl	%ecx, (%r10)
	movl	(%rbx), %ecx
	addl	$1, %ecx
	movl	%ecx, (%rbx)
	movq	(%rax), %rcx
	movl	(%r10), %edx
	movb	(%rcx,%rdx), %cl
	movb	%cl, (%rdi)
	movq	(%rax), %rcx
	movl	(%rbx), %edx
	movb	(%rcx,%rdx), %cl
	movb	%cl, (%rsi)
	movzbl	(%rdi), %ecx
	movzbl	(%rsi), %edx
	movw	$8800, BasicBlockSignatureTracker # imm = 0x2260
	movw	$0, RunTimeSignatureAdjuster
	cmpl	%edx, %ecx
	je	.LBB6_10
# %bb.8:
	movw	BasicBlockSignatureTracker, %ax
	xorw	$242, %ax
	cmpw	$8850, %ax              # imm = 0x2292
	jne	.LBB6_135
# %bb.9:                                # %mainGtU.split228
	movzbl	(%rdi), %eax
	movzbl	(%rsi), %ecx
	cmpl	%ecx, %eax
	setg	%al
	andb	$1, %al
	movzbl	%al, %eax
	movq	-48(%rbp), %rcx         # 8-byte Reload
	movb	%al, (%rcx)
	movw	$8850, BasicBlockSignatureTracker # imm = 0x2292
	movw	$168, RunTimeSignatureAdjuster
	jmp	.LBB6_132
.LBB6_10:
	movw	BasicBlockSignatureTracker, %cx
	xorw	$213, %cx
	cmpw	$8885, %cx              # imm = 0x22B5
	jne	.LBB6_135
# %bb.11:                               # %mainGtU.split230
	movl	(%r10), %ecx
	addl	$1, %ecx
	movl	%ecx, (%r10)
	movl	(%rbx), %ecx
	addl	$1, %ecx
	movl	%ecx, (%rbx)
	movq	(%rax), %rcx
	movl	(%r10), %edx
	movb	(%rcx,%rdx), %cl
	movb	%cl, (%rdi)
	movq	(%rax), %rcx
	movl	(%rbx), %edx
	movb	(%rcx,%rdx), %cl
	movb	%cl, (%rsi)
	movzbl	(%rdi), %ecx
	movzbl	(%rsi), %edx
	movw	$8885, BasicBlockSignatureTracker # imm = 0x22B5
	movw	$0, RunTimeSignatureAdjuster
	cmpl	%edx, %ecx
	je	.LBB6_14
# %bb.12:
	movw	BasicBlockSignatureTracker, %ax
	xorw	$105, %ax
	cmpw	$8924, %ax              # imm = 0x22DC
	jne	.LBB6_135
# %bb.13:                               # %mainGtU.split232
	movzbl	(%rdi), %eax
	movzbl	(%rsi), %ecx
	cmpl	%ecx, %eax
	setg	%al
	andb	$1, %al
	movzbl	%al, %eax
	movq	-48(%rbp), %rcx         # 8-byte Reload
	movb	%al, (%rcx)
	movw	$8924, BasicBlockSignatureTracker # imm = 0x22DC
	movw	$230, RunTimeSignatureAdjuster
	jmp	.LBB6_132
.LBB6_14:
	movw	BasicBlockSignatureTracker, %cx
	xorw	$107, %cx
	cmpw	$8926, %cx              # imm = 0x22DE
	jne	.LBB6_135
# %bb.15:                               # %mainGtU.split234
	movl	(%r10), %ecx
	addl	$1, %ecx
	movl	%ecx, (%r10)
	movl	(%rbx), %ecx
	addl	$1, %ecx
	movl	%ecx, (%rbx)
	movq	(%rax), %rcx
	movl	(%r10), %edx
	movb	(%rcx,%rdx), %cl
	movb	%cl, (%rdi)
	movq	(%rax), %rcx
	movl	(%rbx), %edx
	movb	(%rcx,%rdx), %cl
	movb	%cl, (%rsi)
	movzbl	(%rdi), %ecx
	movzbl	(%rsi), %edx
	movw	$8926, BasicBlockSignatureTracker # imm = 0x22DE
	movw	$0, RunTimeSignatureAdjuster
	cmpl	%edx, %ecx
	je	.LBB6_18
# %bb.16:
	movw	BasicBlockSignatureTracker, %ax
	xorw	$58, %ax
	cmpw	$8932, %ax              # imm = 0x22E4
	jne	.LBB6_135
# %bb.17:                               # %mainGtU.split236
	movzbl	(%rdi), %eax
	movzbl	(%rsi), %ecx
	cmpl	%ecx, %eax
	setg	%al
	andb	$1, %al
	movzbl	%al, %eax
	movq	-48(%rbp), %rcx         # 8-byte Reload
	movb	%al, (%rcx)
	movw	$8932, BasicBlockSignatureTracker # imm = 0x22E4
	movw	$222, RunTimeSignatureAdjuster
	jmp	.LBB6_132
.LBB6_18:
	movw	BasicBlockSignatureTracker, %cx
	xorw	$476, %cx               # imm = 0x1DC
	cmpw	$8962, %cx              # imm = 0x2302
	jne	.LBB6_135
# %bb.19:                               # %mainGtU.split238
	movl	(%r10), %ecx
	addl	$1, %ecx
	movl	%ecx, (%r10)
	movl	(%rbx), %ecx
	addl	$1, %ecx
	movl	%ecx, (%rbx)
	movq	(%rax), %rcx
	movl	(%r10), %edx
	movb	(%rcx,%rdx), %cl
	movb	%cl, (%rdi)
	movq	(%rax), %rcx
	movl	(%rbx), %edx
	movb	(%rcx,%rdx), %cl
	movb	%cl, (%rsi)
	movzbl	(%rdi), %ecx
	movzbl	(%rsi), %edx
	movw	$8962, BasicBlockSignatureTracker # imm = 0x2302
	movw	$0, RunTimeSignatureAdjuster
	cmpl	%edx, %ecx
	je	.LBB6_22
# %bb.20:
	movw	BasicBlockSignatureTracker, %ax
	xorw	$6, %ax
	cmpw	$8964, %ax              # imm = 0x2304
	jne	.LBB6_135
# %bb.21:                               # %mainGtU.split240
	movzbl	(%rdi), %eax
	movzbl	(%rsi), %ecx
	cmpl	%ecx, %eax
	setg	%al
	andb	$1, %al
	movzbl	%al, %eax
	movq	-48(%rbp), %rcx         # 8-byte Reload
	movb	%al, (%rcx)
	movw	$8964, BasicBlockSignatureTracker # imm = 0x2304
	movw	$318, RunTimeSignatureAdjuster # imm = 0x13E
	jmp	.LBB6_132
.LBB6_22:
	movw	BasicBlockSignatureTracker, %cx
	xorw	$25, %cx
	cmpw	$8987, %cx              # imm = 0x231B
	jne	.LBB6_135
# %bb.23:                               # %mainGtU.split242
	movl	(%r10), %ecx
	addl	$1, %ecx
	movl	%ecx, (%r10)
	movl	(%rbx), %ecx
	addl	$1, %ecx
	movl	%ecx, (%rbx)
	movq	(%rax), %rcx
	movl	(%r10), %edx
	movb	(%rcx,%rdx), %cl
	movb	%cl, (%rdi)
	movq	(%rax), %rcx
	movl	(%rbx), %edx
	movb	(%rcx,%rdx), %cl
	movb	%cl, (%rsi)
	movzbl	(%rdi), %ecx
	movzbl	(%rsi), %edx
	movw	$8987, BasicBlockSignatureTracker # imm = 0x231B
	movw	$0, RunTimeSignatureAdjuster
	cmpl	%edx, %ecx
	je	.LBB6_26
# %bb.24:
	movw	BasicBlockSignatureTracker, %ax
	xorw	$49, %ax
	cmpw	$9002, %ax              # imm = 0x232A
	jne	.LBB6_135
# %bb.25:                               # %mainGtU.split244
	movzbl	(%rdi), %eax
	movzbl	(%rsi), %ecx
	cmpl	%ecx, %eax
	setg	%al
	andb	$1, %al
	movzbl	%al, %eax
	movq	-48(%rbp), %rcx         # 8-byte Reload
	movb	%al, (%rcx)
	movw	$9002, BasicBlockSignatureTracker # imm = 0x232A
	movw	$272, RunTimeSignatureAdjuster # imm = 0x110
	jmp	.LBB6_132
.LBB6_26:
	movw	BasicBlockSignatureTracker, %cx
	xorw	$46, %cx
	cmpw	$9013, %cx              # imm = 0x2335
	jne	.LBB6_135
# %bb.27:                               # %mainGtU.split246
	movl	(%r10), %ecx
	addl	$1, %ecx
	movl	%ecx, (%r10)
	movl	(%rbx), %ecx
	addl	$1, %ecx
	movl	%ecx, (%rbx)
	movq	(%rax), %rcx
	movl	(%r10), %edx
	movb	(%rcx,%rdx), %cl
	movb	%cl, (%rdi)
	movq	%rax, %r13
	movq	(%rax), %rcx
	movq	%rbx, %r14
	movl	(%rbx), %edx
	movb	(%rcx,%rdx), %cl
	movb	%cl, (%rsi)
	movq	%rdi, %r11
	movzbl	(%rdi), %ecx
	movq	%rsi, %r10
	movzbl	(%rsi), %edx
	movw	$9013, BasicBlockSignatureTracker # imm = 0x2335
	movw	$0, RunTimeSignatureAdjuster
	cmpl	%edx, %ecx
	je	.LBB6_30
# %bb.28:
	movw	BasicBlockSignatureTracker, %ax
	xorw	$126, %ax
	cmpw	$9035, %ax              # imm = 0x234B
	jne	.LBB6_135
# %bb.29:                               # %mainGtU.split248
	movzbl	(%r11), %eax
	movzbl	(%r10), %ecx
	cmpl	%ecx, %eax
	setg	%al
	andb	$1, %al
	movzbl	%al, %eax
	movq	-48(%rbp), %rcx         # 8-byte Reload
	movb	%al, (%rcx)
	movw	$9035, BasicBlockSignatureTracker # imm = 0x234B
	movw	$369, RunTimeSignatureAdjuster # imm = 0x171
	jmp	.LBB6_132
.LBB6_30:
	movw	BasicBlockSignatureTracker, %cx
	xorw	$110, %cx
	cmpw	$9051, %cx              # imm = 0x235B
	movq	%r10, %r9
	movq	%r11, %rdi
	movq	-56(%rbp), %rax         # 8-byte Reload
	movq	%r14, %rbx
	movq	%r13, %rsi
	jne	.LBB6_135
# %bb.31:                               # %mainGtU.split250
	movl	(%rax), %ecx
	addl	$1, %ecx
	movl	%ecx, (%rax)
	movl	(%rbx), %ecx
	addl	$1, %ecx
	movl	%ecx, (%rbx)
	movq	(%rsi), %rcx
	movl	(%rax), %edx
	movb	(%rcx,%rdx), %cl
	movb	%cl, (%rdi)
	movq	(%rsi), %rcx
	movl	(%rbx), %edx
	movb	(%rcx,%rdx), %cl
	movb	%cl, (%r9)
	movzbl	(%rdi), %ecx
	movzbl	(%r9), %edx
	movw	$9051, BasicBlockSignatureTracker # imm = 0x235B
	movw	$0, RunTimeSignatureAdjuster
	cmpl	%edx, %ecx
	je	.LBB6_34
# %bb.32:
	movw	BasicBlockSignatureTracker, %ax
	xorw	$60, %ax
	cmpw	$9063, %ax              # imm = 0x2367
	jne	.LBB6_135
# %bb.33:                               # %mainGtU.split252
	movzbl	(%r11), %eax
	movzbl	(%r10), %ecx
	cmpl	%ecx, %eax
	setg	%al
	andb	$1, %al
	movzbl	%al, %eax
	movq	-48(%rbp), %rcx         # 8-byte Reload
	movb	%al, (%rcx)
	movw	$9063, BasicBlockSignatureTracker # imm = 0x2367
	movw	$349, RunTimeSignatureAdjuster # imm = 0x15D
	jmp	.LBB6_132
.LBB6_34:
	movw	BasicBlockSignatureTracker, %cx
	xorw	$194, %cx
	cmpw	$9113, %cx              # imm = 0x2399
	movq	%r10, %r9
	movq	%r11, %rdi
	movq	-56(%rbp), %rax         # 8-byte Reload
	movq	%r14, %rbx
	movq	%r13, %rsi
	jne	.LBB6_135
# %bb.35:                               # %mainGtU.split254
	movl	(%rax), %ecx
	addl	$1, %ecx
	movl	%ecx, (%rax)
	movl	(%rbx), %ecx
	addl	$1, %ecx
	movl	%ecx, (%rbx)
	movq	(%rsi), %rcx
	movl	(%rax), %edx
	movb	(%rcx,%rdx), %cl
	movb	%cl, (%rdi)
	movq	(%rsi), %rcx
	movl	(%rbx), %edx
	movb	(%rcx,%rdx), %cl
	movb	%cl, (%r9)
	movzbl	(%rdi), %ecx
	movzbl	(%r9), %edx
	movw	$9113, BasicBlockSignatureTracker # imm = 0x2399
	movw	$0, RunTimeSignatureAdjuster
	cmpl	%edx, %ecx
	je	.LBB6_38
# %bb.36:
	movw	BasicBlockSignatureTracker, %ax
	xorw	$95, %ax
	cmpw	$9158, %ax              # imm = 0x23C6
	jne	.LBB6_135
# %bb.37:                               # %mainGtU.split256
	movzbl	(%r11), %eax
	movzbl	(%r10), %ecx
	cmpl	%ecx, %eax
	setg	%al
	andb	$1, %al
	movzbl	%al, %eax
	movq	-48(%rbp), %rcx         # 8-byte Reload
	movb	%al, (%rcx)
	movw	$9158, BasicBlockSignatureTracker # imm = 0x23C6
	movw	$508, RunTimeSignatureAdjuster # imm = 0x1FC
	jmp	.LBB6_132
.LBB6_38:
	movw	BasicBlockSignatureTracker, %cx
	xorw	$127, %cx
	cmpw	$9190, %cx              # imm = 0x23E6
	movq	%r10, %r9
	movq	%r11, %rdi
	movq	-56(%rbp), %rax         # 8-byte Reload
	movq	%r14, %rbx
	movq	%r13, %rsi
	jne	.LBB6_135
# %bb.39:                               # %mainGtU.split258
	movl	(%rax), %ecx
	addl	$1, %ecx
	movl	%ecx, (%rax)
	movl	(%rbx), %ecx
	addl	$1, %ecx
	movl	%ecx, (%rbx)
	movq	(%rsi), %rcx
	movl	(%rax), %edx
	movb	(%rcx,%rdx), %cl
	movb	%cl, (%rdi)
	movq	(%rsi), %rcx
	movl	(%rbx), %edx
	movb	(%rcx,%rdx), %cl
	movb	%cl, (%r9)
	movzbl	(%rdi), %ecx
	movzbl	(%r9), %edx
	movw	$9190, BasicBlockSignatureTracker # imm = 0x23E6
	movw	$0, RunTimeSignatureAdjuster
	cmpl	%edx, %ecx
	je	.LBB6_42
# %bb.40:
	movw	BasicBlockSignatureTracker, %ax
	xorw	$2027, %ax              # imm = 0x7EB
	cmpw	$9229, %ax              # imm = 0x240D
	jne	.LBB6_135
# %bb.41:                               # %mainGtU.split260
	movzbl	(%r11), %eax
	movzbl	(%r10), %ecx
	cmpl	%ecx, %eax
	setg	%al
	andb	$1, %al
	movzbl	%al, %eax
	movq	-48(%rbp), %rcx         # 8-byte Reload
	movb	%al, (%rcx)
	movw	$9229, BasicBlockSignatureTracker # imm = 0x240D
	movw	$1591, RunTimeSignatureAdjuster # imm = 0x637
	jmp	.LBB6_132
.LBB6_42:
	movw	BasicBlockSignatureTracker, %cx
	xorw	$1959, %cx              # imm = 0x7A7
	cmpw	$9281, %cx              # imm = 0x2441
	movq	%r10, %r9
	movq	%r11, %rdi
	movq	-56(%rbp), %rax         # 8-byte Reload
	movq	%r14, %rbx
	movq	%r13, %rsi
	jne	.LBB6_135
# %bb.43:                               # %mainGtU.split262
